ARM GAS  C:\Users\pfautley\AppData\Local\Temp\ccVq4Bnc.s 			page 1


   1              		.syntax unified
   2              		.cpu cortex-m3
   3              		.fpu softvfp
   4              		.eabi_attribute 20, 1
   5              		.eabi_attribute 21, 1
   6              		.eabi_attribute 23, 3
   7              		.eabi_attribute 24, 1
   8              		.eabi_attribute 25, 1
   9              		.eabi_attribute 26, 1
  10              		.eabi_attribute 30, 6
  11              		.eabi_attribute 34, 1
  12              		.eabi_attribute 18, 4
  13              		.thumb
  14              		.file	"cyfitter_cfg.c"
  15              		.text
  16              	.Ltext0:
  17              		.cfi_sections	.debug_frame
  18              		.section	.text.CYMEMZERO,"ax",%progbits
  19              		.align	2
  20              		.thumb
  21              		.thumb_func
  22              		.type	CYMEMZERO, %function
  23              	CYMEMZERO:
  24              	.LFB0:
  25              		.file 1 ".\\Generated_Source\\PSoC5\\cyfitter_cfg.c"
   1:.\Generated_Source\PSoC5/cyfitter_cfg.c **** /*******************************************************************************
   2:.\Generated_Source\PSoC5/cyfitter_cfg.c **** * FILENAME: cyfitter_cfg.c
   3:.\Generated_Source\PSoC5/cyfitter_cfg.c **** * PSoC Creator  3.1 SP2
   4:.\Generated_Source\PSoC5/cyfitter_cfg.c **** *
   5:.\Generated_Source\PSoC5/cyfitter_cfg.c **** * Description:
   6:.\Generated_Source\PSoC5/cyfitter_cfg.c **** * This file is automatically generated by PSoC Creator with device 
   7:.\Generated_Source\PSoC5/cyfitter_cfg.c **** * initialization code.  Except for the user defined sections in
   8:.\Generated_Source\PSoC5/cyfitter_cfg.c **** * CyClockStartupError(), this file should not be modified.
   9:.\Generated_Source\PSoC5/cyfitter_cfg.c **** *
  10:.\Generated_Source\PSoC5/cyfitter_cfg.c **** ********************************************************************************
  11:.\Generated_Source\PSoC5/cyfitter_cfg.c **** * Copyright 2013, Cypress Semiconductor Corporation.  All rights reserved.
  12:.\Generated_Source\PSoC5/cyfitter_cfg.c **** * You may use this file only in accordance with the license, terms, conditions, 
  13:.\Generated_Source\PSoC5/cyfitter_cfg.c **** * disclaimers, and limitations in the end user license agreement accompanying 
  14:.\Generated_Source\PSoC5/cyfitter_cfg.c **** * the software package with which this file was provided.
  15:.\Generated_Source\PSoC5/cyfitter_cfg.c **** ********************************************************************************/
  16:.\Generated_Source\PSoC5/cyfitter_cfg.c **** 
  17:.\Generated_Source\PSoC5/cyfitter_cfg.c **** #include <string.h>
  18:.\Generated_Source\PSoC5/cyfitter_cfg.c **** #include <cytypes.h>
  19:.\Generated_Source\PSoC5/cyfitter_cfg.c **** #include <cydevice_trm.h>
  20:.\Generated_Source\PSoC5/cyfitter_cfg.c **** #include <cyfitter.h>
  21:.\Generated_Source\PSoC5/cyfitter_cfg.c **** #include <CyLib.h>
  22:.\Generated_Source\PSoC5/cyfitter_cfg.c **** #include <cyfitter_cfg.h>
  23:.\Generated_Source\PSoC5/cyfitter_cfg.c **** 
  24:.\Generated_Source\PSoC5/cyfitter_cfg.c **** #define CY_NEED_CYCLOCKSTARTUPERROR 1
  25:.\Generated_Source\PSoC5/cyfitter_cfg.c **** 
  26:.\Generated_Source\PSoC5/cyfitter_cfg.c **** 
  27:.\Generated_Source\PSoC5/cyfitter_cfg.c **** #if defined(__GNUC__) || defined(__ARMCC_VERSION)
  28:.\Generated_Source\PSoC5/cyfitter_cfg.c ****     #define CYPACKED 
  29:.\Generated_Source\PSoC5/cyfitter_cfg.c ****     #define CYPACKED_ATTR __attribute__ ((packed))
  30:.\Generated_Source\PSoC5/cyfitter_cfg.c ****     #define CYALIGNED __attribute__ ((aligned))
  31:.\Generated_Source\PSoC5/cyfitter_cfg.c ****     #define CY_CFG_UNUSED __attribute__ ((unused))
  32:.\Generated_Source\PSoC5/cyfitter_cfg.c ****     #define CY_CFG_SECTION __attribute__ ((section(".psocinit")))
ARM GAS  C:\Users\pfautley\AppData\Local\Temp\ccVq4Bnc.s 			page 2


  33:.\Generated_Source\PSoC5/cyfitter_cfg.c ****     
  34:.\Generated_Source\PSoC5/cyfitter_cfg.c ****     #if CYDEV_CONFIGURATION_DMA
  35:.\Generated_Source\PSoC5/cyfitter_cfg.c ****         #if (defined(__ARMCC_VERSION) || defined(__GNUC__))
  36:.\Generated_Source\PSoC5/cyfitter_cfg.c ****             #define DMAINITSEC __attribute__ ((section(".dma_init")))
  37:.\Generated_Source\PSoC5/cyfitter_cfg.c ****         #elif defined(__ICCARM__)
  38:.\Generated_Source\PSoC5/cyfitter_cfg.c ****             #define DMAINITSEC _Pragma("location=\".dma_init\"")
  39:.\Generated_Source\PSoC5/cyfitter_cfg.c ****         #endif
  40:.\Generated_Source\PSoC5/cyfitter_cfg.c ****     #else
  41:.\Generated_Source\PSoC5/cyfitter_cfg.c ****         #define DMAINITSEC
  42:.\Generated_Source\PSoC5/cyfitter_cfg.c ****     #endif
  43:.\Generated_Source\PSoC5/cyfitter_cfg.c **** 
  44:.\Generated_Source\PSoC5/cyfitter_cfg.c ****     #if defined(__ARMCC_VERSION)
  45:.\Generated_Source\PSoC5/cyfitter_cfg.c ****         #define CY_CFG_MEMORY_BARRIER() __memory_changed()
  46:.\Generated_Source\PSoC5/cyfitter_cfg.c ****     #else
  47:.\Generated_Source\PSoC5/cyfitter_cfg.c ****         #define CY_CFG_MEMORY_BARRIER() __sync_synchronize()
  48:.\Generated_Source\PSoC5/cyfitter_cfg.c ****     #endif
  49:.\Generated_Source\PSoC5/cyfitter_cfg.c ****     
  50:.\Generated_Source\PSoC5/cyfitter_cfg.c **** #elif defined(__ICCARM__)
  51:.\Generated_Source\PSoC5/cyfitter_cfg.c ****     #include <intrinsics.h>
  52:.\Generated_Source\PSoC5/cyfitter_cfg.c **** 
  53:.\Generated_Source\PSoC5/cyfitter_cfg.c ****     #define CYPACKED __packed
  54:.\Generated_Source\PSoC5/cyfitter_cfg.c ****     #define CYPACKED_ATTR 
  55:.\Generated_Source\PSoC5/cyfitter_cfg.c ****     #define CYALIGNED _Pragma("data_alignment=4")
  56:.\Generated_Source\PSoC5/cyfitter_cfg.c ****     #define CY_CFG_UNUSED _Pragma("diag_suppress=Pe177")
  57:.\Generated_Source\PSoC5/cyfitter_cfg.c ****     #define CY_CFG_SECTION _Pragma("location=\".psocinit\"")
  58:.\Generated_Source\PSoC5/cyfitter_cfg.c ****     
  59:.\Generated_Source\PSoC5/cyfitter_cfg.c ****     #if CYDEV_CONFIGURATION_DMA
  60:.\Generated_Source\PSoC5/cyfitter_cfg.c ****         #if (defined(__ARMCC_VERSION) || defined(__GNUC__))
  61:.\Generated_Source\PSoC5/cyfitter_cfg.c ****             #define DMAINITSEC __attribute__ ((section(".dma_init")))
  62:.\Generated_Source\PSoC5/cyfitter_cfg.c ****         #elif defined(__ICCARM__)
  63:.\Generated_Source\PSoC5/cyfitter_cfg.c ****             #define DMAINITSEC _Pragma("location=\".dma_init\"")
  64:.\Generated_Source\PSoC5/cyfitter_cfg.c ****         #endif
  65:.\Generated_Source\PSoC5/cyfitter_cfg.c ****     #else
  66:.\Generated_Source\PSoC5/cyfitter_cfg.c ****         #define DMAINITSEC
  67:.\Generated_Source\PSoC5/cyfitter_cfg.c ****     #endif
  68:.\Generated_Source\PSoC5/cyfitter_cfg.c **** 
  69:.\Generated_Source\PSoC5/cyfitter_cfg.c ****     #define CY_CFG_MEMORY_BARRIER() __DMB()
  70:.\Generated_Source\PSoC5/cyfitter_cfg.c ****     
  71:.\Generated_Source\PSoC5/cyfitter_cfg.c **** #else
  72:.\Generated_Source\PSoC5/cyfitter_cfg.c ****     #error Unsupported toolchain
  73:.\Generated_Source\PSoC5/cyfitter_cfg.c **** #endif
  74:.\Generated_Source\PSoC5/cyfitter_cfg.c **** 
  75:.\Generated_Source\PSoC5/cyfitter_cfg.c **** 
  76:.\Generated_Source\PSoC5/cyfitter_cfg.c **** CY_CFG_UNUSED
  77:.\Generated_Source\PSoC5/cyfitter_cfg.c **** static void CYMEMZERO(void *s, size_t n);
  78:.\Generated_Source\PSoC5/cyfitter_cfg.c **** CY_CFG_UNUSED
  79:.\Generated_Source\PSoC5/cyfitter_cfg.c **** static void CYMEMZERO(void *s, size_t n)
  80:.\Generated_Source\PSoC5/cyfitter_cfg.c **** {
  26              		.loc 1 80 0
  27              		.cfi_startproc
  28              		@ args = 0, pretend = 0, frame = 8
  29              		@ frame_needed = 1, uses_anonymous_args = 0
  30 0000 80B5     		push	{r7, lr}
  31              		.cfi_def_cfa_offset 8
  32              		.cfi_offset 7, -8
  33              		.cfi_offset 14, -4
  34 0002 82B0     		sub	sp, sp, #8
ARM GAS  C:\Users\pfautley\AppData\Local\Temp\ccVq4Bnc.s 			page 3


  35              		.cfi_def_cfa_offset 16
  36 0004 00AF     		add	r7, sp, #0
  37              		.cfi_def_cfa_register 7
  38 0006 7860     		str	r0, [r7, #4]
  39 0008 3960     		str	r1, [r7]
  81:.\Generated_Source\PSoC5/cyfitter_cfg.c **** 	(void)memset(s, 0, n);
  40              		.loc 1 81 0
  41 000a 7868     		ldr	r0, [r7, #4]
  42 000c 0021     		movs	r1, #0
  43 000e 3A68     		ldr	r2, [r7]
  44 0010 FFF7FEFF 		bl	memset
  82:.\Generated_Source\PSoC5/cyfitter_cfg.c **** }
  45              		.loc 1 82 0
  46 0014 0837     		adds	r7, r7, #8
  47 0016 BD46     		mov	sp, r7
  48              		@ sp needed
  49 0018 80BD     		pop	{r7, pc}
  50              		.cfi_endproc
  51              	.LFE0:
  52              		.size	CYMEMZERO, .-CYMEMZERO
  53 001a 00BF     		.section	.text.CYCONFIGCPY,"ax",%progbits
  54              		.align	2
  55              		.thumb
  56              		.thumb_func
  57              		.type	CYCONFIGCPY, %function
  58              	CYCONFIGCPY:
  59              	.LFB1:
  83:.\Generated_Source\PSoC5/cyfitter_cfg.c **** CY_CFG_UNUSED
  84:.\Generated_Source\PSoC5/cyfitter_cfg.c **** static void CYCONFIGCPY(void *dest, const void *src, size_t n);
  85:.\Generated_Source\PSoC5/cyfitter_cfg.c **** CY_CFG_UNUSED
  86:.\Generated_Source\PSoC5/cyfitter_cfg.c **** static void CYCONFIGCPY(void *dest, const void *src, size_t n)
  87:.\Generated_Source\PSoC5/cyfitter_cfg.c **** {
  60              		.loc 1 87 0
  61              		.cfi_startproc
  62              		@ args = 0, pretend = 0, frame = 16
  63              		@ frame_needed = 1, uses_anonymous_args = 0
  64 0000 80B5     		push	{r7, lr}
  65              		.cfi_def_cfa_offset 8
  66              		.cfi_offset 7, -8
  67              		.cfi_offset 14, -4
  68 0002 84B0     		sub	sp, sp, #16
  69              		.cfi_def_cfa_offset 24
  70 0004 00AF     		add	r7, sp, #0
  71              		.cfi_def_cfa_register 7
  72 0006 F860     		str	r0, [r7, #12]
  73 0008 B960     		str	r1, [r7, #8]
  74 000a 7A60     		str	r2, [r7, #4]
  88:.\Generated_Source\PSoC5/cyfitter_cfg.c **** 	(void)memcpy(dest, src, n);
  75              		.loc 1 88 0
  76 000c F868     		ldr	r0, [r7, #12]
  77 000e B968     		ldr	r1, [r7, #8]
  78 0010 7A68     		ldr	r2, [r7, #4]
  79 0012 FFF7FEFF 		bl	memcpy
  89:.\Generated_Source\PSoC5/cyfitter_cfg.c **** }
  80              		.loc 1 89 0
  81 0016 1037     		adds	r7, r7, #16
  82 0018 BD46     		mov	sp, r7
ARM GAS  C:\Users\pfautley\AppData\Local\Temp\ccVq4Bnc.s 			page 4


  83              		@ sp needed
  84 001a 80BD     		pop	{r7, pc}
  85              		.cfi_endproc
  86              	.LFE1:
  87              		.size	CYCONFIGCPY, .-CYCONFIGCPY
  88              		.section	.text.CYCONFIGCPYCODE,"ax",%progbits
  89              		.align	2
  90              		.thumb
  91              		.thumb_func
  92              		.type	CYCONFIGCPYCODE, %function
  93              	CYCONFIGCPYCODE:
  94              	.LFB2:
  90:.\Generated_Source\PSoC5/cyfitter_cfg.c **** CY_CFG_UNUSED
  91:.\Generated_Source\PSoC5/cyfitter_cfg.c **** static void CYCONFIGCPYCODE(void *dest, const void *src, size_t n);
  92:.\Generated_Source\PSoC5/cyfitter_cfg.c **** CY_CFG_UNUSED
  93:.\Generated_Source\PSoC5/cyfitter_cfg.c **** static void CYCONFIGCPYCODE(void *dest, const void *src, size_t n)
  94:.\Generated_Source\PSoC5/cyfitter_cfg.c **** {
  95              		.loc 1 94 0
  96              		.cfi_startproc
  97              		@ args = 0, pretend = 0, frame = 16
  98              		@ frame_needed = 1, uses_anonymous_args = 0
  99 0000 80B5     		push	{r7, lr}
 100              		.cfi_def_cfa_offset 8
 101              		.cfi_offset 7, -8
 102              		.cfi_offset 14, -4
 103 0002 84B0     		sub	sp, sp, #16
 104              		.cfi_def_cfa_offset 24
 105 0004 00AF     		add	r7, sp, #0
 106              		.cfi_def_cfa_register 7
 107 0006 F860     		str	r0, [r7, #12]
 108 0008 B960     		str	r1, [r7, #8]
 109 000a 7A60     		str	r2, [r7, #4]
  95:.\Generated_Source\PSoC5/cyfitter_cfg.c **** 	(void)memcpy(dest, src, n);
 110              		.loc 1 95 0
 111 000c F868     		ldr	r0, [r7, #12]
 112 000e B968     		ldr	r1, [r7, #8]
 113 0010 7A68     		ldr	r2, [r7, #4]
 114 0012 FFF7FEFF 		bl	memcpy
  96:.\Generated_Source\PSoC5/cyfitter_cfg.c **** }
 115              		.loc 1 96 0
 116 0016 1037     		adds	r7, r7, #16
 117 0018 BD46     		mov	sp, r7
 118              		@ sp needed
 119 001a 80BD     		pop	{r7, pc}
 120              		.cfi_endproc
 121              	.LFE2:
 122              		.size	CYCONFIGCPYCODE, .-CYCONFIGCPYCODE
 123              		.section	.text.CyClockStartupError,"ax",%progbits
 124              		.align	2
 125              		.thumb
 126              		.thumb_func
 127              		.type	CyClockStartupError, %function
 128              	CyClockStartupError:
 129              	.LFB3:
  97:.\Generated_Source\PSoC5/cyfitter_cfg.c **** 
  98:.\Generated_Source\PSoC5/cyfitter_cfg.c **** 
  99:.\Generated_Source\PSoC5/cyfitter_cfg.c **** 
ARM GAS  C:\Users\pfautley\AppData\Local\Temp\ccVq4Bnc.s 			page 5


 100:.\Generated_Source\PSoC5/cyfitter_cfg.c **** /* Clock startup error codes                                                   */
 101:.\Generated_Source\PSoC5/cyfitter_cfg.c **** #define CYCLOCKSTART_NO_ERROR    0u
 102:.\Generated_Source\PSoC5/cyfitter_cfg.c **** #define CYCLOCKSTART_XTAL_ERROR  1u
 103:.\Generated_Source\PSoC5/cyfitter_cfg.c **** #define CYCLOCKSTART_32KHZ_ERROR 2u
 104:.\Generated_Source\PSoC5/cyfitter_cfg.c **** #define CYCLOCKSTART_PLL_ERROR   3u
 105:.\Generated_Source\PSoC5/cyfitter_cfg.c **** 
 106:.\Generated_Source\PSoC5/cyfitter_cfg.c **** #ifdef CY_NEED_CYCLOCKSTARTUPERROR
 107:.\Generated_Source\PSoC5/cyfitter_cfg.c **** /*******************************************************************************
 108:.\Generated_Source\PSoC5/cyfitter_cfg.c **** * Function Name: CyClockStartupError
 109:.\Generated_Source\PSoC5/cyfitter_cfg.c **** ********************************************************************************
 110:.\Generated_Source\PSoC5/cyfitter_cfg.c **** * Summary:
 111:.\Generated_Source\PSoC5/cyfitter_cfg.c **** *  If an error is encountered during clock configuration (crystal startup error,
 112:.\Generated_Source\PSoC5/cyfitter_cfg.c **** *  PLL lock error, etc.), the system will end up here.  Unless reimplemented by
 113:.\Generated_Source\PSoC5/cyfitter_cfg.c **** *  the customer, this function will stop in an infinite loop.
 114:.\Generated_Source\PSoC5/cyfitter_cfg.c **** *
 115:.\Generated_Source\PSoC5/cyfitter_cfg.c **** * Parameters:
 116:.\Generated_Source\PSoC5/cyfitter_cfg.c **** *   void
 117:.\Generated_Source\PSoC5/cyfitter_cfg.c **** *
 118:.\Generated_Source\PSoC5/cyfitter_cfg.c **** * Return:
 119:.\Generated_Source\PSoC5/cyfitter_cfg.c **** *   void
 120:.\Generated_Source\PSoC5/cyfitter_cfg.c **** *
 121:.\Generated_Source\PSoC5/cyfitter_cfg.c **** *******************************************************************************/
 122:.\Generated_Source\PSoC5/cyfitter_cfg.c **** CY_CFG_UNUSED
 123:.\Generated_Source\PSoC5/cyfitter_cfg.c **** static void CyClockStartupError(uint8 errorCode);
 124:.\Generated_Source\PSoC5/cyfitter_cfg.c **** CY_CFG_UNUSED
 125:.\Generated_Source\PSoC5/cyfitter_cfg.c **** static void CyClockStartupError(uint8 errorCode)
 126:.\Generated_Source\PSoC5/cyfitter_cfg.c **** {
 130              		.loc 1 126 0
 131              		.cfi_startproc
 132              		@ args = 0, pretend = 0, frame = 8
 133              		@ frame_needed = 1, uses_anonymous_args = 0
 134              		@ link register save eliminated.
 135 0000 80B4     		push	{r7}
 136              		.cfi_def_cfa_offset 4
 137              		.cfi_offset 7, -4
 138 0002 83B0     		sub	sp, sp, #12
 139              		.cfi_def_cfa_offset 16
 140 0004 00AF     		add	r7, sp, #0
 141              		.cfi_def_cfa_register 7
 142 0006 0346     		mov	r3, r0
 143 0008 FB71     		strb	r3, [r7, #7]
 144              	.L5:
 127:.\Generated_Source\PSoC5/cyfitter_cfg.c ****     /* To remove the compiler warning if errorCode not used.                */
 128:.\Generated_Source\PSoC5/cyfitter_cfg.c ****     errorCode = errorCode;
 129:.\Generated_Source\PSoC5/cyfitter_cfg.c **** 
 130:.\Generated_Source\PSoC5/cyfitter_cfg.c ****     /* `#START CyClockStartupError` */
 131:.\Generated_Source\PSoC5/cyfitter_cfg.c **** 
 132:.\Generated_Source\PSoC5/cyfitter_cfg.c ****     /* If we have a clock startup error (bad MHz crystal, PLL lock, etc.),  */
 133:.\Generated_Source\PSoC5/cyfitter_cfg.c ****     /* we will end up here to allow the customer to implement something to  */
 134:.\Generated_Source\PSoC5/cyfitter_cfg.c ****     /* deal with the clock condition.                                       */
 135:.\Generated_Source\PSoC5/cyfitter_cfg.c **** 
 136:.\Generated_Source\PSoC5/cyfitter_cfg.c ****     /* `#END` */
 137:.\Generated_Source\PSoC5/cyfitter_cfg.c **** 
 138:.\Generated_Source\PSoC5/cyfitter_cfg.c ****     /* If nothing else, stop here since the clocks have not started         */
 139:.\Generated_Source\PSoC5/cyfitter_cfg.c ****     /* correctly.                                                           */
 140:.\Generated_Source\PSoC5/cyfitter_cfg.c ****     while(1) {}
 145              		.loc 1 140 0 discriminator 1
ARM GAS  C:\Users\pfautley\AppData\Local\Temp\ccVq4Bnc.s 			page 6


 146 000a FEE7     		b	.L5
 147              		.cfi_endproc
 148              	.LFE3:
 149              		.size	CyClockStartupError, .-CyClockStartupError
 150              		.section	.text.cfg_dma_init,"ax",%progbits
 151              		.align	2
 152              		.thumb
 153              		.thumb_func
 154              		.type	cfg_dma_init, %function
 155              	cfg_dma_init:
 156              	.LFB4:
 141:.\Generated_Source\PSoC5/cyfitter_cfg.c **** }
 142:.\Generated_Source\PSoC5/cyfitter_cfg.c **** #endif
 143:.\Generated_Source\PSoC5/cyfitter_cfg.c **** 
 144:.\Generated_Source\PSoC5/cyfitter_cfg.c **** /* IOPORT_5 Address: CYDEV_PRTDSI_PRT5_BASE Size (bytes): 7 */
 145:.\Generated_Source\PSoC5/cyfitter_cfg.c **** #define BS_IOPORT_5_VAL ((const uint8 CYFAR *)0x48000000u)
 146:.\Generated_Source\PSoC5/cyfitter_cfg.c **** 
 147:.\Generated_Source\PSoC5/cyfitter_cfg.c **** /* UDB_0_1_1_CONFIG Address: CYDEV_UCFG_B1_P4_U0_BASE Size (bytes): 128 */
 148:.\Generated_Source\PSoC5/cyfitter_cfg.c **** #define BS_UDB_0_1_1_CONFIG_VAL ((const uint8 CYFAR *)0x48000008u)
 149:.\Generated_Source\PSoC5/cyfitter_cfg.c **** 
 150:.\Generated_Source\PSoC5/cyfitter_cfg.c **** /* UDB_0_1_0_CONFIG Address: CYDEV_UCFG_B1_P4_U1_BASE Size (bytes): 128 */
 151:.\Generated_Source\PSoC5/cyfitter_cfg.c **** #define BS_UDB_0_1_0_CONFIG_VAL ((const uint8 CYFAR *)0x48000088u)
 152:.\Generated_Source\PSoC5/cyfitter_cfg.c **** 
 153:.\Generated_Source\PSoC5/cyfitter_cfg.c **** /* UDB_0_0_0_CONFIG Address: CYDEV_UCFG_B1_P5_U0_BASE Size (bytes): 128 */
 154:.\Generated_Source\PSoC5/cyfitter_cfg.c **** #define BS_UDB_0_0_0_CONFIG_VAL ((const uint8 CYFAR *)0x48000108u)
 155:.\Generated_Source\PSoC5/cyfitter_cfg.c **** 
 156:.\Generated_Source\PSoC5/cyfitter_cfg.c **** /* UDB_0_0_1_CONFIG Address: CYDEV_UCFG_B1_P5_U1_BASE Size (bytes): 128 */
 157:.\Generated_Source\PSoC5/cyfitter_cfg.c **** #define BS_UDB_0_0_1_CONFIG_VAL ((const uint8 CYFAR *)0x48000188u)
 158:.\Generated_Source\PSoC5/cyfitter_cfg.c **** 
 159:.\Generated_Source\PSoC5/cyfitter_cfg.c **** /* UWRK_B1_WRK_STATCTL_BITS Address: CYDEV_UWRK_UWRK8_B1_BASE + 0x00000070u Size (bytes): 32 */
 160:.\Generated_Source\PSoC5/cyfitter_cfg.c **** #define BS_UWRK_B1_WRK_STATCTL_BITS_VAL ((const uint8 CYFAR *)0x48000208u)
 161:.\Generated_Source\PSoC5/cyfitter_cfg.c **** 
 162:.\Generated_Source\PSoC5/cyfitter_cfg.c **** /* UCFG_BCTL1 Address: CYREG_BCTL1_MDCLK_EN Size (bytes): 16 */
 163:.\Generated_Source\PSoC5/cyfitter_cfg.c **** #define BS_UCFG_BCTL1_VAL ((const uint8 CYFAR *)0x48000228u)
 164:.\Generated_Source\PSoC5/cyfitter_cfg.c **** 
 165:.\Generated_Source\PSoC5/cyfitter_cfg.c **** /* DSISWITCH_0_0 Address: CYDEV_UCFG_DSI13_BASE Size (bytes): 128 */
 166:.\Generated_Source\PSoC5/cyfitter_cfg.c **** #define BS_DSISWITCH_0_0_VAL ((const uint8 CYFAR *)0x48000238u)
 167:.\Generated_Source\PSoC5/cyfitter_cfg.c **** 
 168:.\Generated_Source\PSoC5/cyfitter_cfg.c **** /* DSI0_0_HV_ROUTING Address: CYDEV_UCFG_DSI13_BASE + 0x00000080u Size (bytes): 128 */
 169:.\Generated_Source\PSoC5/cyfitter_cfg.c **** #define BS_DSI0_0_HV_ROUTING_VAL ((const uint8 CYFAR *)0x480002B8u)
 170:.\Generated_Source\PSoC5/cyfitter_cfg.c **** 
 171:.\Generated_Source\PSoC5/cyfitter_cfg.c **** /* DSI0_1_HV_ROUTING Address: CYDEV_UCFG_DSI12_BASE + 0x00000080u Size (bytes): 128 */
 172:.\Generated_Source\PSoC5/cyfitter_cfg.c **** #define BS_DSI0_1_HV_ROUTING_VAL ((const uint8 CYFAR *)0x48000338u)
 173:.\Generated_Source\PSoC5/cyfitter_cfg.c **** 
 174:.\Generated_Source\PSoC5/cyfitter_cfg.c **** /* UDBSWITCH_0_0 Address: CYDEV_UCFG_B1_P5_ROUTE_BASE Size (bytes): 128 */
 175:.\Generated_Source\PSoC5/cyfitter_cfg.c **** #define BS_UDBSWITCH_0_0_VAL ((const uint8 CYFAR *)0x480003B8u)
 176:.\Generated_Source\PSoC5/cyfitter_cfg.c **** 
 177:.\Generated_Source\PSoC5/cyfitter_cfg.c **** /* UDB_1_0_HV_ROUTING Address: CYDEV_UCFG_B1_P5_ROUTE_BASE + 0x00000080u Size (bytes): 128 */
 178:.\Generated_Source\PSoC5/cyfitter_cfg.c **** #define BS_UDB_1_0_HV_ROUTING_VAL ((const uint8 CYFAR *)0x48000438u)
 179:.\Generated_Source\PSoC5/cyfitter_cfg.c **** 
 180:.\Generated_Source\PSoC5/cyfitter_cfg.c **** /* UDBSWITCH_0_1 Address: CYDEV_UCFG_B1_P4_ROUTE_BASE Size (bytes): 128 */
 181:.\Generated_Source\PSoC5/cyfitter_cfg.c **** #define BS_UDBSWITCH_0_1_VAL ((const uint8 CYFAR *)0x480004B8u)
 182:.\Generated_Source\PSoC5/cyfitter_cfg.c **** 
 183:.\Generated_Source\PSoC5/cyfitter_cfg.c **** /* UDB_1_1_HV_ROUTING Address: CYDEV_UCFG_B1_P4_ROUTE_BASE + 0x00000080u Size (bytes): 128 */
 184:.\Generated_Source\PSoC5/cyfitter_cfg.c **** #define BS_UDB_1_1_HV_ROUTING_VAL ((const uint8 CYFAR *)0x48000538u)
 185:.\Generated_Source\PSoC5/cyfitter_cfg.c **** 
 186:.\Generated_Source\PSoC5/cyfitter_cfg.c **** /* IOPINS0_2 Address: CYREG_PRT2_DM0 Size (bytes): 8 */
ARM GAS  C:\Users\pfautley\AppData\Local\Temp\ccVq4Bnc.s 			page 7


 187:.\Generated_Source\PSoC5/cyfitter_cfg.c **** #define BS_IOPINS0_2_VAL ((const uint8 CYFAR *)0x480005B8u)
 188:.\Generated_Source\PSoC5/cyfitter_cfg.c **** 
 189:.\Generated_Source\PSoC5/cyfitter_cfg.c **** /* IOPINS0_5 Address: CYREG_PRT5_DM0 Size (bytes): 8 */
 190:.\Generated_Source\PSoC5/cyfitter_cfg.c **** #define BS_IOPINS0_5_VAL ((const uint8 CYFAR *)0x480005C0u)
 191:.\Generated_Source\PSoC5/cyfitter_cfg.c **** 
 192:.\Generated_Source\PSoC5/cyfitter_cfg.c **** 
 193:.\Generated_Source\PSoC5/cyfitter_cfg.c **** /*******************************************************************************
 194:.\Generated_Source\PSoC5/cyfitter_cfg.c **** * Function Name: cfg_dma_init
 195:.\Generated_Source\PSoC5/cyfitter_cfg.c **** ********************************************************************************
 196:.\Generated_Source\PSoC5/cyfitter_cfg.c **** * Summary:
 197:.\Generated_Source\PSoC5/cyfitter_cfg.c **** *  This function is used to copy device configuration data from constant values
 198:.\Generated_Source\PSoC5/cyfitter_cfg.c **** *  stored in memory into the proper chip configuration registers using DMA.  It
 199:.\Generated_Source\PSoC5/cyfitter_cfg.c **** *  pulls data out of the CFG_TD_LISTs to know exactly how/what to configure.
 200:.\Generated_Source\PSoC5/cyfitter_cfg.c **** *
 201:.\Generated_Source\PSoC5/cyfitter_cfg.c **** * Parameters:  
 202:.\Generated_Source\PSoC5/cyfitter_cfg.c **** *   void
 203:.\Generated_Source\PSoC5/cyfitter_cfg.c **** *
 204:.\Generated_Source\PSoC5/cyfitter_cfg.c **** * Return:
 205:.\Generated_Source\PSoC5/cyfitter_cfg.c **** *   void
 206:.\Generated_Source\PSoC5/cyfitter_cfg.c **** *
 207:.\Generated_Source\PSoC5/cyfitter_cfg.c **** *******************************************************************************/
 208:.\Generated_Source\PSoC5/cyfitter_cfg.c **** static void cfg_dma_init(void);
 209:.\Generated_Source\PSoC5/cyfitter_cfg.c **** static void cfg_dma_init(void)
 210:.\Generated_Source\PSoC5/cyfitter_cfg.c **** {
 157              		.loc 1 210 0
 158              		.cfi_startproc
 159              		@ args = 0, pretend = 0, frame = 8
 160              		@ frame_needed = 1, uses_anonymous_args = 0
 161              		@ link register save eliminated.
 162 0000 80B4     		push	{r7}
 163              		.cfi_def_cfa_offset 4
 164              		.cfi_offset 7, -4
 165 0002 83B0     		sub	sp, sp, #12
 166              		.cfi_def_cfa_offset 16
 167 0004 00AF     		add	r7, sp, #0
 168              		.cfi_def_cfa_register 7
 211:.\Generated_Source\PSoC5/cyfitter_cfg.c **** 	/* TD structure for little-endian systems. Does not require endian swap */
 212:.\Generated_Source\PSoC5/cyfitter_cfg.c **** 	CYPACKED struct td_t {
 213:.\Generated_Source\PSoC5/cyfitter_cfg.c **** 		uint16 size;
 214:.\Generated_Source\PSoC5/cyfitter_cfg.c **** 		uint8 next_td_ptr;
 215:.\Generated_Source\PSoC5/cyfitter_cfg.c **** 		uint8 flags;
 216:.\Generated_Source\PSoC5/cyfitter_cfg.c **** 		uint16 src;
 217:.\Generated_Source\PSoC5/cyfitter_cfg.c **** 		uint16 dest;
 218:.\Generated_Source\PSoC5/cyfitter_cfg.c **** 	} CYPACKED_ATTR;
 219:.\Generated_Source\PSoC5/cyfitter_cfg.c **** 
 220:.\Generated_Source\PSoC5/cyfitter_cfg.c **** 	/* PHUB_CH1_CFGMEM_CFG0/1 initialization data */
 221:.\Generated_Source\PSoC5/cyfitter_cfg.c **** 	DMAINITSEC static const uint8 CYCODE CH1_ADDR_DATA0[] = { 0x01u, 0x00u, 0x00u, 0x00u, 0x00u, 0x20u
 222:.\Generated_Source\PSoC5/cyfitter_cfg.c **** 
 223:.\Generated_Source\PSoC5/cyfitter_cfg.c **** 	/* PHUB_CH2_CFGMEM_CFG0/1 initialization data */
 224:.\Generated_Source\PSoC5/cyfitter_cfg.c **** 	DMAINITSEC static const uint8 CYCODE CH2_ADDR_DATA0[] = { 0x01u, 0x00u, 0x00u, 0x00u, 0x00u, 0x20u
 225:.\Generated_Source\PSoC5/cyfitter_cfg.c **** 
 226:.\Generated_Source\PSoC5/cyfitter_cfg.c **** 	/* PHUB_CH5_CFGMEM_CFG0/1 initialization data */
 227:.\Generated_Source\PSoC5/cyfitter_cfg.c **** 	DMAINITSEC static const uint8 CYCODE CH5_ADDR_DATA0[] = { 0x01u, 0x00u, 0x00u, 0x00u, 0x00u, 0x48u
 228:.\Generated_Source\PSoC5/cyfitter_cfg.c **** 
 229:.\Generated_Source\PSoC5/cyfitter_cfg.c **** 	/* PHUB_CH6_CFGMEM_CFG0/1 initialization data */
 230:.\Generated_Source\PSoC5/cyfitter_cfg.c **** 	DMAINITSEC static const uint8 CYCODE CH6_ADDR_DATA0[] = { 0x01u, 0x00u, 0x00u, 0x00u, 0x00u, 0x48u
 231:.\Generated_Source\PSoC5/cyfitter_cfg.c **** 
ARM GAS  C:\Users\pfautley\AppData\Local\Temp\ccVq4Bnc.s 			page 8


 232:.\Generated_Source\PSoC5/cyfitter_cfg.c **** 	/* Initialization data for each DMA channel's TD registers */
 233:.\Generated_Source\PSoC5/cyfitter_cfg.c **** 	DMAINITSEC static const uint8 CYCODE DMA_TD_START_CMD[] = { 0x01u, 0x00u, 0x00u, 0x00u, 0x01u };
 234:.\Generated_Source\PSoC5/cyfitter_cfg.c **** 
 235:.\Generated_Source\PSoC5/cyfitter_cfg.c **** 	CYALIGNED static uint32 CYXDATA DMA_ZERO_VAL;
 236:.\Generated_Source\PSoC5/cyfitter_cfg.c **** 
 237:.\Generated_Source\PSoC5/cyfitter_cfg.c **** 	/* This table holds all of the initialization data necessary for the DMA
 238:.\Generated_Source\PSoC5/cyfitter_cfg.c **** 	   process to transfer data from the source location to the destination. */
 239:.\Generated_Source\PSoC5/cyfitter_cfg.c **** 	/* Source addresses can be relocated, but only when in 32bit addresses.
 240:.\Generated_Source\PSoC5/cyfitter_cfg.c **** 	   Because the standard TD table only has 16bit addresses, we generate a
 241:.\Generated_Source\PSoC5/cyfitter_cfg.c **** 	   separate CFG_TD_ADDR table for the source addresses that supports 32bit
 242:.\Generated_Source\PSoC5/cyfitter_cfg.c **** 	   addresses. */
 243:.\Generated_Source\PSoC5/cyfitter_cfg.c **** 	DMAINITSEC static const struct td_t CYCODE CFG_TD_LIST0[] = {
 244:.\Generated_Source\PSoC5/cyfitter_cfg.c **** 		/* Size, Next, Flags, Source, Destination */
 245:.\Generated_Source\PSoC5/cyfitter_cfg.c **** 		{ 8u, 0x02u, 0x23u, (uint16)(uint32)(0u), (uint16)(CYREG_PHUB_CFGMEM1_CFG0) },	/* TD 1 */
 246:.\Generated_Source\PSoC5/cyfitter_cfg.c **** 		{ 8u, 0x03u, 0x23u, (uint16)(uint32)(0u), (uint16)(CYREG_PHUB_CFGMEM2_CFG0) },	/* TD 2 */
 247:.\Generated_Source\PSoC5/cyfitter_cfg.c **** 		{ 8u, 0x04u, 0x23u, (uint16)(uint32)(0u), (uint16)(CYREG_PHUB_CFGMEM5_CFG0) },	/* TD 3 */
 248:.\Generated_Source\PSoC5/cyfitter_cfg.c **** 		{ 8u, 0x05u, 0x23u, (uint16)(uint32)(0u), (uint16)(CYREG_PHUB_CFGMEM6_CFG0) },	/* TD 4 */
 249:.\Generated_Source\PSoC5/cyfitter_cfg.c **** 		{ 5u, 0x06u, 0x23u, (uint16)(uint32)(0u), (uint16)(CYREG_PHUB_CH1_BASIC_CFG) },	/* TD 5 */
 250:.\Generated_Source\PSoC5/cyfitter_cfg.c **** 		{ 5u, 0x07u, 0x23u, (uint16)(uint32)(0u), (uint16)(CYREG_PHUB_CH2_BASIC_CFG) },	/* TD 6 */
 251:.\Generated_Source\PSoC5/cyfitter_cfg.c **** 		{ 5u, 0x08u, 0x23u, (uint16)(uint32)(0u), (uint16)(CYREG_PHUB_CH5_BASIC_CFG) },	/* TD 7 */
 252:.\Generated_Source\PSoC5/cyfitter_cfg.c **** 		{ 5u, 0xFEu, 0x23u, (uint16)(uint32)(0u), (uint16)(CYREG_PHUB_CH6_BASIC_CFG) },	/* TD 8 */
 253:.\Generated_Source\PSoC5/cyfitter_cfg.c **** 		{ 32u, 0x0Au, 0x22u, (uint16)(uint32)(0u), (uint16)(CYREG_PRT0_DR) },	/* TD 9 */
 254:.\Generated_Source\PSoC5/cyfitter_cfg.c **** 		{ 32u, 0x0Bu, 0x22u, (uint16)(uint32)(0u), (uint16)(CYREG_PRT3_DR) },	/* TD 10 */
 255:.\Generated_Source\PSoC5/cyfitter_cfg.c **** 		{ 16u, 0x0Cu, 0x22u, (uint16)(uint32)(0u), (uint16)(CYREG_PRT6_DR) },	/* TD 11 */
 256:.\Generated_Source\PSoC5/cyfitter_cfg.c **** 		{ 16u, 0x0Du, 0x22u, (uint16)(uint32)(0u), (uint16)(CYREG_PRT12_DR) },	/* TD 12 */
 257:.\Generated_Source\PSoC5/cyfitter_cfg.c **** 		{ 16u, 0xFEu, 0x22u, (uint16)(uint32)(0u), (uint16)(CYREG_PRT15_DR) },	/* TD 13 */
 258:.\Generated_Source\PSoC5/cyfitter_cfg.c **** 		{ 4095u, 0x0Fu, 0x22u, (uint16)(uint32)(0u), (uint16)(CYDEV_UCFG_B0_P0_U0_BASE) },	/* TD 14 */
 259:.\Generated_Source\PSoC5/cyfitter_cfg.c **** 		{ 1u, 0x10u, 0x22u, (uint16)(uint32)(0u), (uint16)(CYDEV_UCFG_B0_P7_ROUTE_BASE + 0x00000080u) },	
 260:.\Generated_Source\PSoC5/cyfitter_cfg.c **** 		{ 1024u, 0x11u, 0x22u, (uint16)(uint32)(0u), (uint16)(CYDEV_UCFG_B1_P2_U0_BASE) },	/* TD 16 */
 261:.\Generated_Source\PSoC5/cyfitter_cfg.c **** 		{ 2560u, 0x12u, 0x22u, (uint16)(uint32)(0u), (uint16)(CYDEV_UCFG_DSI0_BASE) },	/* TD 17 */
 262:.\Generated_Source\PSoC5/cyfitter_cfg.c **** 		{ 128u, 0x13u, 0x22u, (uint16)(uint32)(0u), (uint16)(CYDEV_UCFG_DSI12_BASE) },	/* TD 18 */
 263:.\Generated_Source\PSoC5/cyfitter_cfg.c **** 		{ 16u, 0xFEu, 0x22u, (uint16)(uint32)(0u), (uint16)(CYREG_BCTL0_MDCLK_EN) },	/* TD 19 */
 264:.\Generated_Source\PSoC5/cyfitter_cfg.c **** 		{ 7u, 0x15u, 0x23u, (uint16)(uint32)(0u), (uint16)(CYDEV_PRTDSI_PRT5_BASE) },	/* TD 20 */
 265:.\Generated_Source\PSoC5/cyfitter_cfg.c **** 		{ 32u, 0xFEu, 0x23u, (uint16)(uint32)(0u), (uint16)(CYDEV_UWRK_UWRK8_B1_BASE + 0x00000070u) },	/*
 266:.\Generated_Source\PSoC5/cyfitter_cfg.c **** 		{ 128u, 0x17u, 0x23u, (uint16)(uint32)(0u), (uint16)(CYDEV_UCFG_B1_P4_U0_BASE) },	/* TD 22 */
 267:.\Generated_Source\PSoC5/cyfitter_cfg.c **** 		{ 128u, 0x18u, 0x23u, (uint16)(uint32)(0u), (uint16)(CYDEV_UCFG_B1_P4_U1_BASE) },	/* TD 23 */
 268:.\Generated_Source\PSoC5/cyfitter_cfg.c **** 		{ 128u, 0x19u, 0x23u, (uint16)(uint32)(0u), (uint16)(CYDEV_UCFG_B1_P5_U0_BASE) },	/* TD 24 */
 269:.\Generated_Source\PSoC5/cyfitter_cfg.c **** 		{ 128u, 0x1Au, 0x23u, (uint16)(uint32)(0u), (uint16)(CYDEV_UCFG_B1_P5_U1_BASE) },	/* TD 25 */
 270:.\Generated_Source\PSoC5/cyfitter_cfg.c **** 		{ 16u, 0x1Bu, 0x23u, (uint16)(uint32)(0u), (uint16)(CYREG_BCTL1_MDCLK_EN) },	/* TD 26 */
 271:.\Generated_Source\PSoC5/cyfitter_cfg.c **** 		{ 128u, 0x1Cu, 0x23u, (uint16)(uint32)(0u), (uint16)(CYDEV_UCFG_DSI13_BASE) },	/* TD 27 */
 272:.\Generated_Source\PSoC5/cyfitter_cfg.c **** 		{ 128u, 0x1Du, 0x23u, (uint16)(uint32)(0u), (uint16)(CYDEV_UCFG_DSI13_BASE + 0x00000080u) },	/* T
 273:.\Generated_Source\PSoC5/cyfitter_cfg.c **** 		{ 128u, 0x1Eu, 0x23u, (uint16)(uint32)(0u), (uint16)(CYDEV_UCFG_DSI12_BASE + 0x00000080u) },	/* T
 274:.\Generated_Source\PSoC5/cyfitter_cfg.c **** 		{ 128u, 0x1Fu, 0x23u, (uint16)(uint32)(0u), (uint16)(CYDEV_UCFG_B1_P5_ROUTE_BASE) },	/* TD 30 */
 275:.\Generated_Source\PSoC5/cyfitter_cfg.c **** 		{ 128u, 0x20u, 0x23u, (uint16)(uint32)(0u), (uint16)(CYDEV_UCFG_B1_P5_ROUTE_BASE + 0x00000080u) }
 276:.\Generated_Source\PSoC5/cyfitter_cfg.c **** 		{ 128u, 0x21u, 0x23u, (uint16)(uint32)(0u), (uint16)(CYDEV_UCFG_B1_P4_ROUTE_BASE) },	/* TD 32 */
 277:.\Generated_Source\PSoC5/cyfitter_cfg.c **** 		{ 128u, 0xFEu, 0x23u, (uint16)(uint32)(0u), (uint16)(CYDEV_UCFG_B1_P4_ROUTE_BASE + 0x00000080u) }
 278:.\Generated_Source\PSoC5/cyfitter_cfg.c **** 	};
 279:.\Generated_Source\PSoC5/cyfitter_cfg.c **** 
 280:.\Generated_Source\PSoC5/cyfitter_cfg.c **** 	/* Source addresses can be relocated, but only when in 32bit addresses.
 281:.\Generated_Source\PSoC5/cyfitter_cfg.c **** 	   Because the standard TD table only has 16bit addresses, we generate a
 282:.\Generated_Source\PSoC5/cyfitter_cfg.c **** 	   separate table for the source addresses that does use 32bit addresses. This
 283:.\Generated_Source\PSoC5/cyfitter_cfg.c **** 	   table will be re-merged with the corresponding CFG_TD_LIST table during
 284:.\Generated_Source\PSoC5/cyfitter_cfg.c **** 	   initialization. */
 285:.\Generated_Source\PSoC5/cyfitter_cfg.c **** 	static const void * const CFG_TD_ADDR0[] = {
 286:.\Generated_Source\PSoC5/cyfitter_cfg.c **** 		(const void *)(CH1_ADDR_DATA0),	/* TD 1 */
 287:.\Generated_Source\PSoC5/cyfitter_cfg.c **** 		(const void *)(CH2_ADDR_DATA0),	/* TD 2 */
 288:.\Generated_Source\PSoC5/cyfitter_cfg.c **** 		(const void *)(CH5_ADDR_DATA0),	/* TD 3 */
ARM GAS  C:\Users\pfautley\AppData\Local\Temp\ccVq4Bnc.s 			page 9


 289:.\Generated_Source\PSoC5/cyfitter_cfg.c **** 		(const void *)(CH6_ADDR_DATA0),	/* TD 4 */
 290:.\Generated_Source\PSoC5/cyfitter_cfg.c **** 		(const void *)(DMA_TD_START_CMD),	/* TD 5 */
 291:.\Generated_Source\PSoC5/cyfitter_cfg.c **** 		(const void *)(DMA_TD_START_CMD),	/* TD 6 */
 292:.\Generated_Source\PSoC5/cyfitter_cfg.c **** 		(const void *)(DMA_TD_START_CMD),	/* TD 7 */
 293:.\Generated_Source\PSoC5/cyfitter_cfg.c **** 		(const void *)(DMA_TD_START_CMD),	/* TD 8 */
 294:.\Generated_Source\PSoC5/cyfitter_cfg.c **** 		(const void *)(&DMA_ZERO_VAL),	/* TD 9 */
 295:.\Generated_Source\PSoC5/cyfitter_cfg.c **** 		(const void *)(&DMA_ZERO_VAL),	/* TD 10 */
 296:.\Generated_Source\PSoC5/cyfitter_cfg.c **** 		(const void *)(&DMA_ZERO_VAL),	/* TD 11 */
 297:.\Generated_Source\PSoC5/cyfitter_cfg.c **** 		(const void *)(&DMA_ZERO_VAL),	/* TD 12 */
 298:.\Generated_Source\PSoC5/cyfitter_cfg.c **** 		(const void *)(&DMA_ZERO_VAL),	/* TD 13 */
 299:.\Generated_Source\PSoC5/cyfitter_cfg.c **** 		(const void *)(&DMA_ZERO_VAL),	/* TD 14 */
 300:.\Generated_Source\PSoC5/cyfitter_cfg.c **** 		(const void *)(&DMA_ZERO_VAL),	/* TD 15 */
 301:.\Generated_Source\PSoC5/cyfitter_cfg.c **** 		(const void *)(&DMA_ZERO_VAL),	/* TD 16 */
 302:.\Generated_Source\PSoC5/cyfitter_cfg.c **** 		(const void *)(&DMA_ZERO_VAL),	/* TD 17 */
 303:.\Generated_Source\PSoC5/cyfitter_cfg.c **** 		(const void *)(&DMA_ZERO_VAL),	/* TD 18 */
 304:.\Generated_Source\PSoC5/cyfitter_cfg.c **** 		(const void *)(&DMA_ZERO_VAL),	/* TD 19 */
 305:.\Generated_Source\PSoC5/cyfitter_cfg.c **** 		(const void *)(BS_IOPORT_5_VAL),	/* TD 20 */
 306:.\Generated_Source\PSoC5/cyfitter_cfg.c **** 		(const void *)(BS_UWRK_B1_WRK_STATCTL_BITS_VAL),	/* TD 21 */
 307:.\Generated_Source\PSoC5/cyfitter_cfg.c **** 		(const void *)(BS_UDB_0_1_1_CONFIG_VAL),	/* TD 22 */
 308:.\Generated_Source\PSoC5/cyfitter_cfg.c **** 		(const void *)(BS_UDB_0_1_0_CONFIG_VAL),	/* TD 23 */
 309:.\Generated_Source\PSoC5/cyfitter_cfg.c **** 		(const void *)(BS_UDB_0_0_0_CONFIG_VAL),	/* TD 24 */
 310:.\Generated_Source\PSoC5/cyfitter_cfg.c **** 		(const void *)(BS_UDB_0_0_1_CONFIG_VAL),	/* TD 25 */
 311:.\Generated_Source\PSoC5/cyfitter_cfg.c **** 		(const void *)(BS_UCFG_BCTL1_VAL),	/* TD 26 */
 312:.\Generated_Source\PSoC5/cyfitter_cfg.c **** 		(const void *)(BS_DSISWITCH_0_0_VAL),	/* TD 27 */
 313:.\Generated_Source\PSoC5/cyfitter_cfg.c **** 		(const void *)(BS_DSI0_0_HV_ROUTING_VAL),	/* TD 28 */
 314:.\Generated_Source\PSoC5/cyfitter_cfg.c **** 		(const void *)(BS_DSI0_1_HV_ROUTING_VAL),	/* TD 29 */
 315:.\Generated_Source\PSoC5/cyfitter_cfg.c **** 		(const void *)(BS_UDBSWITCH_0_0_VAL),	/* TD 30 */
 316:.\Generated_Source\PSoC5/cyfitter_cfg.c **** 		(const void *)(BS_UDB_1_0_HV_ROUTING_VAL),	/* TD 31 */
 317:.\Generated_Source\PSoC5/cyfitter_cfg.c **** 		(const void *)(BS_UDBSWITCH_0_1_VAL),	/* TD 32 */
 318:.\Generated_Source\PSoC5/cyfitter_cfg.c **** 		(const void *)(BS_UDB_1_1_HV_ROUTING_VAL),	/* TD 33 */
 319:.\Generated_Source\PSoC5/cyfitter_cfg.c **** 	};
 320:.\Generated_Source\PSoC5/cyfitter_cfg.c **** 
 321:.\Generated_Source\PSoC5/cyfitter_cfg.c **** 
 322:.\Generated_Source\PSoC5/cyfitter_cfg.c **** 	uint32 i;
 323:.\Generated_Source\PSoC5/cyfitter_cfg.c **** 
 324:.\Generated_Source\PSoC5/cyfitter_cfg.c **** 	DMA_ZERO_VAL = 0u;
 169              		.loc 1 324 0
 170 0006 424B     		ldr	r3, .L15
 171 0008 0022     		movs	r2, #0
 172 000a 1A60     		str	r2, [r3]
 325:.\Generated_Source\PSoC5/cyfitter_cfg.c **** 	CY_SET_REG8((void CYXDATA *)CYREG_PHUB_CFGMEM0_CFG0, 0x10u);	/* set burstcnt */
 173              		.loc 1 325 0
 174 000c 414B     		ldr	r3, .L15+4
 175 000e 1022     		movs	r2, #16
 176 0010 1A70     		strb	r2, [r3]
 326:.\Generated_Source\PSoC5/cyfitter_cfg.c **** 	CY_SET_REG8((void CYXDATA *)CYREG_PHUB_CH0_BASIC_CFG, 0x01u);	/* enable ch0 */
 177              		.loc 1 326 0
 178 0012 414B     		ldr	r3, .L15+8
 179 0014 0122     		movs	r2, #1
 180 0016 1A70     		strb	r2, [r3]
 327:.\Generated_Source\PSoC5/cyfitter_cfg.c **** 	CY_SET_REG8((void CYXDATA *)(CYREG_PHUB_CH0_BASIC_STATUS+1u), 0x00u);	/* set first TD to 0 */
 181              		.loc 1 327 0
 182 0018 404B     		ldr	r3, .L15+12
 183 001a 0022     		movs	r2, #0
 184 001c 1A70     		strb	r2, [r3]
 328:.\Generated_Source\PSoC5/cyfitter_cfg.c **** 	CY_SET_REG16((void CYXDATA *)CYREG_PHUB_TDMEM0_ORIG_TD0, 33u*8u);	/* transfer size */
 185              		.loc 1 328 0
ARM GAS  C:\Users\pfautley\AppData\Local\Temp\ccVq4Bnc.s 			page 10


 186 001e 404B     		ldr	r3, .L15+16
 187 0020 4FF48472 		mov	r2, #264
 188 0024 1A80     		strh	r2, [r3]	@ movhi
 329:.\Generated_Source\PSoC5/cyfitter_cfg.c **** 	CY_SET_REG8((void CYXDATA *)(CYREG_PHUB_TDMEM0_ORIG_TD0+2u), 0x01u);	/* set next TD to 1 */
 189              		.loc 1 329 0
 190 0026 3F4B     		ldr	r3, .L15+20
 191 0028 0122     		movs	r2, #1
 192 002a 1A70     		strb	r2, [r3]
 330:.\Generated_Source\PSoC5/cyfitter_cfg.c **** 	CY_SET_REG8((void CYXDATA *)(CYREG_PHUB_TDMEM0_ORIG_TD0+3u), 0x03u);	/* set TD flags */
 193              		.loc 1 330 0
 194 002c 3E4B     		ldr	r3, .L15+24
 195 002e 0322     		movs	r2, #3
 196 0030 1A70     		strb	r2, [r3]
 331:.\Generated_Source\PSoC5/cyfitter_cfg.c **** 	CY_SET_REG16((void CYXDATA *)CYREG_PHUB_TDMEM0_ORIG_TD1, (uint16)((uint32)CFG_TD_LIST0 & 0x0000FFF
 197              		.loc 1 331 0
 198 0032 3E4B     		ldr	r3, .L15+28
 199 0034 3E4A     		ldr	r2, .L15+32
 200 0036 92B2     		uxth	r2, r2
 201 0038 1A80     		strh	r2, [r3]	@ movhi
 332:.\Generated_Source\PSoC5/cyfitter_cfg.c **** 	CY_SET_REG16((void CYXDATA *)(CYREG_PHUB_TDMEM0_ORIG_TD1+2u), CYDEV_PHUB_TDMEM1_BASE);	/* set td0'
 202              		.loc 1 332 0
 203 003a 3E4B     		ldr	r3, .L15+36
 204 003c 47F60802 		movw	r2, #30728
 205 0040 1A80     		strh	r2, [r3]	@ movhi
 333:.\Generated_Source\PSoC5/cyfitter_cfg.c **** 	CY_SET_REG16((void CYXDATA *)CYREG_PHUB_CFGMEM0_CFG1, (uint16)(CYDEV_FLASH_BASE >> 16));	/* set ch
 206              		.loc 1 333 0
 207 0042 3D4B     		ldr	r3, .L15+40
 208 0044 0022     		movs	r2, #0
 209 0046 1A80     		strh	r2, [r3]	@ movhi
 334:.\Generated_Source\PSoC5/cyfitter_cfg.c **** 	CY_SET_REG16((void CYXDATA *)(CYREG_PHUB_CFGMEM0_CFG1+2u), (uint16)(CYDEV_PHUB_TDMEM1_BASE >> 16))
 210              		.loc 1 334 0
 211 0048 3C4B     		ldr	r3, .L15+44
 212 004a 4FF48042 		mov	r2, #16384
 213 004e 1A80     		strh	r2, [r3]	@ movhi
 335:.\Generated_Source\PSoC5/cyfitter_cfg.c **** 	CY_SET_REG8((void CYXDATA *)(CYREG_PHUB_CH1_BASIC_STATUS+1u), 0x09u);	/* ch1 first TD: 9 */
 214              		.loc 1 335 0
 215 0050 3B4B     		ldr	r3, .L15+48
 216 0052 0922     		movs	r2, #9
 217 0054 1A70     		strb	r2, [r3]
 336:.\Generated_Source\PSoC5/cyfitter_cfg.c **** 	CY_SET_REG8((void CYXDATA *)(CYREG_PHUB_CH2_BASIC_STATUS+1u), 0x0Eu);	/* ch2 first TD: 14 */
 218              		.loc 1 336 0
 219 0056 3B4B     		ldr	r3, .L15+52
 220 0058 0E22     		movs	r2, #14
 221 005a 1A70     		strb	r2, [r3]
 337:.\Generated_Source\PSoC5/cyfitter_cfg.c **** 	CY_SET_REG8((void CYXDATA *)(CYREG_PHUB_CH5_BASIC_STATUS+1u), 0x14u);	/* ch5 first TD: 20 */
 222              		.loc 1 337 0
 223 005c 3A4B     		ldr	r3, .L15+56
 224 005e 1422     		movs	r2, #20
 225 0060 1A70     		strb	r2, [r3]
 338:.\Generated_Source\PSoC5/cyfitter_cfg.c **** 	CY_SET_REG8((void CYXDATA *)(CYREG_PHUB_CH6_BASIC_STATUS+1u), 0x16u);	/* ch6 first TD: 22 */
 226              		.loc 1 338 0
 227 0062 3A4B     		ldr	r3, .L15+60
 228 0064 1622     		movs	r2, #22
 229 0066 1A70     		strb	r2, [r3]
 339:.\Generated_Source\PSoC5/cyfitter_cfg.c **** 
 340:.\Generated_Source\PSoC5/cyfitter_cfg.c **** 	CY_CFG_MEMORY_BARRIER();
 230              		.loc 1 340 0
ARM GAS  C:\Users\pfautley\AppData\Local\Temp\ccVq4Bnc.s 			page 11


 231 0068 BFF35F8F 		dmb	sy
 341:.\Generated_Source\PSoC5/cyfitter_cfg.c **** 	CY_SET_REG8((void CYXDATA *)CYREG_PHUB_CH0_ACTION, 0x01u); /* cpu_req */
 232              		.loc 1 341 0
 233 006c 384B     		ldr	r3, .L15+64
 234 006e 0122     		movs	r2, #1
 235 0070 1A70     		strb	r2, [r3]
 342:.\Generated_Source\PSoC5/cyfitter_cfg.c **** 	CY_CFG_MEMORY_BARRIER();
 236              		.loc 1 342 0
 237 0072 BFF35F8F 		dmb	sy
 343:.\Generated_Source\PSoC5/cyfitter_cfg.c **** 
 344:.\Generated_Source\PSoC5/cyfitter_cfg.c **** 	/* Wait for TDs to be copied into TDMEM */
 345:.\Generated_Source\PSoC5/cyfitter_cfg.c **** 	while (CY_GET_REG16((void CYXDATA *)CYREG_PHUB_TDMEM0_ORIG_TD0) != 0u) { }
 238              		.loc 1 345 0
 239 0076 00BF     		nop
 240              	.L7:
 241              		.loc 1 345 0 is_stmt 0 discriminator 1
 242 0078 294B     		ldr	r3, .L15+16
 243 007a 1B88     		ldrh	r3, [r3]	@ movhi
 244 007c 9BB2     		uxth	r3, r3
 245 007e 002B     		cmp	r3, #0
 246 0080 FAD1     		bne	.L7
 346:.\Generated_Source\PSoC5/cyfitter_cfg.c **** 
 347:.\Generated_Source\PSoC5/cyfitter_cfg.c **** 	/* Recombine TD source table (CFG_TD_ADDR0) with full TD table (CFG_TD_LIST0) */
 348:.\Generated_Source\PSoC5/cyfitter_cfg.c **** 	for (i = 0u; i < 33u; i++)
 247              		.loc 1 348 0 is_stmt 1
 248 0082 0023     		movs	r3, #0
 249 0084 7B60     		str	r3, [r7, #4]
 250 0086 0CE0     		b	.L8
 251              	.L9:
 349:.\Generated_Source\PSoC5/cyfitter_cfg.c **** 	{
 350:.\Generated_Source\PSoC5/cyfitter_cfg.c **** 		CY_SET_REG16((void CYXDATA *)(CYREG_PHUB_TDMEM1_ORIG_TD1 + (sizeof(struct td_t)*i)), (uint16)(uin
 252              		.loc 1 350 0 discriminator 2
 253 0088 7B68     		ldr	r3, [r7, #4]
 254 008a DA00     		lsls	r2, r3, #3
 255 008c 314B     		ldr	r3, .L15+68
 256 008e 1344     		add	r3, r3, r2
 257 0090 314A     		ldr	r2, .L15+72
 258 0092 7968     		ldr	r1, [r7, #4]
 259 0094 52F82120 		ldr	r2, [r2, r1, lsl #2]
 260 0098 92B2     		uxth	r2, r2
 261 009a 1A80     		strh	r2, [r3]	@ movhi
 348:.\Generated_Source\PSoC5/cyfitter_cfg.c **** 	for (i = 0u; i < 33u; i++)
 262              		.loc 1 348 0 discriminator 2
 263 009c 7B68     		ldr	r3, [r7, #4]
 264 009e 0133     		adds	r3, r3, #1
 265 00a0 7B60     		str	r3, [r7, #4]
 266              	.L8:
 348:.\Generated_Source\PSoC5/cyfitter_cfg.c **** 	for (i = 0u; i < 33u; i++)
 267              		.loc 1 348 0 is_stmt 0 discriminator 1
 268 00a2 7B68     		ldr	r3, [r7, #4]
 269 00a4 202B     		cmp	r3, #32
 270 00a6 EFD9     		bls	.L9
 351:.\Generated_Source\PSoC5/cyfitter_cfg.c **** 	}
 352:.\Generated_Source\PSoC5/cyfitter_cfg.c **** 
 353:.\Generated_Source\PSoC5/cyfitter_cfg.c **** 	CY_CFG_MEMORY_BARRIER();
 271              		.loc 1 353 0 is_stmt 1
 272 00a8 BFF35F8F 		dmb	sy
ARM GAS  C:\Users\pfautley\AppData\Local\Temp\ccVq4Bnc.s 			page 12


 354:.\Generated_Source\PSoC5/cyfitter_cfg.c **** 	CY_SET_REG8((void CYXDATA *)CYREG_PHUB_CH0_ACTION, 0x01u); /* cpu_req */
 273              		.loc 1 354 0
 274 00ac 284B     		ldr	r3, .L15+64
 275 00ae 0122     		movs	r2, #1
 276 00b0 1A70     		strb	r2, [r3]
 355:.\Generated_Source\PSoC5/cyfitter_cfg.c **** 	CY_CFG_MEMORY_BARRIER();
 277              		.loc 1 355 0
 278 00b2 BFF35F8F 		dmb	sy
 356:.\Generated_Source\PSoC5/cyfitter_cfg.c **** 
 357:.\Generated_Source\PSoC5/cyfitter_cfg.c **** 	/* Wait for all DMA transfers to complete */
 358:.\Generated_Source\PSoC5/cyfitter_cfg.c **** 	while(0u != (CY_GET_REG8((void CYXDATA *)CYREG_PHUB_CH0_BASIC_STATUS) & 0x01u)){}
 279              		.loc 1 358 0
 280 00b6 00BF     		nop
 281              	.L10:
 282              		.loc 1 358 0 is_stmt 0 discriminator 1
 283 00b8 284B     		ldr	r3, .L15+76
 284 00ba 1B78     		ldrb	r3, [r3]
 285 00bc DBB2     		uxtb	r3, r3
 286 00be 03F00103 		and	r3, r3, #1
 287 00c2 002B     		cmp	r3, #0
 288 00c4 F8D1     		bne	.L10
 359:.\Generated_Source\PSoC5/cyfitter_cfg.c **** 	while(0u != (CY_GET_REG8((void CYXDATA *)CYREG_PHUB_CH1_BASIC_STATUS) & 0x01u)){}
 289              		.loc 1 359 0 is_stmt 1
 290 00c6 00BF     		nop
 291              	.L11:
 292              		.loc 1 359 0 is_stmt 0 discriminator 1
 293 00c8 254B     		ldr	r3, .L15+80
 294 00ca 1B78     		ldrb	r3, [r3]
 295 00cc DBB2     		uxtb	r3, r3
 296 00ce 03F00103 		and	r3, r3, #1
 297 00d2 002B     		cmp	r3, #0
 298 00d4 F8D1     		bne	.L11
 360:.\Generated_Source\PSoC5/cyfitter_cfg.c **** 	while(0u != (CY_GET_REG8((void CYXDATA *)CYREG_PHUB_CH2_BASIC_STATUS) & 0x01u)){}
 299              		.loc 1 360 0 is_stmt 1
 300 00d6 00BF     		nop
 301              	.L12:
 302              		.loc 1 360 0 is_stmt 0 discriminator 1
 303 00d8 224B     		ldr	r3, .L15+84
 304 00da 1B78     		ldrb	r3, [r3]
 305 00dc DBB2     		uxtb	r3, r3
 306 00de 03F00103 		and	r3, r3, #1
 307 00e2 002B     		cmp	r3, #0
 308 00e4 F8D1     		bne	.L12
 361:.\Generated_Source\PSoC5/cyfitter_cfg.c **** 	while(0u != (CY_GET_REG8((void CYXDATA *)CYREG_PHUB_CH5_BASIC_STATUS) & 0x01u)){}
 309              		.loc 1 361 0 is_stmt 1
 310 00e6 00BF     		nop
 311              	.L13:
 312              		.loc 1 361 0 is_stmt 0 discriminator 1
 313 00e8 1F4B     		ldr	r3, .L15+88
 314 00ea 1B78     		ldrb	r3, [r3]
 315 00ec DBB2     		uxtb	r3, r3
 316 00ee 03F00103 		and	r3, r3, #1
 317 00f2 002B     		cmp	r3, #0
 318 00f4 F8D1     		bne	.L13
 362:.\Generated_Source\PSoC5/cyfitter_cfg.c **** 	while(0u != (CY_GET_REG8((void CYXDATA *)CYREG_PHUB_CH6_BASIC_STATUS) & 0x01u)){}
 319              		.loc 1 362 0 is_stmt 1
 320 00f6 00BF     		nop
ARM GAS  C:\Users\pfautley\AppData\Local\Temp\ccVq4Bnc.s 			page 13


 321              	.L14:
 322              		.loc 1 362 0 is_stmt 0 discriminator 1
 323 00f8 1C4B     		ldr	r3, .L15+92
 324 00fa 1B78     		ldrb	r3, [r3]
 325 00fc DBB2     		uxtb	r3, r3
 326 00fe 03F00103 		and	r3, r3, #1
 327 0102 002B     		cmp	r3, #0
 328 0104 F8D1     		bne	.L14
 363:.\Generated_Source\PSoC5/cyfitter_cfg.c **** 
 364:.\Generated_Source\PSoC5/cyfitter_cfg.c **** 
 365:.\Generated_Source\PSoC5/cyfitter_cfg.c **** }
 329              		.loc 1 365 0 is_stmt 1
 330 0106 0C37     		adds	r7, r7, #12
 331 0108 BD46     		mov	sp, r7
 332              		@ sp needed
 333 010a 5DF8047B 		ldr	r7, [sp], #4
 334 010e 7047     		bx	lr
 335              	.L16:
 336              		.align	2
 337              	.L15:
 338 0110 00000000 		.word	DMA_ZERO_VAL.4847
 339 0114 00760040 		.word	1073772032
 340 0118 10700040 		.word	1073770512
 341 011c 19700040 		.word	1073770521
 342 0120 00780040 		.word	1073772544
 343 0124 02780040 		.word	1073772546
 344 0128 03780040 		.word	1073772547
 345 012c 04780040 		.word	1073772548
 346 0130 00000000 		.word	CFG_TD_LIST0.4848
 347 0134 06780040 		.word	1073772550
 348 0138 04760040 		.word	1073772036
 349 013c 06760040 		.word	1073772038
 350 0140 29700040 		.word	1073770537
 351 0144 39700040 		.word	1073770553
 352 0148 69700040 		.word	1073770601
 353 014c 79700040 		.word	1073770617
 354 0150 14700040 		.word	1073770516
 355 0154 0C780040 		.word	1073772556
 356 0158 00000000 		.word	CFG_TD_ADDR0.4849
 357 015c 18700040 		.word	1073770520
 358 0160 28700040 		.word	1073770536
 359 0164 38700040 		.word	1073770552
 360 0168 68700040 		.word	1073770600
 361 016c 78700040 		.word	1073770616
 362              		.cfi_endproc
 363              	.LFE4:
 364              		.size	cfg_dma_init, .-cfg_dma_init
 365              		.section	.text.ClockSetup,"ax",%progbits
 366              		.align	2
 367              		.thumb
 368              		.thumb_func
 369              		.type	ClockSetup, %function
 370              	ClockSetup:
 371              	.LFB5:
 366:.\Generated_Source\PSoC5/cyfitter_cfg.c **** /*******************************************************************************
 367:.\Generated_Source\PSoC5/cyfitter_cfg.c **** * Function Name: ClockSetup
 368:.\Generated_Source\PSoC5/cyfitter_cfg.c **** ********************************************************************************
ARM GAS  C:\Users\pfautley\AppData\Local\Temp\ccVq4Bnc.s 			page 14


 369:.\Generated_Source\PSoC5/cyfitter_cfg.c **** *
 370:.\Generated_Source\PSoC5/cyfitter_cfg.c **** * Summary:
 371:.\Generated_Source\PSoC5/cyfitter_cfg.c **** *  Performs the initialization of all of the clocks in the device based on the
 372:.\Generated_Source\PSoC5/cyfitter_cfg.c **** *  settings in the Clock tab of the DWR.  This includes enabling the requested
 373:.\Generated_Source\PSoC5/cyfitter_cfg.c **** *  clocks and setting the necessary dividers to produce the desired frequency. 
 374:.\Generated_Source\PSoC5/cyfitter_cfg.c **** *
 375:.\Generated_Source\PSoC5/cyfitter_cfg.c **** * Parameters:
 376:.\Generated_Source\PSoC5/cyfitter_cfg.c **** *  void
 377:.\Generated_Source\PSoC5/cyfitter_cfg.c **** *
 378:.\Generated_Source\PSoC5/cyfitter_cfg.c **** * Return:
 379:.\Generated_Source\PSoC5/cyfitter_cfg.c **** *  void
 380:.\Generated_Source\PSoC5/cyfitter_cfg.c **** *
 381:.\Generated_Source\PSoC5/cyfitter_cfg.c **** *******************************************************************************/
 382:.\Generated_Source\PSoC5/cyfitter_cfg.c **** static void ClockSetup(void);
 383:.\Generated_Source\PSoC5/cyfitter_cfg.c **** static void ClockSetup(void)
 384:.\Generated_Source\PSoC5/cyfitter_cfg.c **** {
 372              		.loc 1 384 0
 373              		.cfi_startproc
 374              		@ args = 0, pretend = 0, frame = 8
 375              		@ frame_needed = 1, uses_anonymous_args = 0
 376 0000 80B5     		push	{r7, lr}
 377              		.cfi_def_cfa_offset 8
 378              		.cfi_offset 7, -8
 379              		.cfi_offset 14, -4
 380 0002 82B0     		sub	sp, sp, #8
 381              		.cfi_def_cfa_offset 16
 382 0004 00AF     		add	r7, sp, #0
 383              		.cfi_def_cfa_register 7
 385:.\Generated_Source\PSoC5/cyfitter_cfg.c **** 	uint8 x32TrHold;
 386:.\Generated_Source\PSoC5/cyfitter_cfg.c **** 	uint32 timeout;
 387:.\Generated_Source\PSoC5/cyfitter_cfg.c **** 	uint8 pllLock;
 388:.\Generated_Source\PSoC5/cyfitter_cfg.c **** 
 389:.\Generated_Source\PSoC5/cyfitter_cfg.c **** 	x32TrHold = CY_GET_XTND_REG8((void CYFAR *)CYREG_X32_TR);
 384              		.loc 1 389 0
 385 0006 434B     		ldr	r3, .L25
 386 0008 1B78     		ldrb	r3, [r3]
 387 000a BB70     		strb	r3, [r7, #2]
 390:.\Generated_Source\PSoC5/cyfitter_cfg.c **** 
 391:.\Generated_Source\PSoC5/cyfitter_cfg.c **** 	/* Configure Digital Clocks based on settings from Clock DWR */
 392:.\Generated_Source\PSoC5/cyfitter_cfg.c **** 	CY_SET_XTND_REG16((void CYFAR *)(CYREG_CLKDIST_DCFG0_CFG0), 0x0000u);
 388              		.loc 1 392 0
 389 000c 424B     		ldr	r3, .L25+4
 390 000e 0022     		movs	r2, #0
 391 0010 1A80     		strh	r2, [r3]	@ movhi
 393:.\Generated_Source\PSoC5/cyfitter_cfg.c **** 	CY_SET_XTND_REG8((void CYFAR *)(CYREG_CLKDIST_DCFG0_CFG0 + 0x2u), 0x58u);
 392              		.loc 1 393 0
 393 0012 424B     		ldr	r3, .L25+8
 394 0014 5822     		movs	r2, #88
 395 0016 1A70     		strb	r2, [r3]
 394:.\Generated_Source\PSoC5/cyfitter_cfg.c **** 
 395:.\Generated_Source\PSoC5/cyfitter_cfg.c **** 	/* Configure ILO based on settings from Clock DWR */
 396:.\Generated_Source\PSoC5/cyfitter_cfg.c **** 	CY_SET_XTND_REG8((void CYFAR *)(CYREG_SLOWCLK_ILO_CR0), 0x02u);
 396              		.loc 1 396 0
 397 0018 414B     		ldr	r3, .L25+12
 398 001a 0222     		movs	r2, #2
 399 001c 1A70     		strb	r2, [r3]
 397:.\Generated_Source\PSoC5/cyfitter_cfg.c **** 	CY_SET_XTND_REG8((void CYFAR *)(CYREG_CLKDIST_CR), 0x08u);
ARM GAS  C:\Users\pfautley\AppData\Local\Temp\ccVq4Bnc.s 			page 15


 400              		.loc 1 397 0
 401 001e 4FF04023 		mov	r3, #1073758208
 402 0022 0822     		movs	r2, #8
 403 0024 1A70     		strb	r2, [r3]
 398:.\Generated_Source\PSoC5/cyfitter_cfg.c **** 
 399:.\Generated_Source\PSoC5/cyfitter_cfg.c **** 	/* Configure XTAL 32kHz based on settings from Clock DWR */
 400:.\Generated_Source\PSoC5/cyfitter_cfg.c **** 	CY_SET_XTND_REG8((void CYFAR *)(CYREG_SLOWCLK_X32_TST), 0xF3u);
 404              		.loc 1 400 0
 405 0026 3F4B     		ldr	r3, .L25+16
 406 0028 F322     		movs	r2, #243
 407 002a 1A70     		strb	r2, [r3]
 401:.\Generated_Source\PSoC5/cyfitter_cfg.c **** 	CY_SET_XTND_REG8((void CYFAR *)(CYREG_X32_TR), 0x03u);
 408              		.loc 1 401 0
 409 002c 394B     		ldr	r3, .L25
 410 002e 0322     		movs	r2, #3
 411 0030 1A70     		strb	r2, [r3]
 402:.\Generated_Source\PSoC5/cyfitter_cfg.c **** 	CY_SET_XTND_REG8((void CYFAR *)(CYREG_SLOWCLK_X32_CFG), 0x84u);
 412              		.loc 1 402 0
 413 0032 3D4B     		ldr	r3, .L25+20
 414 0034 8422     		movs	r2, #132
 415 0036 1A70     		strb	r2, [r3]
 403:.\Generated_Source\PSoC5/cyfitter_cfg.c **** 	CY_SET_XTND_REG8((void CYFAR *)(CYREG_SLOWCLK_X32_CR), 0x05u);
 416              		.loc 1 403 0
 417 0038 3C4B     		ldr	r3, .L25+24
 418 003a 0522     		movs	r2, #5
 419 003c 1A70     		strb	r2, [r3]
 404:.\Generated_Source\PSoC5/cyfitter_cfg.c **** 	/* Wait up to 1000000us for the XTAL 32kHz to lock */
 405:.\Generated_Source\PSoC5/cyfitter_cfg.c **** 	for (timeout = 1000000u / 10u; (timeout > 0u) && ((CY_GET_XTND_REG8((void CYFAR *)CYREG_SLOWCLK_X3
 420              		.loc 1 405 0
 421 003e 3C4B     		ldr	r3, .L25+28
 422 0040 7B60     		str	r3, [r7, #4]
 423 0042 06E0     		b	.L18
 424              	.L20:
 406:.\Generated_Source\PSoC5/cyfitter_cfg.c **** 	{ 
 407:.\Generated_Source\PSoC5/cyfitter_cfg.c **** 		
 408:.\Generated_Source\PSoC5/cyfitter_cfg.c **** 		CyDelayCycles(10u * 48u); /* Delay 10us based on 48MHz clock */
 425              		.loc 1 408 0 discriminator 1
 426 0044 4FF4F070 		mov	r0, #480
 427 0048 FFF7FEFF 		bl	CyDelayCycles
 405:.\Generated_Source\PSoC5/cyfitter_cfg.c **** 	for (timeout = 1000000u / 10u; (timeout > 0u) && ((CY_GET_XTND_REG8((void CYFAR *)CYREG_SLOWCLK_X3
 428              		.loc 1 405 0 discriminator 1
 429 004c 7B68     		ldr	r3, [r7, #4]
 430 004e 013B     		subs	r3, r3, #1
 431 0050 7B60     		str	r3, [r7, #4]
 432              	.L18:
 433 0052 7B68     		ldr	r3, [r7, #4]
 434 0054 002B     		cmp	r3, #0
 435 0056 06D0     		beq	.L19
 405:.\Generated_Source\PSoC5/cyfitter_cfg.c **** 	for (timeout = 1000000u / 10u; (timeout > 0u) && ((CY_GET_XTND_REG8((void CYFAR *)CYREG_SLOWCLK_X3
 436              		.loc 1 405 0 is_stmt 0 discriminator 2
 437 0058 344B     		ldr	r3, .L25+24
 438 005a 1B78     		ldrb	r3, [r3]
 439 005c DBB2     		uxtb	r3, r3
 440 005e 03F02003 		and	r3, r3, #32
 441 0062 002B     		cmp	r3, #0
 442 0064 EED0     		beq	.L20
 443              	.L19:
ARM GAS  C:\Users\pfautley\AppData\Local\Temp\ccVq4Bnc.s 			page 16


 409:.\Generated_Source\PSoC5/cyfitter_cfg.c **** 	}
 410:.\Generated_Source\PSoC5/cyfitter_cfg.c **** 	CY_SET_XTND_REG8((void CYFAR *)(CYREG_X32_TR), (x32TrHold));
 444              		.loc 1 410 0 is_stmt 1
 445 0066 2B4B     		ldr	r3, .L25
 446 0068 BA78     		ldrb	r2, [r7, #2]
 447 006a 1A70     		strb	r2, [r3]
 411:.\Generated_Source\PSoC5/cyfitter_cfg.c **** 
 412:.\Generated_Source\PSoC5/cyfitter_cfg.c **** 	/* Configure IMO based on settings from Clock DWR */
 413:.\Generated_Source\PSoC5/cyfitter_cfg.c **** 	CY_SET_XTND_REG8((void CYFAR *)(CYREG_FASTCLK_IMO_CR), 0x03u);
 448              		.loc 1 413 0
 449 006c 314B     		ldr	r3, .L25+32
 450 006e 0322     		movs	r2, #3
 451 0070 1A70     		strb	r2, [r3]
 414:.\Generated_Source\PSoC5/cyfitter_cfg.c **** 	CY_SET_XTND_REG8((void CYFAR *)(CYREG_IMO_TR1), (CY_GET_XTND_REG8((void CYFAR *)CYREG_FLSHID_CUST_
 452              		.loc 1 414 0
 453 0072 314B     		ldr	r3, .L25+36
 454 0074 314A     		ldr	r2, .L25+40
 455 0076 1278     		ldrb	r2, [r2]
 456 0078 D2B2     		uxtb	r2, r2
 457 007a 1A70     		strb	r2, [r3]
 415:.\Generated_Source\PSoC5/cyfitter_cfg.c **** 
 416:.\Generated_Source\PSoC5/cyfitter_cfg.c **** 	/* Configure PLL based on settings from Clock DWR */
 417:.\Generated_Source\PSoC5/cyfitter_cfg.c **** 	CY_SET_XTND_REG16((void CYFAR *)(CYREG_FASTCLK_PLL_P), 0x0008u);
 458              		.loc 1 417 0
 459 007c 304B     		ldr	r3, .L25+44
 460 007e 0822     		movs	r2, #8
 461 0080 1A80     		strh	r2, [r3]	@ movhi
 418:.\Generated_Source\PSoC5/cyfitter_cfg.c **** 	CY_SET_XTND_REG16((void CYFAR *)(CYREG_FASTCLK_PLL_CFG0), 0x1251u);
 462              		.loc 1 418 0
 463 0082 304B     		ldr	r3, .L25+48
 464 0084 41F25122 		movw	r2, #4689
 465 0088 1A80     		strh	r2, [r3]	@ movhi
 419:.\Generated_Source\PSoC5/cyfitter_cfg.c **** 	/* Wait up to 250us for the PLL to lock */
 420:.\Generated_Source\PSoC5/cyfitter_cfg.c **** 	pllLock = 0u;
 466              		.loc 1 420 0
 467 008a 0023     		movs	r3, #0
 468 008c FB70     		strb	r3, [r7, #3]
 421:.\Generated_Source\PSoC5/cyfitter_cfg.c **** 	for (timeout = 250u / 10u; (timeout > 0u) && (pllLock != 0x03u); timeout--)
 469              		.loc 1 421 0
 470 008e 1923     		movs	r3, #25
 471 0090 7B60     		str	r3, [r7, #4]
 472 0092 14E0     		b	.L21
 473              	.L23:
 422:.\Generated_Source\PSoC5/cyfitter_cfg.c **** 	{ 
 423:.\Generated_Source\PSoC5/cyfitter_cfg.c **** 		pllLock = 0x03u & ((uint8)((uint8)pllLock << 1) | ((CY_GET_XTND_REG8((void CYFAR *)CYREG_FASTCLK_
 474              		.loc 1 423 0 discriminator 1
 475 0094 FB78     		ldrb	r3, [r7, #3]
 476 0096 5B00     		lsls	r3, r3, #1
 477 0098 DAB2     		uxtb	r2, r3
 478 009a 2B4B     		ldr	r3, .L25+52
 479 009c 1B78     		ldrb	r3, [r3]
 480 009e DBB2     		uxtb	r3, r3
 481 00a0 03F00103 		and	r3, r3, #1
 482 00a4 DBB2     		uxtb	r3, r3
 483 00a6 1343     		orrs	r3, r3, r2
 484 00a8 DBB2     		uxtb	r3, r3
 485 00aa 03F00303 		and	r3, r3, #3
ARM GAS  C:\Users\pfautley\AppData\Local\Temp\ccVq4Bnc.s 			page 17


 486 00ae FB70     		strb	r3, [r7, #3]
 424:.\Generated_Source\PSoC5/cyfitter_cfg.c **** 		CyDelayCycles(10u * 48u); /* Delay 10us based on 48MHz clock */
 487              		.loc 1 424 0 discriminator 1
 488 00b0 4FF4F070 		mov	r0, #480
 489 00b4 FFF7FEFF 		bl	CyDelayCycles
 421:.\Generated_Source\PSoC5/cyfitter_cfg.c **** 	for (timeout = 250u / 10u; (timeout > 0u) && (pllLock != 0x03u); timeout--)
 490              		.loc 1 421 0 discriminator 1
 491 00b8 7B68     		ldr	r3, [r7, #4]
 492 00ba 013B     		subs	r3, r3, #1
 493 00bc 7B60     		str	r3, [r7, #4]
 494              	.L21:
 495 00be 7B68     		ldr	r3, [r7, #4]
 496 00c0 002B     		cmp	r3, #0
 497 00c2 02D0     		beq	.L22
 421:.\Generated_Source\PSoC5/cyfitter_cfg.c **** 	for (timeout = 250u / 10u; (timeout > 0u) && (pllLock != 0x03u); timeout--)
 498              		.loc 1 421 0 is_stmt 0 discriminator 2
 499 00c4 FB78     		ldrb	r3, [r7, #3]	@ zero_extendqisi2
 500 00c6 032B     		cmp	r3, #3
 501 00c8 E4D1     		bne	.L23
 502              	.L22:
 425:.\Generated_Source\PSoC5/cyfitter_cfg.c **** 	}
 426:.\Generated_Source\PSoC5/cyfitter_cfg.c **** 	/* If we ran out of time the PLL didn't lock so go to the error function */
 427:.\Generated_Source\PSoC5/cyfitter_cfg.c **** 	if (timeout == 0u)
 503              		.loc 1 427 0 is_stmt 1
 504 00ca 7B68     		ldr	r3, [r7, #4]
 505 00cc 002B     		cmp	r3, #0
 506 00ce 02D1     		bne	.L24
 428:.\Generated_Source\PSoC5/cyfitter_cfg.c **** 	{
 429:.\Generated_Source\PSoC5/cyfitter_cfg.c **** 		CyClockStartupError(CYCLOCKSTART_PLL_ERROR);
 507              		.loc 1 429 0
 508 00d0 0320     		movs	r0, #3
 509 00d2 FFF7FEFF 		bl	CyClockStartupError
 510              	.L24:
 430:.\Generated_Source\PSoC5/cyfitter_cfg.c **** 	}
 431:.\Generated_Source\PSoC5/cyfitter_cfg.c **** 
 432:.\Generated_Source\PSoC5/cyfitter_cfg.c **** 	/* Configure Bus/Master Clock based on settings from Clock DWR */
 433:.\Generated_Source\PSoC5/cyfitter_cfg.c **** 	CY_SET_XTND_REG16((void CYFAR *)(CYREG_CLKDIST_MSTR0), 0x0100u);
 511              		.loc 1 433 0
 512 00d6 1D4B     		ldr	r3, .L25+56
 513 00d8 4FF48072 		mov	r2, #256
 514 00dc 1A80     		strh	r2, [r3]	@ movhi
 434:.\Generated_Source\PSoC5/cyfitter_cfg.c **** 	CY_SET_XTND_REG8((void CYFAR *)(CYREG_CLKDIST_MSTR0), 0x07u);
 515              		.loc 1 434 0
 516 00de 1B4B     		ldr	r3, .L25+56
 517 00e0 0722     		movs	r2, #7
 518 00e2 1A70     		strb	r2, [r3]
 435:.\Generated_Source\PSoC5/cyfitter_cfg.c **** 	CY_SET_XTND_REG8((void CYFAR *)(CYREG_CLKDIST_BCFG0), 0x00u);
 519              		.loc 1 435 0
 520 00e4 1A4B     		ldr	r3, .L25+60
 521 00e6 0022     		movs	r2, #0
 522 00e8 1A70     		strb	r2, [r3]
 436:.\Generated_Source\PSoC5/cyfitter_cfg.c **** 	CY_SET_XTND_REG8((void CYFAR *)(CYREG_CLKDIST_BCFG2), 0x48u);
 523              		.loc 1 436 0
 524 00ea 1A4B     		ldr	r3, .L25+64
 525 00ec 4822     		movs	r2, #72
 526 00ee 1A70     		strb	r2, [r3]
 437:.\Generated_Source\PSoC5/cyfitter_cfg.c **** 	CY_SET_XTND_REG8((void CYFAR *)(CYREG_CLKDIST_MSTR0), 0x00u);
ARM GAS  C:\Users\pfautley\AppData\Local\Temp\ccVq4Bnc.s 			page 18


 527              		.loc 1 437 0
 528 00f0 164B     		ldr	r3, .L25+56
 529 00f2 0022     		movs	r2, #0
 530 00f4 1A70     		strb	r2, [r3]
 438:.\Generated_Source\PSoC5/cyfitter_cfg.c **** 	CY_SET_XTND_REG8((void CYFAR *)(CYREG_CLKDIST_LD), 0x02u);
 531              		.loc 1 438 0
 532 00f6 184B     		ldr	r3, .L25+68
 533 00f8 0222     		movs	r2, #2
 534 00fa 1A70     		strb	r2, [r3]
 439:.\Generated_Source\PSoC5/cyfitter_cfg.c **** 
 440:.\Generated_Source\PSoC5/cyfitter_cfg.c **** 	CY_SET_XTND_REG8((void CYFAR *)(CYREG_PM_ACT_CFG2), ((CY_GET_XTND_REG8((void CYFAR *)CYREG_PM_ACT_
 535              		.loc 1 440 0
 536 00fc 174B     		ldr	r3, .L25+72
 537 00fe 174A     		ldr	r2, .L25+72
 538 0100 1278     		ldrb	r2, [r2]
 539 0102 D2B2     		uxtb	r2, r2
 540 0104 42F00102 		orr	r2, r2, #1
 541 0108 D2B2     		uxtb	r2, r2
 542 010a 1A70     		strb	r2, [r3]
 441:.\Generated_Source\PSoC5/cyfitter_cfg.c **** }
 543              		.loc 1 441 0
 544 010c 0837     		adds	r7, r7, #8
 545 010e BD46     		mov	sp, r7
 546              		@ sp needed
 547 0110 80BD     		pop	{r7, pc}
 548              	.L26:
 549 0112 00BF     		.align	2
 550              	.L25:
 551 0114 98460040 		.word	1073759896
 552 0118 80400040 		.word	1073758336
 553 011c 82400040 		.word	1073758338
 554 0120 00430040 		.word	1073758976
 555 0124 0A430040 		.word	1073758986
 556 0128 09430040 		.word	1073758985
 557 012c 08430040 		.word	1073758984
 558 0130 A0860100 		.word	100000
 559 0134 00420040 		.word	1073758720
 560 0138 A1460040 		.word	1073759905
 561 013c 08010049 		.word	1224737032
 562 0140 22420040 		.word	1073758754
 563 0144 20420040 		.word	1073758752
 564 0148 25420040 		.word	1073758757
 565 014c 04400040 		.word	1073758212
 566 0150 06400040 		.word	1073758214
 567 0154 08400040 		.word	1073758216
 568 0158 01400040 		.word	1073758209
 569 015c A2430040 		.word	1073759138
 570              		.cfi_endproc
 571              	.LFE5:
 572              		.size	ClockSetup, .-ClockSetup
 573              		.section	.text.AnalogSetDefault,"ax",%progbits
 574              		.align	2
 575              		.thumb
 576              		.thumb_func
 577              		.type	AnalogSetDefault, %function
 578              	AnalogSetDefault:
 579              	.LFB6:
ARM GAS  C:\Users\pfautley\AppData\Local\Temp\ccVq4Bnc.s 			page 19


 442:.\Generated_Source\PSoC5/cyfitter_cfg.c **** 
 443:.\Generated_Source\PSoC5/cyfitter_cfg.c **** 
 444:.\Generated_Source\PSoC5/cyfitter_cfg.c **** /* Analog API Functions */
 445:.\Generated_Source\PSoC5/cyfitter_cfg.c **** 
 446:.\Generated_Source\PSoC5/cyfitter_cfg.c **** 
 447:.\Generated_Source\PSoC5/cyfitter_cfg.c **** /*******************************************************************************
 448:.\Generated_Source\PSoC5/cyfitter_cfg.c **** * Function Name: AnalogSetDefault
 449:.\Generated_Source\PSoC5/cyfitter_cfg.c **** ********************************************************************************
 450:.\Generated_Source\PSoC5/cyfitter_cfg.c **** *
 451:.\Generated_Source\PSoC5/cyfitter_cfg.c **** * Summary:
 452:.\Generated_Source\PSoC5/cyfitter_cfg.c **** *  Sets up the analog portions of the chip to default values based on chip
 453:.\Generated_Source\PSoC5/cyfitter_cfg.c **** *  configuration options from the project.
 454:.\Generated_Source\PSoC5/cyfitter_cfg.c **** *
 455:.\Generated_Source\PSoC5/cyfitter_cfg.c **** * Parameters:
 456:.\Generated_Source\PSoC5/cyfitter_cfg.c **** *  void
 457:.\Generated_Source\PSoC5/cyfitter_cfg.c **** *
 458:.\Generated_Source\PSoC5/cyfitter_cfg.c **** * Return:
 459:.\Generated_Source\PSoC5/cyfitter_cfg.c **** *  void
 460:.\Generated_Source\PSoC5/cyfitter_cfg.c **** *
 461:.\Generated_Source\PSoC5/cyfitter_cfg.c **** *******************************************************************************/
 462:.\Generated_Source\PSoC5/cyfitter_cfg.c **** static void AnalogSetDefault(void);
 463:.\Generated_Source\PSoC5/cyfitter_cfg.c **** static void AnalogSetDefault(void)
 464:.\Generated_Source\PSoC5/cyfitter_cfg.c **** {
 580              		.loc 1 464 0
 581              		.cfi_startproc
 582              		@ args = 0, pretend = 0, frame = 8
 583              		@ frame_needed = 1, uses_anonymous_args = 0
 584              		@ link register save eliminated.
 585 0000 80B4     		push	{r7}
 586              		.cfi_def_cfa_offset 4
 587              		.cfi_offset 7, -4
 588 0002 83B0     		sub	sp, sp, #12
 589              		.cfi_def_cfa_offset 16
 590 0004 00AF     		add	r7, sp, #0
 591              		.cfi_def_cfa_register 7
 465:.\Generated_Source\PSoC5/cyfitter_cfg.c **** 	uint8 bg_xover_inl_trim = CY_GET_XTND_REG8((void CYFAR *)(CYREG_FLSHID_MFG_CFG_BG_XOVER_INL_TRIM +
 592              		.loc 1 465 0
 593 0006 0B4B     		ldr	r3, .L28
 594 0008 1B78     		ldrb	r3, [r3]
 595 000a FB71     		strb	r3, [r7, #7]
 466:.\Generated_Source\PSoC5/cyfitter_cfg.c **** 	CY_SET_XTND_REG8((void CYFAR *)(CYREG_BG_DFT0), (bg_xover_inl_trim & 0x07u));
 596              		.loc 1 466 0
 597 000c 0A4B     		ldr	r3, .L28+4
 598 000e FA79     		ldrb	r2, [r7, #7]
 599 0010 02F00702 		and	r2, r2, #7
 600 0014 D2B2     		uxtb	r2, r2
 601 0016 1A70     		strb	r2, [r3]
 467:.\Generated_Source\PSoC5/cyfitter_cfg.c **** 	CY_SET_XTND_REG8((void CYFAR *)(CYREG_BG_DFT1), ((bg_xover_inl_trim >> 4) & 0x0Fu));
 602              		.loc 1 467 0
 603 0018 084B     		ldr	r3, .L28+8
 604 001a FA79     		ldrb	r2, [r7, #7]	@ zero_extendqisi2
 605 001c 1209     		lsrs	r2, r2, #4
 606 001e D2B2     		uxtb	r2, r2
 607 0020 1A70     		strb	r2, [r3]
 468:.\Generated_Source\PSoC5/cyfitter_cfg.c **** 	CY_SET_XTND_REG8((void CYFAR *)CYREG_PUMP_CR0, 0x44u);
 608              		.loc 1 468 0
 609 0022 074B     		ldr	r3, .L28+12
ARM GAS  C:\Users\pfautley\AppData\Local\Temp\ccVq4Bnc.s 			page 20


 610 0024 4422     		movs	r2, #68
 611 0026 1A70     		strb	r2, [r3]
 469:.\Generated_Source\PSoC5/cyfitter_cfg.c **** }
 612              		.loc 1 469 0
 613 0028 0C37     		adds	r7, r7, #12
 614 002a BD46     		mov	sp, r7
 615              		@ sp needed
 616 002c 5DF8047B 		ldr	r7, [sp], #4
 617 0030 7047     		bx	lr
 618              	.L29:
 619 0032 00BF     		.align	2
 620              	.L28:
 621 0034 CF010049 		.word	1224737231
 622 0038 6E580040 		.word	1073764462
 623 003c 6F580040 		.word	1073764463
 624 0040 76580040 		.word	1073764470
 625              		.cfi_endproc
 626              	.LFE6:
 627              		.size	AnalogSetDefault, .-AnalogSetDefault
 628              		.section	.text.SetAnalogRoutingPumps,"ax",%progbits
 629              		.align	2
 630              		.global	SetAnalogRoutingPumps
 631              		.thumb
 632              		.thumb_func
 633              		.type	SetAnalogRoutingPumps, %function
 634              	SetAnalogRoutingPumps:
 635              	.LFB7:
 470:.\Generated_Source\PSoC5/cyfitter_cfg.c **** 
 471:.\Generated_Source\PSoC5/cyfitter_cfg.c **** 
 472:.\Generated_Source\PSoC5/cyfitter_cfg.c **** /*******************************************************************************
 473:.\Generated_Source\PSoC5/cyfitter_cfg.c **** * Function Name: SetAnalogRoutingPumps
 474:.\Generated_Source\PSoC5/cyfitter_cfg.c **** ********************************************************************************
 475:.\Generated_Source\PSoC5/cyfitter_cfg.c **** *
 476:.\Generated_Source\PSoC5/cyfitter_cfg.c **** * Summary:
 477:.\Generated_Source\PSoC5/cyfitter_cfg.c **** * Enables or disables the analog pumps feeding analog routing switches.
 478:.\Generated_Source\PSoC5/cyfitter_cfg.c **** * Intended to be called at startup, based on the Vdda system configuration;
 479:.\Generated_Source\PSoC5/cyfitter_cfg.c **** * may be called during operation when the user informs us that the Vdda voltage
 480:.\Generated_Source\PSoC5/cyfitter_cfg.c **** * crossed the pump threshold.
 481:.\Generated_Source\PSoC5/cyfitter_cfg.c **** *
 482:.\Generated_Source\PSoC5/cyfitter_cfg.c **** * Parameters:
 483:.\Generated_Source\PSoC5/cyfitter_cfg.c **** *  enabled - 1 to enable the pumps, 0 to disable the pumps
 484:.\Generated_Source\PSoC5/cyfitter_cfg.c **** *
 485:.\Generated_Source\PSoC5/cyfitter_cfg.c **** * Return:
 486:.\Generated_Source\PSoC5/cyfitter_cfg.c **** *  void
 487:.\Generated_Source\PSoC5/cyfitter_cfg.c **** *
 488:.\Generated_Source\PSoC5/cyfitter_cfg.c **** *******************************************************************************/
 489:.\Generated_Source\PSoC5/cyfitter_cfg.c **** void SetAnalogRoutingPumps(uint8 enabled)
 490:.\Generated_Source\PSoC5/cyfitter_cfg.c **** {
 636              		.loc 1 490 0
 637              		.cfi_startproc
 638              		@ args = 0, pretend = 0, frame = 16
 639              		@ frame_needed = 1, uses_anonymous_args = 0
 640              		@ link register save eliminated.
 641 0000 80B4     		push	{r7}
 642              		.cfi_def_cfa_offset 4
 643              		.cfi_offset 7, -4
 644 0002 85B0     		sub	sp, sp, #20
ARM GAS  C:\Users\pfautley\AppData\Local\Temp\ccVq4Bnc.s 			page 21


 645              		.cfi_def_cfa_offset 24
 646 0004 00AF     		add	r7, sp, #0
 647              		.cfi_def_cfa_register 7
 648 0006 0346     		mov	r3, r0
 649 0008 FB71     		strb	r3, [r7, #7]
 491:.\Generated_Source\PSoC5/cyfitter_cfg.c **** 	uint8 regValue = CY_GET_XTND_REG8((void CYFAR *)CYREG_PUMP_CR0);
 650              		.loc 1 491 0
 651 000a 064B     		ldr	r3, .L33
 652 000c 1B78     		ldrb	r3, [r3]
 653 000e FB73     		strb	r3, [r7, #15]
 492:.\Generated_Source\PSoC5/cyfitter_cfg.c **** 	if (enabled != 0u)
 654              		.loc 1 492 0
 655 0010 FB79     		ldrb	r3, [r7, #7]	@ zero_extendqisi2
 656 0012 002B     		cmp	r3, #0
 493:.\Generated_Source\PSoC5/cyfitter_cfg.c **** 	{
 494:.\Generated_Source\PSoC5/cyfitter_cfg.c **** 		regValue |= 0x00u;
 495:.\Generated_Source\PSoC5/cyfitter_cfg.c **** 	}
 496:.\Generated_Source\PSoC5/cyfitter_cfg.c **** 	else
 497:.\Generated_Source\PSoC5/cyfitter_cfg.c **** 	{
 498:.\Generated_Source\PSoC5/cyfitter_cfg.c **** 		regValue &= (uint8)~0x00u;
 499:.\Generated_Source\PSoC5/cyfitter_cfg.c **** 	}
 500:.\Generated_Source\PSoC5/cyfitter_cfg.c **** 	CY_SET_XTND_REG8((void CYFAR *)CYREG_PUMP_CR0, regValue);
 657              		.loc 1 500 0
 658 0014 034B     		ldr	r3, .L33
 659 0016 FA7B     		ldrb	r2, [r7, #15]
 660 0018 1A70     		strb	r2, [r3]
 501:.\Generated_Source\PSoC5/cyfitter_cfg.c **** }
 661              		.loc 1 501 0
 662 001a 1437     		adds	r7, r7, #20
 663 001c BD46     		mov	sp, r7
 664              		@ sp needed
 665 001e 5DF8047B 		ldr	r7, [sp], #4
 666 0022 7047     		bx	lr
 667              	.L34:
 668              		.align	2
 669              	.L33:
 670 0024 76580040 		.word	1073764470
 671              		.cfi_endproc
 672              	.LFE7:
 673              		.size	SetAnalogRoutingPumps, .-SetAnalogRoutingPumps
 674              		.section	.text.cyfitter_cfg,"ax",%progbits
 675              		.align	2
 676              		.global	cyfitter_cfg
 677              		.thumb
 678              		.thumb_func
 679              		.type	cyfitter_cfg, %function
 680              	cyfitter_cfg:
 681              	.LFB8:
 502:.\Generated_Source\PSoC5/cyfitter_cfg.c **** 
 503:.\Generated_Source\PSoC5/cyfitter_cfg.c **** #define CY_AMUX_UNUSED CYREG_BOOST_SR
 504:.\Generated_Source\PSoC5/cyfitter_cfg.c **** 
 505:.\Generated_Source\PSoC5/cyfitter_cfg.c **** 
 506:.\Generated_Source\PSoC5/cyfitter_cfg.c **** /*******************************************************************************
 507:.\Generated_Source\PSoC5/cyfitter_cfg.c **** * Function Name: cyfitter_cfg
 508:.\Generated_Source\PSoC5/cyfitter_cfg.c **** ********************************************************************************
 509:.\Generated_Source\PSoC5/cyfitter_cfg.c **** * Summary:
 510:.\Generated_Source\PSoC5/cyfitter_cfg.c **** *  This function is called by the start-up code for the selected device. It
ARM GAS  C:\Users\pfautley\AppData\Local\Temp\ccVq4Bnc.s 			page 22


 511:.\Generated_Source\PSoC5/cyfitter_cfg.c **** *  performs all of the necessary device configuration based on the design
 512:.\Generated_Source\PSoC5/cyfitter_cfg.c **** *  settings.  This includes settings from the Design Wide Resources (DWR) such
 513:.\Generated_Source\PSoC5/cyfitter_cfg.c **** *  as Clocks and Pins as well as any component configuration that is necessary.
 514:.\Generated_Source\PSoC5/cyfitter_cfg.c **** *
 515:.\Generated_Source\PSoC5/cyfitter_cfg.c **** * Parameters:  
 516:.\Generated_Source\PSoC5/cyfitter_cfg.c **** *   void
 517:.\Generated_Source\PSoC5/cyfitter_cfg.c **** *
 518:.\Generated_Source\PSoC5/cyfitter_cfg.c **** * Return:
 519:.\Generated_Source\PSoC5/cyfitter_cfg.c **** *   void
 520:.\Generated_Source\PSoC5/cyfitter_cfg.c **** *
 521:.\Generated_Source\PSoC5/cyfitter_cfg.c **** *******************************************************************************/
 522:.\Generated_Source\PSoC5/cyfitter_cfg.c **** 
 523:.\Generated_Source\PSoC5/cyfitter_cfg.c **** void cyfitter_cfg(void)
 524:.\Generated_Source\PSoC5/cyfitter_cfg.c **** {
 682              		.loc 1 524 0
 683              		.cfi_startproc
 684              		@ args = 0, pretend = 0, frame = 0
 685              		@ frame_needed = 1, uses_anonymous_args = 0
 686 0000 80B5     		push	{r7, lr}
 687              		.cfi_def_cfa_offset 8
 688              		.cfi_offset 7, -8
 689              		.cfi_offset 14, -4
 690 0002 00AF     		add	r7, sp, #0
 691              		.cfi_def_cfa_register 7
 525:.\Generated_Source\PSoC5/cyfitter_cfg.c **** #ifdef CYGlobalIntDisable
 526:.\Generated_Source\PSoC5/cyfitter_cfg.c **** 	/* Disable interrupts by default. Let user enable if/when they want. */
 527:.\Generated_Source\PSoC5/cyfitter_cfg.c **** 	CYGlobalIntDisable
 692              		.loc 1 527 0
 693              	@ 527 ".\Generated_Source\PSoC5\cyfitter_cfg.c" 1
 694 0004 72B6     		CPSID   i
 695              	@ 0 "" 2
 528:.\Generated_Source\PSoC5/cyfitter_cfg.c **** #endif
 529:.\Generated_Source\PSoC5/cyfitter_cfg.c **** 
 530:.\Generated_Source\PSoC5/cyfitter_cfg.c **** 	/* Enable/Disable Debug functionality based on settings from System DWR */
 531:.\Generated_Source\PSoC5/cyfitter_cfg.c **** 	CY_SET_XTND_REG8((void CYFAR *)CYREG_MLOGIC_DEBUG, (CY_GET_XTND_REG8((void CYFAR *)CYREG_MLOGIC_DE
 696              		.loc 1 531 0
 697              		.thumb
 698 0006 274B     		ldr	r3, .L36
 699 0008 264A     		ldr	r2, .L36
 700 000a 1278     		ldrb	r2, [r2]
 701 000c D2B2     		uxtb	r2, r2
 702 000e 42F00402 		orr	r2, r2, #4
 703 0012 D2B2     		uxtb	r2, r2
 704 0014 1A70     		strb	r2, [r3]
 532:.\Generated_Source\PSoC5/cyfitter_cfg.c **** 
 533:.\Generated_Source\PSoC5/cyfitter_cfg.c **** 	{
 534:.\Generated_Source\PSoC5/cyfitter_cfg.c **** 		cfg_dma_init();
 705              		.loc 1 534 0
 706 0016 FFF7FEFF 		bl	cfg_dma_init
 535:.\Generated_Source\PSoC5/cyfitter_cfg.c **** 
 536:.\Generated_Source\PSoC5/cyfitter_cfg.c **** 		/* Enable digital routing */
 537:.\Generated_Source\PSoC5/cyfitter_cfg.c **** 		CY_SET_XTND_REG8((void CYFAR *)CYREG_BCTL0_BANK_CTL, CY_GET_XTND_REG8((void CYFAR *)CYREG_BCTL0_B
 707              		.loc 1 537 0
 708 001a 234B     		ldr	r3, .L36+4
 709 001c 224A     		ldr	r2, .L36+4
 710 001e 1278     		ldrb	r2, [r2]
 711 0020 D2B2     		uxtb	r2, r2
ARM GAS  C:\Users\pfautley\AppData\Local\Temp\ccVq4Bnc.s 			page 23


 712 0022 42F00202 		orr	r2, r2, #2
 713 0026 D2B2     		uxtb	r2, r2
 714 0028 1A70     		strb	r2, [r3]
 538:.\Generated_Source\PSoC5/cyfitter_cfg.c **** 		CY_SET_XTND_REG8((void CYFAR *)CYREG_BCTL1_BANK_CTL, CY_GET_XTND_REG8((void CYFAR *)CYREG_BCTL1_B
 715              		.loc 1 538 0
 716 002a 204B     		ldr	r3, .L36+8
 717 002c 1F4A     		ldr	r2, .L36+8
 718 002e 1278     		ldrb	r2, [r2]
 719 0030 D2B2     		uxtb	r2, r2
 720 0032 42F00202 		orr	r2, r2, #2
 721 0036 D2B2     		uxtb	r2, r2
 722 0038 1A70     		strb	r2, [r3]
 539:.\Generated_Source\PSoC5/cyfitter_cfg.c **** 
 540:.\Generated_Source\PSoC5/cyfitter_cfg.c **** 		/* Enable UDB array */
 541:.\Generated_Source\PSoC5/cyfitter_cfg.c **** 		CY_SET_XTND_REG8((void CYFAR *)CYREG_PM_ACT_CFG0, CY_GET_XTND_REG8((void CYFAR *)CYREG_PM_ACT_CFG
 723              		.loc 1 541 0
 724 003a 1D4B     		ldr	r3, .L36+12
 725 003c 1C4A     		ldr	r2, .L36+12
 726 003e 1278     		ldrb	r2, [r2]
 727 0040 D2B2     		uxtb	r2, r2
 728 0042 42F04002 		orr	r2, r2, #64
 729 0046 D2B2     		uxtb	r2, r2
 730 0048 1A70     		strb	r2, [r3]
 542:.\Generated_Source\PSoC5/cyfitter_cfg.c **** 		CY_SET_XTND_REG8((void CYFAR *)CYREG_PM_AVAIL_CR2, CY_GET_XTND_REG8((void CYFAR *)CYREG_PM_AVAIL_
 731              		.loc 1 542 0
 732 004a 1A4B     		ldr	r3, .L36+16
 733 004c 194A     		ldr	r2, .L36+16
 734 004e 1278     		ldrb	r2, [r2]
 735 0050 D2B2     		uxtb	r2, r2
 736 0052 42F01002 		orr	r2, r2, #16
 737 0056 D2B2     		uxtb	r2, r2
 738 0058 1A70     		strb	r2, [r3]
 543:.\Generated_Source\PSoC5/cyfitter_cfg.c **** 	}
 544:.\Generated_Source\PSoC5/cyfitter_cfg.c **** 
 545:.\Generated_Source\PSoC5/cyfitter_cfg.c **** 	/* Perform second pass device configuration. These items must be configured in specific order afte
 546:.\Generated_Source\PSoC5/cyfitter_cfg.c **** 	CYCONFIGCPY((void CYFAR *)(CYREG_PRT2_DM0), (const void CYFAR *)(BS_IOPINS0_2_VAL), 8u);
 739              		.loc 1 546 0
 740 005a 1748     		ldr	r0, .L36+20
 741 005c 1749     		ldr	r1, .L36+24
 742 005e 0822     		movs	r2, #8
 743 0060 FFF7FEFF 		bl	CYCONFIGCPY
 547:.\Generated_Source\PSoC5/cyfitter_cfg.c **** 	CYCONFIGCPY((void CYFAR *)(CYREG_PRT5_DM0), (const void CYFAR *)(BS_IOPINS0_5_VAL), 8u);
 744              		.loc 1 547 0
 745 0064 1648     		ldr	r0, .L36+28
 746 0066 1749     		ldr	r1, .L36+32
 747 0068 0822     		movs	r2, #8
 748 006a FFF7FEFF 		bl	CYCONFIGCPY
 548:.\Generated_Source\PSoC5/cyfitter_cfg.c **** 
 549:.\Generated_Source\PSoC5/cyfitter_cfg.c **** 	/* Switch Boost to the precision bandgap reference from its internal reference */
 550:.\Generated_Source\PSoC5/cyfitter_cfg.c **** 	CY_SET_REG8((void CYXDATA *)CYREG_BOOST_CR2, (CY_GET_REG8((void CYXDATA *)CYREG_BOOST_CR2) | 0x08u
 749              		.loc 1 550 0
 750 006e 164B     		ldr	r3, .L36+36
 751 0070 154A     		ldr	r2, .L36+36
 752 0072 1278     		ldrb	r2, [r2]
 753 0074 D2B2     		uxtb	r2, r2
 754 0076 42F00802 		orr	r2, r2, #8
 755 007a D2B2     		uxtb	r2, r2
ARM GAS  C:\Users\pfautley\AppData\Local\Temp\ccVq4Bnc.s 			page 24


 756 007c 1A70     		strb	r2, [r3]
 551:.\Generated_Source\PSoC5/cyfitter_cfg.c **** 
 552:.\Generated_Source\PSoC5/cyfitter_cfg.c **** 	/* Set Flash Cycles based on max possible frequency in case a glitch occurs during ClockSetup(). *
 553:.\Generated_Source\PSoC5/cyfitter_cfg.c **** 	CY_SET_XTND_REG8((void CYFAR *)(CYREG_CACHE_CC_CTL), (((CYDEV_INSTRUCT_CACHE_ENABLED) != 0) ? 0x01
 757              		.loc 1 553 0
 758 007e 134B     		ldr	r3, .L36+40
 759 0080 0122     		movs	r2, #1
 760 0082 1A70     		strb	r2, [r3]
 554:.\Generated_Source\PSoC5/cyfitter_cfg.c **** 	/* Setup clocks based on selections from Clock DWR */
 555:.\Generated_Source\PSoC5/cyfitter_cfg.c **** 	ClockSetup();
 761              		.loc 1 555 0
 762 0084 FFF7FEFF 		bl	ClockSetup
 556:.\Generated_Source\PSoC5/cyfitter_cfg.c **** 	/* Set Flash Cycles based on newly configured 24.00MHz Bus Clock. */
 557:.\Generated_Source\PSoC5/cyfitter_cfg.c **** 	CY_SET_XTND_REG8((void CYFAR *)(CYREG_CACHE_CC_CTL), (((CYDEV_INSTRUCT_CACHE_ENABLED) != 0) ? 0x81
 763              		.loc 1 557 0
 764 0088 104B     		ldr	r3, .L36+40
 765 008a 8122     		movs	r2, #129
 766 008c 1A70     		strb	r2, [r3]
 558:.\Generated_Source\PSoC5/cyfitter_cfg.c **** 	CY_SET_XTND_REG8((void CYFAR *)(CYREG_PANTHER_WAITPIPE), 0x01u);
 767              		.loc 1 558 0
 768 008e 104B     		ldr	r3, .L36+44
 769 0090 0122     		movs	r2, #1
 770 0092 1A70     		strb	r2, [r3]
 559:.\Generated_Source\PSoC5/cyfitter_cfg.c **** 
 560:.\Generated_Source\PSoC5/cyfitter_cfg.c **** 	/* Perform basic analog initialization to defaults */
 561:.\Generated_Source\PSoC5/cyfitter_cfg.c **** 	AnalogSetDefault();
 771              		.loc 1 561 0
 772 0094 FFF7FEFF 		bl	AnalogSetDefault
 562:.\Generated_Source\PSoC5/cyfitter_cfg.c **** 
 563:.\Generated_Source\PSoC5/cyfitter_cfg.c **** 	/* Configure alternate active mode */
 564:.\Generated_Source\PSoC5/cyfitter_cfg.c **** 	CYCONFIGCPY((void CYFAR *)CYDEV_PM_STBY_BASE, (const void CYFAR *)CYDEV_PM_ACT_BASE, 14u);
 773              		.loc 1 564 0
 774 0098 0E48     		ldr	r0, .L36+48
 775 009a 0549     		ldr	r1, .L36+12
 776 009c 0E22     		movs	r2, #14
 777 009e FFF7FEFF 		bl	CYCONFIGCPY
 565:.\Generated_Source\PSoC5/cyfitter_cfg.c **** }
 778              		.loc 1 565 0
 779 00a2 80BD     		pop	{r7, pc}
 780              	.L37:
 781              		.align	2
 782              	.L36:
 783 00a4 E8460040 		.word	1073759976
 784 00a8 03500140 		.word	1073827843
 785 00ac 13500140 		.word	1073827859
 786 00b0 A0430040 		.word	1073759136
 787 00b4 C2430040 		.word	1073759170
 788 00b8 22510040 		.word	1073762594
 789 00bc B8050048 		.word	1207961016
 790 00c0 52510040 		.word	1073762642
 791 00c4 C0050048 		.word	1207961024
 792 00c8 22430040 		.word	1073759010
 793 00cc 00480040 		.word	1073760256
 794 00d0 04000840 		.word	1074266116
 795 00d4 B0430040 		.word	1073759152
 796              		.cfi_endproc
 797              	.LFE8:
ARM GAS  C:\Users\pfautley\AppData\Local\Temp\ccVq4Bnc.s 			page 25


 798              		.size	cyfitter_cfg, .-cyfitter_cfg
 799              		.bss
 800              		.align	3
 801              	DMA_ZERO_VAL.4847:
 802 0000 00000000 		.space	4
 803 0004 00000000 		.section	.dma_init,"a",%progbits
 804              		.align	2
 805              		.type	CFG_TD_LIST0.4848, %object
 806              		.size	CFG_TD_LIST0.4848, 264
 807              	CFG_TD_LIST0.4848:
 808 0000 0800     		.short	8
 809 0002 02       		.byte	2
 810 0003 23       		.byte	35
 811 0004 0000     		.short	0
 812 0006 0876     		.short	30216
 813 0008 0800     		.short	8
 814 000a 03       		.byte	3
 815 000b 23       		.byte	35
 816 000c 0000     		.short	0
 817 000e 1076     		.short	30224
 818 0010 0800     		.short	8
 819 0012 04       		.byte	4
 820 0013 23       		.byte	35
 821 0014 0000     		.short	0
 822 0016 2876     		.short	30248
 823 0018 0800     		.short	8
 824 001a 05       		.byte	5
 825 001b 23       		.byte	35
 826 001c 0000     		.short	0
 827 001e 3076     		.short	30256
 828 0020 0500     		.short	5
 829 0022 06       		.byte	6
 830 0023 23       		.byte	35
 831 0024 0000     		.short	0
 832 0026 2070     		.short	28704
 833 0028 0500     		.short	5
 834 002a 07       		.byte	7
 835 002b 23       		.byte	35
 836 002c 0000     		.short	0
 837 002e 3070     		.short	28720
 838 0030 0500     		.short	5
 839 0032 08       		.byte	8
 840 0033 23       		.byte	35
 841 0034 0000     		.short	0
 842 0036 6070     		.short	28768
 843 0038 0500     		.short	5
 844 003a FE       		.byte	-2
 845 003b 23       		.byte	35
 846 003c 0000     		.short	0
 847 003e 7070     		.short	28784
 848 0040 2000     		.short	32
 849 0042 0A       		.byte	10
 850 0043 22       		.byte	34
 851 0044 0000     		.short	0
 852 0046 0051     		.short	20736
 853 0048 2000     		.short	32
 854 004a 0B       		.byte	11
ARM GAS  C:\Users\pfautley\AppData\Local\Temp\ccVq4Bnc.s 			page 26


 855 004b 22       		.byte	34
 856 004c 0000     		.short	0
 857 004e 3051     		.short	20784
 858 0050 1000     		.short	16
 859 0052 0C       		.byte	12
 860 0053 22       		.byte	34
 861 0054 0000     		.short	0
 862 0056 6051     		.short	20832
 863 0058 1000     		.short	16
 864 005a 0D       		.byte	13
 865 005b 22       		.byte	34
 866 005c 0000     		.short	0
 867 005e C051     		.short	20928
 868 0060 1000     		.short	16
 869 0062 FE       		.byte	-2
 870 0063 22       		.byte	34
 871 0064 0000     		.short	0
 872 0066 F051     		.short	20976
 873 0068 FF0F     		.short	4095
 874 006a 0F       		.byte	15
 875 006b 22       		.byte	34
 876 006c 0000     		.short	0
 877 006e 0000     		.short	0
 878 0070 0100     		.short	1
 879 0072 10       		.byte	16
 880 0073 22       		.byte	34
 881 0074 0000     		.short	0
 882 0076 800F     		.short	3968
 883 0078 0004     		.short	1024
 884 007a 11       		.byte	17
 885 007b 22       		.byte	34
 886 007c 0000     		.short	0
 887 007e 0014     		.short	5120
 888 0080 000A     		.short	2560
 889 0082 12       		.byte	18
 890 0083 22       		.byte	34
 891 0084 0000     		.short	0
 892 0086 0040     		.short	16384
 893 0088 8000     		.short	128
 894 008a 13       		.byte	19
 895 008b 22       		.byte	34
 896 008c 0000     		.short	0
 897 008e 004C     		.short	19456
 898 0090 1000     		.short	16
 899 0092 FE       		.byte	-2
 900 0093 22       		.byte	34
 901 0094 0000     		.short	0
 902 0096 0050     		.short	20480
 903 0098 0700     		.short	7
 904 009a 15       		.byte	21
 905 009b 23       		.byte	35
 906 009c 0000     		.short	0
 907 009e 2852     		.short	21032
 908 00a0 2000     		.short	32
 909 00a2 FE       		.byte	-2
 910 00a3 23       		.byte	35
 911 00a4 0000     		.short	0
ARM GAS  C:\Users\pfautley\AppData\Local\Temp\ccVq4Bnc.s 			page 27


 912 00a6 7065     		.short	25968
 913 00a8 8000     		.short	128
 914 00aa 17       		.byte	23
 915 00ab 23       		.byte	35
 916 00ac 0000     		.short	0
 917 00ae 0018     		.short	6144
 918 00b0 8000     		.short	128
 919 00b2 18       		.byte	24
 920 00b3 23       		.byte	35
 921 00b4 0000     		.short	0
 922 00b6 8018     		.short	6272
 923 00b8 8000     		.short	128
 924 00ba 19       		.byte	25
 925 00bb 23       		.byte	35
 926 00bc 0000     		.short	0
 927 00be 001A     		.short	6656
 928 00c0 8000     		.short	128
 929 00c2 1A       		.byte	26
 930 00c3 23       		.byte	35
 931 00c4 0000     		.short	0
 932 00c6 801A     		.short	6784
 933 00c8 1000     		.short	16
 934 00ca 1B       		.byte	27
 935 00cb 23       		.byte	35
 936 00cc 0000     		.short	0
 937 00ce 1050     		.short	20496
 938 00d0 8000     		.short	128
 939 00d2 1C       		.byte	28
 940 00d3 23       		.byte	35
 941 00d4 0000     		.short	0
 942 00d6 004D     		.short	19712
 943 00d8 8000     		.short	128
 944 00da 1D       		.byte	29
 945 00db 23       		.byte	35
 946 00dc 0000     		.short	0
 947 00de 804D     		.short	19840
 948 00e0 8000     		.short	128
 949 00e2 1E       		.byte	30
 950 00e3 23       		.byte	35
 951 00e4 0000     		.short	0
 952 00e6 804C     		.short	19584
 953 00e8 8000     		.short	128
 954 00ea 1F       		.byte	31
 955 00eb 23       		.byte	35
 956 00ec 0000     		.short	0
 957 00ee 001B     		.short	6912
 958 00f0 8000     		.short	128
 959 00f2 20       		.byte	32
 960 00f3 23       		.byte	35
 961 00f4 0000     		.short	0
 962 00f6 801B     		.short	7040
 963 00f8 8000     		.short	128
 964 00fa 21       		.byte	33
 965 00fb 23       		.byte	35
 966 00fc 0000     		.short	0
 967 00fe 0019     		.short	6400
 968 0100 8000     		.short	128
ARM GAS  C:\Users\pfautley\AppData\Local\Temp\ccVq4Bnc.s 			page 28


 969 0102 FE       		.byte	-2
 970 0103 23       		.byte	35
 971 0104 0000     		.short	0
 972 0106 8019     		.short	6528
 973              		.section	.rodata
 974              		.align	2
 975              		.type	CFG_TD_ADDR0.4849, %object
 976              		.size	CFG_TD_ADDR0.4849, 132
 977              	CFG_TD_ADDR0.4849:
 978 0000 28010000 		.word	CH1_ADDR_DATA0.4842
 979 0004 20010000 		.word	CH2_ADDR_DATA0.4843
 980 0008 18010000 		.word	CH5_ADDR_DATA0.4844
 981 000c 10010000 		.word	CH6_ADDR_DATA0.4845
 982 0010 08010000 		.word	DMA_TD_START_CMD.4846
 983 0014 08010000 		.word	DMA_TD_START_CMD.4846
 984 0018 08010000 		.word	DMA_TD_START_CMD.4846
 985 001c 08010000 		.word	DMA_TD_START_CMD.4846
 986 0020 00000000 		.word	DMA_ZERO_VAL.4847
 987 0024 00000000 		.word	DMA_ZERO_VAL.4847
 988 0028 00000000 		.word	DMA_ZERO_VAL.4847
 989 002c 00000000 		.word	DMA_ZERO_VAL.4847
 990 0030 00000000 		.word	DMA_ZERO_VAL.4847
 991 0034 00000000 		.word	DMA_ZERO_VAL.4847
 992 0038 00000000 		.word	DMA_ZERO_VAL.4847
 993 003c 00000000 		.word	DMA_ZERO_VAL.4847
 994 0040 00000000 		.word	DMA_ZERO_VAL.4847
 995 0044 00000000 		.word	DMA_ZERO_VAL.4847
 996 0048 00000000 		.word	DMA_ZERO_VAL.4847
 997 004c 00000048 		.word	1207959552
 998 0050 08020048 		.word	1207960072
 999 0054 08000048 		.word	1207959560
 1000 0058 88000048 		.word	1207959688
 1001 005c 08010048 		.word	1207959816
 1002 0060 88010048 		.word	1207959944
 1003 0064 28020048 		.word	1207960104
 1004 0068 38020048 		.word	1207960120
 1005 006c B8020048 		.word	1207960248
 1006 0070 38030048 		.word	1207960376
 1007 0074 B8030048 		.word	1207960504
 1008 0078 38040048 		.word	1207960632
 1009 007c B8040048 		.word	1207960760
 1010 0080 38050048 		.word	1207960888
 1011              		.section	.dma_init
 1012              		.align	2
 1013              		.type	DMA_TD_START_CMD.4846, %object
 1014              		.size	DMA_TD_START_CMD.4846, 5
 1015              	DMA_TD_START_CMD.4846:
 1016 0108 01       		.byte	1
 1017 0109 00       		.byte	0
 1018 010a 00       		.byte	0
 1019 010b 00       		.byte	0
 1020 010c 01       		.byte	1
 1021 010d 000000   		.align	2
 1022              		.type	CH6_ADDR_DATA0.4845, %object
 1023              		.size	CH6_ADDR_DATA0.4845, 8
 1024              	CH6_ADDR_DATA0.4845:
 1025 0110 01       		.byte	1
ARM GAS  C:\Users\pfautley\AppData\Local\Temp\ccVq4Bnc.s 			page 29


 1026 0111 00       		.byte	0
 1027 0112 00       		.byte	0
 1028 0113 00       		.byte	0
 1029 0114 00       		.byte	0
 1030 0115 48       		.byte	72
 1031 0116 01       		.byte	1
 1032 0117 40       		.byte	64
 1033              		.align	2
 1034              		.type	CH5_ADDR_DATA0.4844, %object
 1035              		.size	CH5_ADDR_DATA0.4844, 8
 1036              	CH5_ADDR_DATA0.4844:
 1037 0118 01       		.byte	1
 1038 0119 00       		.byte	0
 1039 011a 00       		.byte	0
 1040 011b 00       		.byte	0
 1041 011c 00       		.byte	0
 1042 011d 48       		.byte	72
 1043 011e 00       		.byte	0
 1044 011f 40       		.byte	64
 1045              		.align	2
 1046              		.type	CH2_ADDR_DATA0.4843, %object
 1047              		.size	CH2_ADDR_DATA0.4843, 8
 1048              	CH2_ADDR_DATA0.4843:
 1049 0120 01       		.byte	1
 1050 0121 00       		.byte	0
 1051 0122 00       		.byte	0
 1052 0123 00       		.byte	0
 1053 0124 00       		.byte	0
 1054 0125 20       		.byte	32
 1055 0126 01       		.byte	1
 1056 0127 40       		.byte	64
 1057              		.align	2
 1058              		.type	CH1_ADDR_DATA0.4842, %object
 1059              		.size	CH1_ADDR_DATA0.4842, 8
 1060              	CH1_ADDR_DATA0.4842:
 1061 0128 01       		.byte	1
 1062 0129 00       		.byte	0
 1063 012a 00       		.byte	0
 1064 012b 00       		.byte	0
 1065 012c 00       		.byte	0
 1066 012d 20       		.byte	32
 1067 012e 00       		.byte	0
 1068 012f 40       		.byte	64
 1069              		.text
 1070              	.Letext0:
 1071              		.file 2 "c:\\program files\\cypress\\psoc creator\\3.1\\psoc creator\\import\\gnu_cs\\arm\\4.8.4\\
 1072              		.file 3 ".\\Generated_Source\\PSoC5/cytypes.h"