ARM GAS  C:\Users\pfautley\AppData\Local\Temp\ccifUTKT.s 			page 1


   1              		.syntax unified
   2              		.cpu cortex-m3
   3              		.fpu softvfp
   4              		.eabi_attribute 20, 1
   5              		.eabi_attribute 21, 1
   6              		.eabi_attribute 23, 3
   7              		.eabi_attribute 24, 1
   8              		.eabi_attribute 25, 1
   9              		.eabi_attribute 26, 1
  10              		.eabi_attribute 30, 6
  11              		.eabi_attribute 34, 1
  12              		.eabi_attribute 18, 4
  13              		.thumb
  14              		.file	"cyfitter_cfg.c"
  15              		.text
  16              	.Ltext0:
  17              		.cfi_sections	.debug_frame
  18              		.section	.text.CYMEMZERO,"ax",%progbits
  19              		.align	2
  20              		.thumb
  21              		.thumb_func
  22              		.type	CYMEMZERO, %function
  23              	CYMEMZERO:
  24              	.LFB0:
  25              		.file 1 ".\\Generated_Source\\PSoC5\\cyfitter_cfg.c"
   1:.\Generated_Source\PSoC5/cyfitter_cfg.c **** /*******************************************************************************
   2:.\Generated_Source\PSoC5/cyfitter_cfg.c **** * FILENAME: cyfitter_cfg.c
   3:.\Generated_Source\PSoC5/cyfitter_cfg.c **** * PSoC Creator  3.1 SP2
   4:.\Generated_Source\PSoC5/cyfitter_cfg.c **** *
   5:.\Generated_Source\PSoC5/cyfitter_cfg.c **** * Description:
   6:.\Generated_Source\PSoC5/cyfitter_cfg.c **** * This file is automatically generated by PSoC Creator with device 
   7:.\Generated_Source\PSoC5/cyfitter_cfg.c **** * initialization code.  Except for the user defined sections in
   8:.\Generated_Source\PSoC5/cyfitter_cfg.c **** * CyClockStartupError(), this file should not be modified.
   9:.\Generated_Source\PSoC5/cyfitter_cfg.c **** *
  10:.\Generated_Source\PSoC5/cyfitter_cfg.c **** ********************************************************************************
  11:.\Generated_Source\PSoC5/cyfitter_cfg.c **** * Copyright 2013, Cypress Semiconductor Corporation.  All rights reserved.
  12:.\Generated_Source\PSoC5/cyfitter_cfg.c **** * You may use this file only in accordance with the license, terms, conditions, 
  13:.\Generated_Source\PSoC5/cyfitter_cfg.c **** * disclaimers, and limitations in the end user license agreement accompanying 
  14:.\Generated_Source\PSoC5/cyfitter_cfg.c **** * the software package with which this file was provided.
  15:.\Generated_Source\PSoC5/cyfitter_cfg.c **** ********************************************************************************/
  16:.\Generated_Source\PSoC5/cyfitter_cfg.c **** 
  17:.\Generated_Source\PSoC5/cyfitter_cfg.c **** #include <string.h>
  18:.\Generated_Source\PSoC5/cyfitter_cfg.c **** #include <cytypes.h>
  19:.\Generated_Source\PSoC5/cyfitter_cfg.c **** #include <cydevice_trm.h>
  20:.\Generated_Source\PSoC5/cyfitter_cfg.c **** #include <cyfitter.h>
  21:.\Generated_Source\PSoC5/cyfitter_cfg.c **** #include <CyLib.h>
  22:.\Generated_Source\PSoC5/cyfitter_cfg.c **** #include <cyfitter_cfg.h>
  23:.\Generated_Source\PSoC5/cyfitter_cfg.c **** 
  24:.\Generated_Source\PSoC5/cyfitter_cfg.c **** #define CY_NEED_CYCLOCKSTARTUPERROR 1
  25:.\Generated_Source\PSoC5/cyfitter_cfg.c **** 
  26:.\Generated_Source\PSoC5/cyfitter_cfg.c **** 
  27:.\Generated_Source\PSoC5/cyfitter_cfg.c **** #if defined(__GNUC__) || defined(__ARMCC_VERSION)
  28:.\Generated_Source\PSoC5/cyfitter_cfg.c ****     #define CYPACKED 
  29:.\Generated_Source\PSoC5/cyfitter_cfg.c ****     #define CYPACKED_ATTR __attribute__ ((packed))
  30:.\Generated_Source\PSoC5/cyfitter_cfg.c ****     #define CYALIGNED __attribute__ ((aligned))
  31:.\Generated_Source\PSoC5/cyfitter_cfg.c ****     #define CY_CFG_UNUSED __attribute__ ((unused))
  32:.\Generated_Source\PSoC5/cyfitter_cfg.c ****     #define CY_CFG_SECTION __attribute__ ((section(".psocinit")))
ARM GAS  C:\Users\pfautley\AppData\Local\Temp\ccifUTKT.s 			page 2


  33:.\Generated_Source\PSoC5/cyfitter_cfg.c ****     
  34:.\Generated_Source\PSoC5/cyfitter_cfg.c ****     #if defined(__ARMCC_VERSION)
  35:.\Generated_Source\PSoC5/cyfitter_cfg.c ****         #define CY_CFG_MEMORY_BARRIER() __memory_changed()
  36:.\Generated_Source\PSoC5/cyfitter_cfg.c ****     #else
  37:.\Generated_Source\PSoC5/cyfitter_cfg.c ****         #define CY_CFG_MEMORY_BARRIER() __sync_synchronize()
  38:.\Generated_Source\PSoC5/cyfitter_cfg.c ****     #endif
  39:.\Generated_Source\PSoC5/cyfitter_cfg.c ****     
  40:.\Generated_Source\PSoC5/cyfitter_cfg.c **** #elif defined(__ICCARM__)
  41:.\Generated_Source\PSoC5/cyfitter_cfg.c ****     #include <intrinsics.h>
  42:.\Generated_Source\PSoC5/cyfitter_cfg.c **** 
  43:.\Generated_Source\PSoC5/cyfitter_cfg.c ****     #define CYPACKED __packed
  44:.\Generated_Source\PSoC5/cyfitter_cfg.c ****     #define CYPACKED_ATTR 
  45:.\Generated_Source\PSoC5/cyfitter_cfg.c ****     #define CYALIGNED _Pragma("data_alignment=4")
  46:.\Generated_Source\PSoC5/cyfitter_cfg.c ****     #define CY_CFG_UNUSED _Pragma("diag_suppress=Pe177")
  47:.\Generated_Source\PSoC5/cyfitter_cfg.c ****     #define CY_CFG_SECTION _Pragma("location=\".psocinit\"")
  48:.\Generated_Source\PSoC5/cyfitter_cfg.c ****     
  49:.\Generated_Source\PSoC5/cyfitter_cfg.c ****     #define CY_CFG_MEMORY_BARRIER() __DMB()
  50:.\Generated_Source\PSoC5/cyfitter_cfg.c ****     
  51:.\Generated_Source\PSoC5/cyfitter_cfg.c **** #else
  52:.\Generated_Source\PSoC5/cyfitter_cfg.c ****     #error Unsupported toolchain
  53:.\Generated_Source\PSoC5/cyfitter_cfg.c **** #endif
  54:.\Generated_Source\PSoC5/cyfitter_cfg.c **** 
  55:.\Generated_Source\PSoC5/cyfitter_cfg.c **** 
  56:.\Generated_Source\PSoC5/cyfitter_cfg.c **** CY_CFG_UNUSED
  57:.\Generated_Source\PSoC5/cyfitter_cfg.c **** static void CYMEMZERO(void *s, size_t n);
  58:.\Generated_Source\PSoC5/cyfitter_cfg.c **** CY_CFG_UNUSED
  59:.\Generated_Source\PSoC5/cyfitter_cfg.c **** static void CYMEMZERO(void *s, size_t n)
  60:.\Generated_Source\PSoC5/cyfitter_cfg.c **** {
  26              		.loc 1 60 0
  27              		.cfi_startproc
  28              		@ args = 0, pretend = 0, frame = 8
  29              		@ frame_needed = 1, uses_anonymous_args = 0
  30 0000 80B5     		push	{r7, lr}
  31              		.cfi_def_cfa_offset 8
  32              		.cfi_offset 7, -8
  33              		.cfi_offset 14, -4
  34 0002 82B0     		sub	sp, sp, #8
  35              		.cfi_def_cfa_offset 16
  36 0004 00AF     		add	r7, sp, #0
  37              		.cfi_def_cfa_register 7
  38 0006 7860     		str	r0, [r7, #4]
  39 0008 3960     		str	r1, [r7]
  61:.\Generated_Source\PSoC5/cyfitter_cfg.c **** 	(void)memset(s, 0, n);
  40              		.loc 1 61 0
  41 000a 7868     		ldr	r0, [r7, #4]
  42 000c 0021     		movs	r1, #0
  43 000e 3A68     		ldr	r2, [r7]
  44 0010 FFF7FEFF 		bl	memset
  62:.\Generated_Source\PSoC5/cyfitter_cfg.c **** }
  45              		.loc 1 62 0
  46 0014 0837     		adds	r7, r7, #8
  47 0016 BD46     		mov	sp, r7
  48              		@ sp needed
  49 0018 80BD     		pop	{r7, pc}
  50              		.cfi_endproc
  51              	.LFE0:
  52              		.size	CYMEMZERO, .-CYMEMZERO
ARM GAS  C:\Users\pfautley\AppData\Local\Temp\ccifUTKT.s 			page 3


  53 001a 00BF     		.section	.text.CYCONFIGCPY,"ax",%progbits
  54              		.align	2
  55              		.thumb
  56              		.thumb_func
  57              		.type	CYCONFIGCPY, %function
  58              	CYCONFIGCPY:
  59              	.LFB1:
  63:.\Generated_Source\PSoC5/cyfitter_cfg.c **** CY_CFG_UNUSED
  64:.\Generated_Source\PSoC5/cyfitter_cfg.c **** static void CYCONFIGCPY(void *dest, const void *src, size_t n);
  65:.\Generated_Source\PSoC5/cyfitter_cfg.c **** CY_CFG_UNUSED
  66:.\Generated_Source\PSoC5/cyfitter_cfg.c **** static void CYCONFIGCPY(void *dest, const void *src, size_t n)
  67:.\Generated_Source\PSoC5/cyfitter_cfg.c **** {
  60              		.loc 1 67 0
  61              		.cfi_startproc
  62              		@ args = 0, pretend = 0, frame = 16
  63              		@ frame_needed = 1, uses_anonymous_args = 0
  64 0000 80B5     		push	{r7, lr}
  65              		.cfi_def_cfa_offset 8
  66              		.cfi_offset 7, -8
  67              		.cfi_offset 14, -4
  68 0002 84B0     		sub	sp, sp, #16
  69              		.cfi_def_cfa_offset 24
  70 0004 00AF     		add	r7, sp, #0
  71              		.cfi_def_cfa_register 7
  72 0006 F860     		str	r0, [r7, #12]
  73 0008 B960     		str	r1, [r7, #8]
  74 000a 7A60     		str	r2, [r7, #4]
  68:.\Generated_Source\PSoC5/cyfitter_cfg.c **** 	(void)memcpy(dest, src, n);
  75              		.loc 1 68 0
  76 000c F868     		ldr	r0, [r7, #12]
  77 000e B968     		ldr	r1, [r7, #8]
  78 0010 7A68     		ldr	r2, [r7, #4]
  79 0012 FFF7FEFF 		bl	memcpy
  69:.\Generated_Source\PSoC5/cyfitter_cfg.c **** }
  80              		.loc 1 69 0
  81 0016 1037     		adds	r7, r7, #16
  82 0018 BD46     		mov	sp, r7
  83              		@ sp needed
  84 001a 80BD     		pop	{r7, pc}
  85              		.cfi_endproc
  86              	.LFE1:
  87              		.size	CYCONFIGCPY, .-CYCONFIGCPY
  88              		.section	.text.CYCONFIGCPYCODE,"ax",%progbits
  89              		.align	2
  90              		.thumb
  91              		.thumb_func
  92              		.type	CYCONFIGCPYCODE, %function
  93              	CYCONFIGCPYCODE:
  94              	.LFB2:
  70:.\Generated_Source\PSoC5/cyfitter_cfg.c **** CY_CFG_UNUSED
  71:.\Generated_Source\PSoC5/cyfitter_cfg.c **** static void CYCONFIGCPYCODE(void *dest, const void *src, size_t n);
  72:.\Generated_Source\PSoC5/cyfitter_cfg.c **** CY_CFG_UNUSED
  73:.\Generated_Source\PSoC5/cyfitter_cfg.c **** static void CYCONFIGCPYCODE(void *dest, const void *src, size_t n)
  74:.\Generated_Source\PSoC5/cyfitter_cfg.c **** {
  95              		.loc 1 74 0
  96              		.cfi_startproc
  97              		@ args = 0, pretend = 0, frame = 16
ARM GAS  C:\Users\pfautley\AppData\Local\Temp\ccifUTKT.s 			page 4


  98              		@ frame_needed = 1, uses_anonymous_args = 0
  99 0000 80B5     		push	{r7, lr}
 100              		.cfi_def_cfa_offset 8
 101              		.cfi_offset 7, -8
 102              		.cfi_offset 14, -4
 103 0002 84B0     		sub	sp, sp, #16
 104              		.cfi_def_cfa_offset 24
 105 0004 00AF     		add	r7, sp, #0
 106              		.cfi_def_cfa_register 7
 107 0006 F860     		str	r0, [r7, #12]
 108 0008 B960     		str	r1, [r7, #8]
 109 000a 7A60     		str	r2, [r7, #4]
  75:.\Generated_Source\PSoC5/cyfitter_cfg.c **** 	(void)memcpy(dest, src, n);
 110              		.loc 1 75 0
 111 000c F868     		ldr	r0, [r7, #12]
 112 000e B968     		ldr	r1, [r7, #8]
 113 0010 7A68     		ldr	r2, [r7, #4]
 114 0012 FFF7FEFF 		bl	memcpy
  76:.\Generated_Source\PSoC5/cyfitter_cfg.c **** }
 115              		.loc 1 76 0
 116 0016 1037     		adds	r7, r7, #16
 117 0018 BD46     		mov	sp, r7
 118              		@ sp needed
 119 001a 80BD     		pop	{r7, pc}
 120              		.cfi_endproc
 121              	.LFE2:
 122              		.size	CYCONFIGCPYCODE, .-CYCONFIGCPYCODE
 123              		.section	.text.CyClockStartupError,"ax",%progbits
 124              		.align	2
 125              		.thumb
 126              		.thumb_func
 127              		.type	CyClockStartupError, %function
 128              	CyClockStartupError:
 129              	.LFB3:
  77:.\Generated_Source\PSoC5/cyfitter_cfg.c **** 
  78:.\Generated_Source\PSoC5/cyfitter_cfg.c **** 
  79:.\Generated_Source\PSoC5/cyfitter_cfg.c **** 
  80:.\Generated_Source\PSoC5/cyfitter_cfg.c **** /* Clock startup error codes                                                   */
  81:.\Generated_Source\PSoC5/cyfitter_cfg.c **** #define CYCLOCKSTART_NO_ERROR    0u
  82:.\Generated_Source\PSoC5/cyfitter_cfg.c **** #define CYCLOCKSTART_XTAL_ERROR  1u
  83:.\Generated_Source\PSoC5/cyfitter_cfg.c **** #define CYCLOCKSTART_32KHZ_ERROR 2u
  84:.\Generated_Source\PSoC5/cyfitter_cfg.c **** #define CYCLOCKSTART_PLL_ERROR   3u
  85:.\Generated_Source\PSoC5/cyfitter_cfg.c **** 
  86:.\Generated_Source\PSoC5/cyfitter_cfg.c **** #ifdef CY_NEED_CYCLOCKSTARTUPERROR
  87:.\Generated_Source\PSoC5/cyfitter_cfg.c **** /*******************************************************************************
  88:.\Generated_Source\PSoC5/cyfitter_cfg.c **** * Function Name: CyClockStartupError
  89:.\Generated_Source\PSoC5/cyfitter_cfg.c **** ********************************************************************************
  90:.\Generated_Source\PSoC5/cyfitter_cfg.c **** * Summary:
  91:.\Generated_Source\PSoC5/cyfitter_cfg.c **** *  If an error is encountered during clock configuration (crystal startup error,
  92:.\Generated_Source\PSoC5/cyfitter_cfg.c **** *  PLL lock error, etc.), the system will end up here.  Unless reimplemented by
  93:.\Generated_Source\PSoC5/cyfitter_cfg.c **** *  the customer, this function will stop in an infinite loop.
  94:.\Generated_Source\PSoC5/cyfitter_cfg.c **** *
  95:.\Generated_Source\PSoC5/cyfitter_cfg.c **** * Parameters:
  96:.\Generated_Source\PSoC5/cyfitter_cfg.c **** *   void
  97:.\Generated_Source\PSoC5/cyfitter_cfg.c **** *
  98:.\Generated_Source\PSoC5/cyfitter_cfg.c **** * Return:
  99:.\Generated_Source\PSoC5/cyfitter_cfg.c **** *   void
ARM GAS  C:\Users\pfautley\AppData\Local\Temp\ccifUTKT.s 			page 5


 100:.\Generated_Source\PSoC5/cyfitter_cfg.c **** *
 101:.\Generated_Source\PSoC5/cyfitter_cfg.c **** *******************************************************************************/
 102:.\Generated_Source\PSoC5/cyfitter_cfg.c **** CY_CFG_UNUSED
 103:.\Generated_Source\PSoC5/cyfitter_cfg.c **** static void CyClockStartupError(uint8 errorCode);
 104:.\Generated_Source\PSoC5/cyfitter_cfg.c **** CY_CFG_UNUSED
 105:.\Generated_Source\PSoC5/cyfitter_cfg.c **** static void CyClockStartupError(uint8 errorCode)
 106:.\Generated_Source\PSoC5/cyfitter_cfg.c **** {
 130              		.loc 1 106 0
 131              		.cfi_startproc
 132              		@ args = 0, pretend = 0, frame = 8
 133              		@ frame_needed = 1, uses_anonymous_args = 0
 134              		@ link register save eliminated.
 135 0000 80B4     		push	{r7}
 136              		.cfi_def_cfa_offset 4
 137              		.cfi_offset 7, -4
 138 0002 83B0     		sub	sp, sp, #12
 139              		.cfi_def_cfa_offset 16
 140 0004 00AF     		add	r7, sp, #0
 141              		.cfi_def_cfa_register 7
 142 0006 0346     		mov	r3, r0
 143 0008 FB71     		strb	r3, [r7, #7]
 144              	.L5:
 107:.\Generated_Source\PSoC5/cyfitter_cfg.c ****     /* To remove the compiler warning if errorCode not used.                */
 108:.\Generated_Source\PSoC5/cyfitter_cfg.c ****     errorCode = errorCode;
 109:.\Generated_Source\PSoC5/cyfitter_cfg.c **** 
 110:.\Generated_Source\PSoC5/cyfitter_cfg.c ****     /* `#START CyClockStartupError` */
 111:.\Generated_Source\PSoC5/cyfitter_cfg.c **** 
 112:.\Generated_Source\PSoC5/cyfitter_cfg.c ****     /* If we have a clock startup error (bad MHz crystal, PLL lock, etc.),  */
 113:.\Generated_Source\PSoC5/cyfitter_cfg.c ****     /* we will end up here to allow the customer to implement something to  */
 114:.\Generated_Source\PSoC5/cyfitter_cfg.c ****     /* deal with the clock condition.                                       */
 115:.\Generated_Source\PSoC5/cyfitter_cfg.c **** 
 116:.\Generated_Source\PSoC5/cyfitter_cfg.c ****     /* `#END` */
 117:.\Generated_Source\PSoC5/cyfitter_cfg.c **** 
 118:.\Generated_Source\PSoC5/cyfitter_cfg.c ****     /* If nothing else, stop here since the clocks have not started         */
 119:.\Generated_Source\PSoC5/cyfitter_cfg.c ****     /* correctly.                                                           */
 120:.\Generated_Source\PSoC5/cyfitter_cfg.c ****     while(1) {}
 145              		.loc 1 120 0 discriminator 1
 146 000a FEE7     		b	.L5
 147              		.cfi_endproc
 148              	.LFE3:
 149              		.size	CyClockStartupError, .-CyClockStartupError
 150              		.section	.text.cfg_write_bytes32,"ax",%progbits
 151              		.align	2
 152              		.thumb
 153              		.thumb_func
 154              		.type	cfg_write_bytes32, %function
 155              	cfg_write_bytes32:
 156              	.LFB4:
 121:.\Generated_Source\PSoC5/cyfitter_cfg.c **** }
 122:.\Generated_Source\PSoC5/cyfitter_cfg.c **** #endif
 123:.\Generated_Source\PSoC5/cyfitter_cfg.c **** 
 124:.\Generated_Source\PSoC5/cyfitter_cfg.c **** #define CY_CFG_BASE_ADDR_COUNT 35u
 125:.\Generated_Source\PSoC5/cyfitter_cfg.c **** CYPACKED typedef struct
 126:.\Generated_Source\PSoC5/cyfitter_cfg.c **** {
 127:.\Generated_Source\PSoC5/cyfitter_cfg.c **** 	uint8 offset;
 128:.\Generated_Source\PSoC5/cyfitter_cfg.c **** 	uint8 value;
 129:.\Generated_Source\PSoC5/cyfitter_cfg.c **** } CYPACKED_ATTR cy_cfg_addrvalue_t;
ARM GAS  C:\Users\pfautley\AppData\Local\Temp\ccifUTKT.s 			page 6


 130:.\Generated_Source\PSoC5/cyfitter_cfg.c **** 
 131:.\Generated_Source\PSoC5/cyfitter_cfg.c **** #define cy_cfg_addr_table ((const uint32 CYFAR *)0x48000000u)
 132:.\Generated_Source\PSoC5/cyfitter_cfg.c **** #define cy_cfg_data_table ((const cy_cfg_addrvalue_t CYFAR *)0x4800008Cu)
 133:.\Generated_Source\PSoC5/cyfitter_cfg.c **** 
 134:.\Generated_Source\PSoC5/cyfitter_cfg.c **** /* UDB_1_0_0_CONFIG Address: CYDEV_UCFG_B1_P2_U0_BASE Size (bytes): 128 */
 135:.\Generated_Source\PSoC5/cyfitter_cfg.c **** #define BS_UDB_1_0_0_CONFIG_VAL ((const uint8 CYFAR *)0x480008BCu)
 136:.\Generated_Source\PSoC5/cyfitter_cfg.c **** 
 137:.\Generated_Source\PSoC5/cyfitter_cfg.c **** /* IOPINS0_0 Address: CYREG_PRT0_DM0 Size (bytes): 8 */
 138:.\Generated_Source\PSoC5/cyfitter_cfg.c **** #define BS_IOPINS0_0_VAL ((const uint8 CYFAR *)0x4800093Cu)
 139:.\Generated_Source\PSoC5/cyfitter_cfg.c **** 
 140:.\Generated_Source\PSoC5/cyfitter_cfg.c **** /* IOPINS0_8 Address: CYREG_PRT15_DR Size (bytes): 10 */
 141:.\Generated_Source\PSoC5/cyfitter_cfg.c **** #define BS_IOPINS0_8_VAL ((const uint8 CYFAR *)0x48000944u)
 142:.\Generated_Source\PSoC5/cyfitter_cfg.c **** 
 143:.\Generated_Source\PSoC5/cyfitter_cfg.c **** /* IOPINS0_1 Address: CYREG_PRT1_DR Size (bytes): 10 */
 144:.\Generated_Source\PSoC5/cyfitter_cfg.c **** #define BS_IOPINS0_1_VAL ((const uint8 CYFAR *)0x48000950u)
 145:.\Generated_Source\PSoC5/cyfitter_cfg.c **** 
 146:.\Generated_Source\PSoC5/cyfitter_cfg.c **** /* IOPINS0_2 Address: CYREG_PRT2_DM0 Size (bytes): 8 */
 147:.\Generated_Source\PSoC5/cyfitter_cfg.c **** #define BS_IOPINS0_2_VAL ((const uint8 CYFAR *)0x4800095Cu)
 148:.\Generated_Source\PSoC5/cyfitter_cfg.c **** 
 149:.\Generated_Source\PSoC5/cyfitter_cfg.c **** /* IOPINS0_3 Address: CYREG_PRT3_DM0 Size (bytes): 8 */
 150:.\Generated_Source\PSoC5/cyfitter_cfg.c **** #define BS_IOPINS0_3_VAL ((const uint8 CYFAR *)0x48000964u)
 151:.\Generated_Source\PSoC5/cyfitter_cfg.c **** 
 152:.\Generated_Source\PSoC5/cyfitter_cfg.c **** /* IOPINS0_4 Address: CYREG_PRT4_DM0 Size (bytes): 8 */
 153:.\Generated_Source\PSoC5/cyfitter_cfg.c **** #define BS_IOPINS0_4_VAL ((const uint8 CYFAR *)0x4800096Cu)
 154:.\Generated_Source\PSoC5/cyfitter_cfg.c **** 
 155:.\Generated_Source\PSoC5/cyfitter_cfg.c **** /* IOPINS0_5 Address: CYREG_PRT5_DM0 Size (bytes): 8 */
 156:.\Generated_Source\PSoC5/cyfitter_cfg.c **** #define BS_IOPINS0_5_VAL ((const uint8 CYFAR *)0x48000974u)
 157:.\Generated_Source\PSoC5/cyfitter_cfg.c **** 
 158:.\Generated_Source\PSoC5/cyfitter_cfg.c **** 
 159:.\Generated_Source\PSoC5/cyfitter_cfg.c **** /*******************************************************************************
 160:.\Generated_Source\PSoC5/cyfitter_cfg.c **** * Function Name: cfg_write_bytes32
 161:.\Generated_Source\PSoC5/cyfitter_cfg.c **** ********************************************************************************
 162:.\Generated_Source\PSoC5/cyfitter_cfg.c **** * Summary:
 163:.\Generated_Source\PSoC5/cyfitter_cfg.c **** *  This function is used for setting up the chip configuration areas that
 164:.\Generated_Source\PSoC5/cyfitter_cfg.c **** *  contain relatively sparse data.
 165:.\Generated_Source\PSoC5/cyfitter_cfg.c **** *
 166:.\Generated_Source\PSoC5/cyfitter_cfg.c **** * Parameters:
 167:.\Generated_Source\PSoC5/cyfitter_cfg.c **** *   void
 168:.\Generated_Source\PSoC5/cyfitter_cfg.c **** *
 169:.\Generated_Source\PSoC5/cyfitter_cfg.c **** * Return:
 170:.\Generated_Source\PSoC5/cyfitter_cfg.c **** *   void
 171:.\Generated_Source\PSoC5/cyfitter_cfg.c **** *
 172:.\Generated_Source\PSoC5/cyfitter_cfg.c **** *******************************************************************************/
 173:.\Generated_Source\PSoC5/cyfitter_cfg.c **** static void cfg_write_bytes32(const uint32 addr_table[], const cy_cfg_addrvalue_t data_table[]);
 174:.\Generated_Source\PSoC5/cyfitter_cfg.c **** static void cfg_write_bytes32(const uint32 addr_table[], const cy_cfg_addrvalue_t data_table[])
 175:.\Generated_Source\PSoC5/cyfitter_cfg.c **** {
 157              		.loc 1 175 0
 158              		.cfi_startproc
 159              		@ args = 0, pretend = 0, frame = 24
 160              		@ frame_needed = 1, uses_anonymous_args = 0
 161              		@ link register save eliminated.
 162 0000 80B4     		push	{r7}
 163              		.cfi_def_cfa_offset 4
 164              		.cfi_offset 7, -4
 165 0002 87B0     		sub	sp, sp, #28
 166              		.cfi_def_cfa_offset 32
 167 0004 00AF     		add	r7, sp, #0
ARM GAS  C:\Users\pfautley\AppData\Local\Temp\ccifUTKT.s 			page 7


 168              		.cfi_def_cfa_register 7
 169 0006 7860     		str	r0, [r7, #4]
 170 0008 3960     		str	r1, [r7]
 176:.\Generated_Source\PSoC5/cyfitter_cfg.c **** 	/* For 32-bit little-endian architectures */
 177:.\Generated_Source\PSoC5/cyfitter_cfg.c **** 	uint32 i, j = 0u;
 171              		.loc 1 177 0
 172 000a 0023     		movs	r3, #0
 173 000c 3B61     		str	r3, [r7, #16]
 178:.\Generated_Source\PSoC5/cyfitter_cfg.c **** 	for (i = 0u; i < CY_CFG_BASE_ADDR_COUNT; i++)
 174              		.loc 1 178 0
 175 000e 0023     		movs	r3, #0
 176 0010 7B61     		str	r3, [r7, #20]
 177 0012 26E0     		b	.L7
 178              	.L10:
 179              	.LBB2:
 179:.\Generated_Source\PSoC5/cyfitter_cfg.c **** 	{
 180:.\Generated_Source\PSoC5/cyfitter_cfg.c **** 		uint32 baseAddr = addr_table[i];
 180              		.loc 1 180 0
 181 0014 7B69     		ldr	r3, [r7, #20]
 182 0016 9B00     		lsls	r3, r3, #2
 183 0018 7A68     		ldr	r2, [r7, #4]
 184 001a 1344     		add	r3, r3, r2
 185 001c 1B68     		ldr	r3, [r3]
 186 001e BB60     		str	r3, [r7, #8]
 181:.\Generated_Source\PSoC5/cyfitter_cfg.c **** 		uint8 count = (uint8)baseAddr;
 187              		.loc 1 181 0
 188 0020 BB68     		ldr	r3, [r7, #8]
 189 0022 FB73     		strb	r3, [r7, #15]
 182:.\Generated_Source\PSoC5/cyfitter_cfg.c **** 		baseAddr &= 0xFFFFFF00u;
 190              		.loc 1 182 0
 191 0024 BB68     		ldr	r3, [r7, #8]
 192 0026 23F0FF03 		bic	r3, r3, #255
 193 002a BB60     		str	r3, [r7, #8]
 183:.\Generated_Source\PSoC5/cyfitter_cfg.c **** 		while (count != 0u)
 194              		.loc 1 183 0
 195 002c 13E0     		b	.L8
 196              	.L9:
 184:.\Generated_Source\PSoC5/cyfitter_cfg.c **** 		{
 185:.\Generated_Source\PSoC5/cyfitter_cfg.c **** 			CY_SET_XTND_REG8((void CYFAR *)(baseAddr + data_table[j].offset), data_table[j].value);
 197              		.loc 1 185 0
 198 002e 3B69     		ldr	r3, [r7, #16]
 199 0030 5B00     		lsls	r3, r3, #1
 200 0032 3A68     		ldr	r2, [r7]
 201 0034 1344     		add	r3, r3, r2
 202 0036 1B78     		ldrb	r3, [r3]	@ zero_extendqisi2
 203 0038 1A46     		mov	r2, r3
 204 003a BB68     		ldr	r3, [r7, #8]
 205 003c 1344     		add	r3, r3, r2
 206 003e 3A69     		ldr	r2, [r7, #16]
 207 0040 5200     		lsls	r2, r2, #1
 208 0042 3968     		ldr	r1, [r7]
 209 0044 0A44     		add	r2, r2, r1
 210 0046 5278     		ldrb	r2, [r2, #1]	@ zero_extendqisi2
 211 0048 1A70     		strb	r2, [r3]
 186:.\Generated_Source\PSoC5/cyfitter_cfg.c **** 			j++;
 212              		.loc 1 186 0
 213 004a 3B69     		ldr	r3, [r7, #16]
ARM GAS  C:\Users\pfautley\AppData\Local\Temp\ccifUTKT.s 			page 8


 214 004c 0133     		adds	r3, r3, #1
 215 004e 3B61     		str	r3, [r7, #16]
 187:.\Generated_Source\PSoC5/cyfitter_cfg.c **** 			count--;
 216              		.loc 1 187 0
 217 0050 FB7B     		ldrb	r3, [r7, #15]	@ zero_extendqisi2
 218 0052 013B     		subs	r3, r3, #1
 219 0054 FB73     		strb	r3, [r7, #15]
 220              	.L8:
 183:.\Generated_Source\PSoC5/cyfitter_cfg.c **** 		while (count != 0u)
 221              		.loc 1 183 0 discriminator 1
 222 0056 FB7B     		ldrb	r3, [r7, #15]	@ zero_extendqisi2
 223 0058 002B     		cmp	r3, #0
 224 005a E8D1     		bne	.L9
 225              	.LBE2:
 178:.\Generated_Source\PSoC5/cyfitter_cfg.c **** 	for (i = 0u; i < CY_CFG_BASE_ADDR_COUNT; i++)
 226              		.loc 1 178 0
 227 005c 7B69     		ldr	r3, [r7, #20]
 228 005e 0133     		adds	r3, r3, #1
 229 0060 7B61     		str	r3, [r7, #20]
 230              	.L7:
 178:.\Generated_Source\PSoC5/cyfitter_cfg.c **** 	for (i = 0u; i < CY_CFG_BASE_ADDR_COUNT; i++)
 231              		.loc 1 178 0 is_stmt 0 discriminator 1
 232 0062 7B69     		ldr	r3, [r7, #20]
 233 0064 222B     		cmp	r3, #34
 234 0066 D5D9     		bls	.L10
 188:.\Generated_Source\PSoC5/cyfitter_cfg.c **** 		}
 189:.\Generated_Source\PSoC5/cyfitter_cfg.c **** 	}
 190:.\Generated_Source\PSoC5/cyfitter_cfg.c **** }
 235              		.loc 1 190 0 is_stmt 1
 236 0068 1C37     		adds	r7, r7, #28
 237 006a BD46     		mov	sp, r7
 238              		@ sp needed
 239 006c 5DF8047B 		ldr	r7, [sp], #4
 240 0070 7047     		bx	lr
 241              		.cfi_endproc
 242              	.LFE4:
 243              		.size	cfg_write_bytes32, .-cfg_write_bytes32
 244 0072 00BF     		.section	.text.ClockSetup,"ax",%progbits
 245              		.align	2
 246              		.thumb
 247              		.thumb_func
 248              		.type	ClockSetup, %function
 249              	ClockSetup:
 250              	.LFB5:
 191:.\Generated_Source\PSoC5/cyfitter_cfg.c **** 
 192:.\Generated_Source\PSoC5/cyfitter_cfg.c **** /*******************************************************************************
 193:.\Generated_Source\PSoC5/cyfitter_cfg.c **** * Function Name: ClockSetup
 194:.\Generated_Source\PSoC5/cyfitter_cfg.c **** ********************************************************************************
 195:.\Generated_Source\PSoC5/cyfitter_cfg.c **** *
 196:.\Generated_Source\PSoC5/cyfitter_cfg.c **** * Summary:
 197:.\Generated_Source\PSoC5/cyfitter_cfg.c **** *  Performs the initialization of all of the clocks in the device based on the
 198:.\Generated_Source\PSoC5/cyfitter_cfg.c **** *  settings in the Clock tab of the DWR.  This includes enabling the requested
 199:.\Generated_Source\PSoC5/cyfitter_cfg.c **** *  clocks and setting the necessary dividers to produce the desired frequency. 
 200:.\Generated_Source\PSoC5/cyfitter_cfg.c **** *
 201:.\Generated_Source\PSoC5/cyfitter_cfg.c **** * Parameters:
 202:.\Generated_Source\PSoC5/cyfitter_cfg.c **** *  void
 203:.\Generated_Source\PSoC5/cyfitter_cfg.c **** *
ARM GAS  C:\Users\pfautley\AppData\Local\Temp\ccifUTKT.s 			page 9


 204:.\Generated_Source\PSoC5/cyfitter_cfg.c **** * Return:
 205:.\Generated_Source\PSoC5/cyfitter_cfg.c **** *  void
 206:.\Generated_Source\PSoC5/cyfitter_cfg.c **** *
 207:.\Generated_Source\PSoC5/cyfitter_cfg.c **** *******************************************************************************/
 208:.\Generated_Source\PSoC5/cyfitter_cfg.c **** static void ClockSetup(void);
 209:.\Generated_Source\PSoC5/cyfitter_cfg.c **** static void ClockSetup(void)
 210:.\Generated_Source\PSoC5/cyfitter_cfg.c **** {
 251              		.loc 1 210 0
 252              		.cfi_startproc
 253              		@ args = 0, pretend = 0, frame = 8
 254              		@ frame_needed = 1, uses_anonymous_args = 0
 255 0000 80B5     		push	{r7, lr}
 256              		.cfi_def_cfa_offset 8
 257              		.cfi_offset 7, -8
 258              		.cfi_offset 14, -4
 259 0002 82B0     		sub	sp, sp, #8
 260              		.cfi_def_cfa_offset 16
 261 0004 00AF     		add	r7, sp, #0
 262              		.cfi_def_cfa_register 7
 211:.\Generated_Source\PSoC5/cyfitter_cfg.c **** 	uint32 timeout;
 212:.\Generated_Source\PSoC5/cyfitter_cfg.c **** 	uint8 pllLock;
 213:.\Generated_Source\PSoC5/cyfitter_cfg.c **** 
 214:.\Generated_Source\PSoC5/cyfitter_cfg.c **** 
 215:.\Generated_Source\PSoC5/cyfitter_cfg.c **** 	/* Configure Digital Clocks based on settings from Clock DWR */
 216:.\Generated_Source\PSoC5/cyfitter_cfg.c **** 	CY_SET_XTND_REG16((void CYFAR *)(CYREG_CLKDIST_DCFG0_CFG0), 0x0000u);
 263              		.loc 1 216 0
 264 0006 334B     		ldr	r3, .L16
 265 0008 0022     		movs	r2, #0
 266 000a 1A80     		strh	r2, [r3]	@ movhi
 217:.\Generated_Source\PSoC5/cyfitter_cfg.c **** 	CY_SET_XTND_REG8((void CYFAR *)(CYREG_CLKDIST_DCFG0_CFG0 + 0x2u), 0x58u);
 267              		.loc 1 217 0
 268 000c 324B     		ldr	r3, .L16+4
 269 000e 5822     		movs	r2, #88
 270 0010 1A70     		strb	r2, [r3]
 218:.\Generated_Source\PSoC5/cyfitter_cfg.c **** 	CY_SET_XTND_REG16((void CYFAR *)(CYREG_CLKDIST_DCFG1_CFG0), 0x0022u);
 271              		.loc 1 218 0
 272 0012 324B     		ldr	r3, .L16+8
 273 0014 2222     		movs	r2, #34
 274 0016 1A80     		strh	r2, [r3]	@ movhi
 219:.\Generated_Source\PSoC5/cyfitter_cfg.c **** 	CY_SET_XTND_REG8((void CYFAR *)(CYREG_CLKDIST_DCFG1_CFG0 + 0x2u), 0x18u);
 275              		.loc 1 219 0
 276 0018 314B     		ldr	r3, .L16+12
 277 001a 1822     		movs	r2, #24
 278 001c 1A70     		strb	r2, [r3]
 220:.\Generated_Source\PSoC5/cyfitter_cfg.c **** 
 221:.\Generated_Source\PSoC5/cyfitter_cfg.c **** 	/* Configure ILO based on settings from Clock DWR */
 222:.\Generated_Source\PSoC5/cyfitter_cfg.c **** 	CY_SET_XTND_REG8((void CYFAR *)(CYREG_SLOWCLK_ILO_CR0), 0x06u);
 279              		.loc 1 222 0
 280 001e 314B     		ldr	r3, .L16+16
 281 0020 0622     		movs	r2, #6
 282 0022 1A70     		strb	r2, [r3]
 223:.\Generated_Source\PSoC5/cyfitter_cfg.c **** 
 224:.\Generated_Source\PSoC5/cyfitter_cfg.c **** 	/* Configure IMO based on settings from Clock DWR */
 225:.\Generated_Source\PSoC5/cyfitter_cfg.c **** 	CY_SET_XTND_REG8((void CYFAR *)(CYREG_FASTCLK_IMO_CR), 0x52u);
 283              		.loc 1 225 0
 284 0024 304B     		ldr	r3, .L16+20
 285 0026 5222     		movs	r2, #82
ARM GAS  C:\Users\pfautley\AppData\Local\Temp\ccifUTKT.s 			page 10


 286 0028 1A70     		strb	r2, [r3]
 226:.\Generated_Source\PSoC5/cyfitter_cfg.c **** 	CY_SET_XTND_REG8((void CYFAR *)(CYREG_IMO_TR1), (CY_GET_XTND_REG8((void CYFAR *)CYREG_FLSHID_CUST_
 287              		.loc 1 226 0
 288 002a 304B     		ldr	r3, .L16+24
 289 002c 304A     		ldr	r2, .L16+28
 290 002e 1278     		ldrb	r2, [r2]
 291 0030 D2B2     		uxtb	r2, r2
 292 0032 1A70     		strb	r2, [r3]
 227:.\Generated_Source\PSoC5/cyfitter_cfg.c **** 
 228:.\Generated_Source\PSoC5/cyfitter_cfg.c **** 	/* Configure PLL based on settings from Clock DWR */
 229:.\Generated_Source\PSoC5/cyfitter_cfg.c **** 	CY_SET_XTND_REG16((void CYFAR *)(CYREG_FASTCLK_PLL_P), 0x0818u);
 293              		.loc 1 229 0
 294 0034 2F4B     		ldr	r3, .L16+32
 295 0036 40F61802 		movw	r2, #2072
 296 003a 1A80     		strh	r2, [r3]	@ movhi
 230:.\Generated_Source\PSoC5/cyfitter_cfg.c **** 	CY_SET_XTND_REG16((void CYFAR *)(CYREG_FASTCLK_PLL_CFG0), 0x1251u);
 297              		.loc 1 230 0
 298 003c 2E4B     		ldr	r3, .L16+36
 299 003e 41F25122 		movw	r2, #4689
 300 0042 1A80     		strh	r2, [r3]	@ movhi
 231:.\Generated_Source\PSoC5/cyfitter_cfg.c **** 	/* Wait up to 250us for the PLL to lock */
 232:.\Generated_Source\PSoC5/cyfitter_cfg.c **** 	pllLock = 0u;
 301              		.loc 1 232 0
 302 0044 0023     		movs	r3, #0
 303 0046 FB70     		strb	r3, [r7, #3]
 233:.\Generated_Source\PSoC5/cyfitter_cfg.c **** 	for (timeout = 250u / 10u; (timeout > 0u) && (pllLock != 0x03u); timeout--)
 304              		.loc 1 233 0
 305 0048 1923     		movs	r3, #25
 306 004a 7B60     		str	r3, [r7, #4]
 307 004c 14E0     		b	.L12
 308              	.L14:
 234:.\Generated_Source\PSoC5/cyfitter_cfg.c **** 	{ 
 235:.\Generated_Source\PSoC5/cyfitter_cfg.c **** 		pllLock = 0x03u & ((uint8)((uint8)pllLock << 1) | ((CY_GET_XTND_REG8((void CYFAR *)CYREG_FASTCLK_
 309              		.loc 1 235 0 discriminator 1
 310 004e FB78     		ldrb	r3, [r7, #3]
 311 0050 5B00     		lsls	r3, r3, #1
 312 0052 DAB2     		uxtb	r2, r3
 313 0054 294B     		ldr	r3, .L16+40
 314 0056 1B78     		ldrb	r3, [r3]
 315 0058 DBB2     		uxtb	r3, r3
 316 005a 03F00103 		and	r3, r3, #1
 317 005e DBB2     		uxtb	r3, r3
 318 0060 1343     		orrs	r3, r3, r2
 319 0062 DBB2     		uxtb	r3, r3
 320 0064 03F00303 		and	r3, r3, #3
 321 0068 FB70     		strb	r3, [r7, #3]
 236:.\Generated_Source\PSoC5/cyfitter_cfg.c **** 		CyDelayCycles(10u * 48u); /* Delay 10us based on 48MHz clock */
 322              		.loc 1 236 0 discriminator 1
 323 006a 4FF4F070 		mov	r0, #480
 324 006e FFF7FEFF 		bl	CyDelayCycles
 233:.\Generated_Source\PSoC5/cyfitter_cfg.c **** 	for (timeout = 250u / 10u; (timeout > 0u) && (pllLock != 0x03u); timeout--)
 325              		.loc 1 233 0 discriminator 1
 326 0072 7B68     		ldr	r3, [r7, #4]
 327 0074 013B     		subs	r3, r3, #1
 328 0076 7B60     		str	r3, [r7, #4]
 329              	.L12:
 330 0078 7B68     		ldr	r3, [r7, #4]
ARM GAS  C:\Users\pfautley\AppData\Local\Temp\ccifUTKT.s 			page 11


 331 007a 002B     		cmp	r3, #0
 332 007c 02D0     		beq	.L13
 233:.\Generated_Source\PSoC5/cyfitter_cfg.c **** 	for (timeout = 250u / 10u; (timeout > 0u) && (pllLock != 0x03u); timeout--)
 333              		.loc 1 233 0 is_stmt 0 discriminator 2
 334 007e FB78     		ldrb	r3, [r7, #3]	@ zero_extendqisi2
 335 0080 032B     		cmp	r3, #3
 336 0082 E4D1     		bne	.L14
 337              	.L13:
 237:.\Generated_Source\PSoC5/cyfitter_cfg.c **** 	}
 238:.\Generated_Source\PSoC5/cyfitter_cfg.c **** 	/* If we ran out of time the PLL didn't lock so go to the error function */
 239:.\Generated_Source\PSoC5/cyfitter_cfg.c **** 	if (timeout == 0u)
 338              		.loc 1 239 0 is_stmt 1
 339 0084 7B68     		ldr	r3, [r7, #4]
 340 0086 002B     		cmp	r3, #0
 341 0088 02D1     		bne	.L15
 240:.\Generated_Source\PSoC5/cyfitter_cfg.c **** 	{
 241:.\Generated_Source\PSoC5/cyfitter_cfg.c **** 		CyClockStartupError(CYCLOCKSTART_PLL_ERROR);
 342              		.loc 1 241 0
 343 008a 0320     		movs	r0, #3
 344 008c FFF7FEFF 		bl	CyClockStartupError
 345              	.L15:
 242:.\Generated_Source\PSoC5/cyfitter_cfg.c **** 	}
 243:.\Generated_Source\PSoC5/cyfitter_cfg.c **** 
 244:.\Generated_Source\PSoC5/cyfitter_cfg.c **** 	/* Configure Bus/Master Clock based on settings from Clock DWR */
 245:.\Generated_Source\PSoC5/cyfitter_cfg.c **** 	CY_SET_XTND_REG16((void CYFAR *)(CYREG_CLKDIST_MSTR0), 0x0100u);
 346              		.loc 1 245 0
 347 0090 1B4B     		ldr	r3, .L16+44
 348 0092 4FF48072 		mov	r2, #256
 349 0096 1A80     		strh	r2, [r3]	@ movhi
 246:.\Generated_Source\PSoC5/cyfitter_cfg.c **** 	CY_SET_XTND_REG8((void CYFAR *)(CYREG_CLKDIST_MSTR0), 0x07u);
 350              		.loc 1 246 0
 351 0098 194B     		ldr	r3, .L16+44
 352 009a 0722     		movs	r2, #7
 353 009c 1A70     		strb	r2, [r3]
 247:.\Generated_Source\PSoC5/cyfitter_cfg.c **** 	CY_SET_XTND_REG8((void CYFAR *)(CYREG_CLKDIST_BCFG0), 0x00u);
 354              		.loc 1 247 0
 355 009e 194B     		ldr	r3, .L16+48
 356 00a0 0022     		movs	r2, #0
 357 00a2 1A70     		strb	r2, [r3]
 248:.\Generated_Source\PSoC5/cyfitter_cfg.c **** 	CY_SET_XTND_REG8((void CYFAR *)(CYREG_CLKDIST_BCFG2), 0x48u);
 358              		.loc 1 248 0
 359 00a4 184B     		ldr	r3, .L16+52
 360 00a6 4822     		movs	r2, #72
 361 00a8 1A70     		strb	r2, [r3]
 249:.\Generated_Source\PSoC5/cyfitter_cfg.c **** 	CY_SET_XTND_REG8((void CYFAR *)(CYREG_CLKDIST_MSTR0), 0x00u);
 362              		.loc 1 249 0
 363 00aa 154B     		ldr	r3, .L16+44
 364 00ac 0022     		movs	r2, #0
 365 00ae 1A70     		strb	r2, [r3]
 250:.\Generated_Source\PSoC5/cyfitter_cfg.c **** 
 251:.\Generated_Source\PSoC5/cyfitter_cfg.c **** 	/* Configure USB Clock based on settings from Clock DWR */
 252:.\Generated_Source\PSoC5/cyfitter_cfg.c **** 	CY_SET_XTND_REG8((void CYFAR *)(CYREG_CLKDIST_UCFG), 0x00u);
 366              		.loc 1 252 0
 367 00b0 164B     		ldr	r3, .L16+56
 368 00b2 0022     		movs	r2, #0
 369 00b4 1A70     		strb	r2, [r3]
 253:.\Generated_Source\PSoC5/cyfitter_cfg.c **** 	CY_SET_XTND_REG8((void CYFAR *)(CYREG_CLKDIST_LD), 0x02u);
ARM GAS  C:\Users\pfautley\AppData\Local\Temp\ccifUTKT.s 			page 12


 370              		.loc 1 253 0
 371 00b6 164B     		ldr	r3, .L16+60
 372 00b8 0222     		movs	r2, #2
 373 00ba 1A70     		strb	r2, [r3]
 254:.\Generated_Source\PSoC5/cyfitter_cfg.c **** 
 255:.\Generated_Source\PSoC5/cyfitter_cfg.c **** 	CY_SET_XTND_REG8((void CYFAR *)(CYREG_PM_ACT_CFG2), ((CY_GET_XTND_REG8((void CYFAR *)CYREG_PM_ACT_
 374              		.loc 1 255 0
 375 00bc 154B     		ldr	r3, .L16+64
 376 00be 154A     		ldr	r2, .L16+64
 377 00c0 1278     		ldrb	r2, [r2]
 378 00c2 D2B2     		uxtb	r2, r2
 379 00c4 42F00302 		orr	r2, r2, #3
 380 00c8 D2B2     		uxtb	r2, r2
 381 00ca 1A70     		strb	r2, [r3]
 256:.\Generated_Source\PSoC5/cyfitter_cfg.c **** }
 382              		.loc 1 256 0
 383 00cc 0837     		adds	r7, r7, #8
 384 00ce BD46     		mov	sp, r7
 385              		@ sp needed
 386 00d0 80BD     		pop	{r7, pc}
 387              	.L17:
 388 00d2 00BF     		.align	2
 389              	.L16:
 390 00d4 80400040 		.word	1073758336
 391 00d8 82400040 		.word	1073758338
 392 00dc 84400040 		.word	1073758340
 393 00e0 86400040 		.word	1073758342
 394 00e4 00430040 		.word	1073758976
 395 00e8 00420040 		.word	1073758720
 396 00ec A1460040 		.word	1073759905
 397 00f0 0F010049 		.word	1224737039
 398 00f4 22420040 		.word	1073758754
 399 00f8 20420040 		.word	1073758752
 400 00fc 25420040 		.word	1073758757
 401 0100 04400040 		.word	1073758212
 402 0104 06400040 		.word	1073758214
 403 0108 08400040 		.word	1073758216
 404 010c 09400040 		.word	1073758217
 405 0110 01400040 		.word	1073758209
 406 0114 A2430040 		.word	1073759138
 407              		.cfi_endproc
 408              	.LFE5:
 409              		.size	ClockSetup, .-ClockSetup
 410              		.section	.text.AnalogSetDefault,"ax",%progbits
 411              		.align	2
 412              		.thumb
 413              		.thumb_func
 414              		.type	AnalogSetDefault, %function
 415              	AnalogSetDefault:
 416              	.LFB6:
 257:.\Generated_Source\PSoC5/cyfitter_cfg.c **** 
 258:.\Generated_Source\PSoC5/cyfitter_cfg.c **** 
 259:.\Generated_Source\PSoC5/cyfitter_cfg.c **** /* Analog API Functions */
 260:.\Generated_Source\PSoC5/cyfitter_cfg.c **** 
 261:.\Generated_Source\PSoC5/cyfitter_cfg.c **** 
 262:.\Generated_Source\PSoC5/cyfitter_cfg.c **** /*******************************************************************************
 263:.\Generated_Source\PSoC5/cyfitter_cfg.c **** * Function Name: AnalogSetDefault
ARM GAS  C:\Users\pfautley\AppData\Local\Temp\ccifUTKT.s 			page 13


 264:.\Generated_Source\PSoC5/cyfitter_cfg.c **** ********************************************************************************
 265:.\Generated_Source\PSoC5/cyfitter_cfg.c **** *
 266:.\Generated_Source\PSoC5/cyfitter_cfg.c **** * Summary:
 267:.\Generated_Source\PSoC5/cyfitter_cfg.c **** *  Sets up the analog portions of the chip to default values based on chip
 268:.\Generated_Source\PSoC5/cyfitter_cfg.c **** *  configuration options from the project.
 269:.\Generated_Source\PSoC5/cyfitter_cfg.c **** *
 270:.\Generated_Source\PSoC5/cyfitter_cfg.c **** * Parameters:
 271:.\Generated_Source\PSoC5/cyfitter_cfg.c **** *  void
 272:.\Generated_Source\PSoC5/cyfitter_cfg.c **** *
 273:.\Generated_Source\PSoC5/cyfitter_cfg.c **** * Return:
 274:.\Generated_Source\PSoC5/cyfitter_cfg.c **** *  void
 275:.\Generated_Source\PSoC5/cyfitter_cfg.c **** *
 276:.\Generated_Source\PSoC5/cyfitter_cfg.c **** *******************************************************************************/
 277:.\Generated_Source\PSoC5/cyfitter_cfg.c **** static void AnalogSetDefault(void);
 278:.\Generated_Source\PSoC5/cyfitter_cfg.c **** static void AnalogSetDefault(void)
 279:.\Generated_Source\PSoC5/cyfitter_cfg.c **** {
 417              		.loc 1 279 0
 418              		.cfi_startproc
 419              		@ args = 0, pretend = 0, frame = 8
 420              		@ frame_needed = 1, uses_anonymous_args = 0
 421              		@ link register save eliminated.
 422 0000 80B4     		push	{r7}
 423              		.cfi_def_cfa_offset 4
 424              		.cfi_offset 7, -4
 425 0002 83B0     		sub	sp, sp, #12
 426              		.cfi_def_cfa_offset 16
 427 0004 00AF     		add	r7, sp, #0
 428              		.cfi_def_cfa_register 7
 280:.\Generated_Source\PSoC5/cyfitter_cfg.c **** 	uint8 bg_xover_inl_trim = CY_GET_XTND_REG8((void CYFAR *)(CYREG_FLSHID_MFG_CFG_BG_XOVER_INL_TRIM +
 429              		.loc 1 280 0
 430 0006 0B4B     		ldr	r3, .L19
 431 0008 1B78     		ldrb	r3, [r3]
 432 000a FB71     		strb	r3, [r7, #7]
 281:.\Generated_Source\PSoC5/cyfitter_cfg.c **** 	CY_SET_XTND_REG8((void CYFAR *)(CYREG_BG_DFT0), (bg_xover_inl_trim & 0x07u));
 433              		.loc 1 281 0
 434 000c 0A4B     		ldr	r3, .L19+4
 435 000e FA79     		ldrb	r2, [r7, #7]
 436 0010 02F00702 		and	r2, r2, #7
 437 0014 D2B2     		uxtb	r2, r2
 438 0016 1A70     		strb	r2, [r3]
 282:.\Generated_Source\PSoC5/cyfitter_cfg.c **** 	CY_SET_XTND_REG8((void CYFAR *)(CYREG_BG_DFT1), ((bg_xover_inl_trim >> 4) & 0x0Fu));
 439              		.loc 1 282 0
 440 0018 084B     		ldr	r3, .L19+8
 441 001a FA79     		ldrb	r2, [r7, #7]	@ zero_extendqisi2
 442 001c 1209     		lsrs	r2, r2, #4
 443 001e D2B2     		uxtb	r2, r2
 444 0020 1A70     		strb	r2, [r3]
 283:.\Generated_Source\PSoC5/cyfitter_cfg.c **** 	CY_SET_XTND_REG8((void CYFAR *)CYREG_PUMP_CR0, 0x44u);
 445              		.loc 1 283 0
 446 0022 074B     		ldr	r3, .L19+12
 447 0024 4422     		movs	r2, #68
 448 0026 1A70     		strb	r2, [r3]
 284:.\Generated_Source\PSoC5/cyfitter_cfg.c **** }
 449              		.loc 1 284 0
 450 0028 0C37     		adds	r7, r7, #12
 451 002a BD46     		mov	sp, r7
 452              		@ sp needed
ARM GAS  C:\Users\pfautley\AppData\Local\Temp\ccifUTKT.s 			page 14


 453 002c 5DF8047B 		ldr	r7, [sp], #4
 454 0030 7047     		bx	lr
 455              	.L20:
 456 0032 00BF     		.align	2
 457              	.L19:
 458 0034 CF010049 		.word	1224737231
 459 0038 6E580040 		.word	1073764462
 460 003c 6F580040 		.word	1073764463
 461 0040 76580040 		.word	1073764470
 462              		.cfi_endproc
 463              	.LFE6:
 464              		.size	AnalogSetDefault, .-AnalogSetDefault
 465              		.section	.text.SetAnalogRoutingPumps,"ax",%progbits
 466              		.align	2
 467              		.global	SetAnalogRoutingPumps
 468              		.thumb
 469              		.thumb_func
 470              		.type	SetAnalogRoutingPumps, %function
 471              	SetAnalogRoutingPumps:
 472              	.LFB7:
 285:.\Generated_Source\PSoC5/cyfitter_cfg.c **** 
 286:.\Generated_Source\PSoC5/cyfitter_cfg.c **** 
 287:.\Generated_Source\PSoC5/cyfitter_cfg.c **** /*******************************************************************************
 288:.\Generated_Source\PSoC5/cyfitter_cfg.c **** * Function Name: SetAnalogRoutingPumps
 289:.\Generated_Source\PSoC5/cyfitter_cfg.c **** ********************************************************************************
 290:.\Generated_Source\PSoC5/cyfitter_cfg.c **** *
 291:.\Generated_Source\PSoC5/cyfitter_cfg.c **** * Summary:
 292:.\Generated_Source\PSoC5/cyfitter_cfg.c **** * Enables or disables the analog pumps feeding analog routing switches.
 293:.\Generated_Source\PSoC5/cyfitter_cfg.c **** * Intended to be called at startup, based on the Vdda system configuration;
 294:.\Generated_Source\PSoC5/cyfitter_cfg.c **** * may be called during operation when the user informs us that the Vdda voltage
 295:.\Generated_Source\PSoC5/cyfitter_cfg.c **** * crossed the pump threshold.
 296:.\Generated_Source\PSoC5/cyfitter_cfg.c **** *
 297:.\Generated_Source\PSoC5/cyfitter_cfg.c **** * Parameters:
 298:.\Generated_Source\PSoC5/cyfitter_cfg.c **** *  enabled - 1 to enable the pumps, 0 to disable the pumps
 299:.\Generated_Source\PSoC5/cyfitter_cfg.c **** *
 300:.\Generated_Source\PSoC5/cyfitter_cfg.c **** * Return:
 301:.\Generated_Source\PSoC5/cyfitter_cfg.c **** *  void
 302:.\Generated_Source\PSoC5/cyfitter_cfg.c **** *
 303:.\Generated_Source\PSoC5/cyfitter_cfg.c **** *******************************************************************************/
 304:.\Generated_Source\PSoC5/cyfitter_cfg.c **** void SetAnalogRoutingPumps(uint8 enabled)
 305:.\Generated_Source\PSoC5/cyfitter_cfg.c **** {
 473              		.loc 1 305 0
 474              		.cfi_startproc
 475              		@ args = 0, pretend = 0, frame = 16
 476              		@ frame_needed = 1, uses_anonymous_args = 0
 477              		@ link register save eliminated.
 478 0000 80B4     		push	{r7}
 479              		.cfi_def_cfa_offset 4
 480              		.cfi_offset 7, -4
 481 0002 85B0     		sub	sp, sp, #20
 482              		.cfi_def_cfa_offset 24
 483 0004 00AF     		add	r7, sp, #0
 484              		.cfi_def_cfa_register 7
 485 0006 0346     		mov	r3, r0
 486 0008 FB71     		strb	r3, [r7, #7]
 306:.\Generated_Source\PSoC5/cyfitter_cfg.c **** 	uint8 regValue = CY_GET_XTND_REG8((void CYFAR *)CYREG_PUMP_CR0);
 487              		.loc 1 306 0
ARM GAS  C:\Users\pfautley\AppData\Local\Temp\ccifUTKT.s 			page 15


 488 000a 064B     		ldr	r3, .L24
 489 000c 1B78     		ldrb	r3, [r3]
 490 000e FB73     		strb	r3, [r7, #15]
 307:.\Generated_Source\PSoC5/cyfitter_cfg.c **** 	if (enabled != 0u)
 491              		.loc 1 307 0
 492 0010 FB79     		ldrb	r3, [r7, #7]	@ zero_extendqisi2
 493 0012 002B     		cmp	r3, #0
 308:.\Generated_Source\PSoC5/cyfitter_cfg.c **** 	{
 309:.\Generated_Source\PSoC5/cyfitter_cfg.c **** 		regValue |= 0x00u;
 310:.\Generated_Source\PSoC5/cyfitter_cfg.c **** 	}
 311:.\Generated_Source\PSoC5/cyfitter_cfg.c **** 	else
 312:.\Generated_Source\PSoC5/cyfitter_cfg.c **** 	{
 313:.\Generated_Source\PSoC5/cyfitter_cfg.c **** 		regValue &= (uint8)~0x00u;
 314:.\Generated_Source\PSoC5/cyfitter_cfg.c **** 	}
 315:.\Generated_Source\PSoC5/cyfitter_cfg.c **** 	CY_SET_XTND_REG8((void CYFAR *)CYREG_PUMP_CR0, regValue);
 494              		.loc 1 315 0
 495 0014 034B     		ldr	r3, .L24
 496 0016 FA7B     		ldrb	r2, [r7, #15]
 497 0018 1A70     		strb	r2, [r3]
 316:.\Generated_Source\PSoC5/cyfitter_cfg.c **** }
 498              		.loc 1 316 0
 499 001a 1437     		adds	r7, r7, #20
 500 001c BD46     		mov	sp, r7
 501              		@ sp needed
 502 001e 5DF8047B 		ldr	r7, [sp], #4
 503 0022 7047     		bx	lr
 504              	.L25:
 505              		.align	2
 506              	.L24:
 507 0024 76580040 		.word	1073764470
 508              		.cfi_endproc
 509              	.LFE7:
 510              		.size	SetAnalogRoutingPumps, .-SetAnalogRoutingPumps
 511              		.section	.text.cyfitter_cfg,"ax",%progbits
 512              		.align	2
 513              		.global	cyfitter_cfg
 514              		.thumb
 515              		.thumb_func
 516              		.type	cyfitter_cfg, %function
 517              	cyfitter_cfg:
 518              	.LFB8:
 317:.\Generated_Source\PSoC5/cyfitter_cfg.c **** 
 318:.\Generated_Source\PSoC5/cyfitter_cfg.c **** #define CY_AMUX_UNUSED CYREG_BOOST_SR
 319:.\Generated_Source\PSoC5/cyfitter_cfg.c **** 
 320:.\Generated_Source\PSoC5/cyfitter_cfg.c **** 
 321:.\Generated_Source\PSoC5/cyfitter_cfg.c **** /*******************************************************************************
 322:.\Generated_Source\PSoC5/cyfitter_cfg.c **** * Function Name: cyfitter_cfg
 323:.\Generated_Source\PSoC5/cyfitter_cfg.c **** ********************************************************************************
 324:.\Generated_Source\PSoC5/cyfitter_cfg.c **** * Summary:
 325:.\Generated_Source\PSoC5/cyfitter_cfg.c **** *  This function is called by the start-up code for the selected device. It
 326:.\Generated_Source\PSoC5/cyfitter_cfg.c **** *  performs all of the necessary device configuration based on the design
 327:.\Generated_Source\PSoC5/cyfitter_cfg.c **** *  settings.  This includes settings from the Design Wide Resources (DWR) such
 328:.\Generated_Source\PSoC5/cyfitter_cfg.c **** *  as Clocks and Pins as well as any component configuration that is necessary.
 329:.\Generated_Source\PSoC5/cyfitter_cfg.c **** *
 330:.\Generated_Source\PSoC5/cyfitter_cfg.c **** * Parameters:  
 331:.\Generated_Source\PSoC5/cyfitter_cfg.c **** *   void
 332:.\Generated_Source\PSoC5/cyfitter_cfg.c **** *
ARM GAS  C:\Users\pfautley\AppData\Local\Temp\ccifUTKT.s 			page 16


 333:.\Generated_Source\PSoC5/cyfitter_cfg.c **** * Return:
 334:.\Generated_Source\PSoC5/cyfitter_cfg.c **** *   void
 335:.\Generated_Source\PSoC5/cyfitter_cfg.c **** *
 336:.\Generated_Source\PSoC5/cyfitter_cfg.c **** *******************************************************************************/
 337:.\Generated_Source\PSoC5/cyfitter_cfg.c **** 
 338:.\Generated_Source\PSoC5/cyfitter_cfg.c **** void cyfitter_cfg(void)
 339:.\Generated_Source\PSoC5/cyfitter_cfg.c **** {
 519              		.loc 1 339 0
 520              		.cfi_startproc
 521              		@ args = 0, pretend = 0, frame = 24
 522              		@ frame_needed = 1, uses_anonymous_args = 0
 523 0000 80B5     		push	{r7, lr}
 524              		.cfi_def_cfa_offset 8
 525              		.cfi_offset 7, -8
 526              		.cfi_offset 14, -4
 527 0002 86B0     		sub	sp, sp, #24
 528              		.cfi_def_cfa_offset 32
 529 0004 00AF     		add	r7, sp, #0
 530              		.cfi_def_cfa_register 7
 340:.\Generated_Source\PSoC5/cyfitter_cfg.c **** #ifdef CYGlobalIntDisable
 341:.\Generated_Source\PSoC5/cyfitter_cfg.c **** 	/* Disable interrupts by default. Let user enable if/when they want. */
 342:.\Generated_Source\PSoC5/cyfitter_cfg.c **** 	CYGlobalIntDisable
 531              		.loc 1 342 0
 532              	@ 342 ".\Generated_Source\PSoC5\cyfitter_cfg.c" 1
 533 0006 72B6     		CPSID   i
 534              	@ 0 "" 2
 343:.\Generated_Source\PSoC5/cyfitter_cfg.c **** #endif
 344:.\Generated_Source\PSoC5/cyfitter_cfg.c **** 
 345:.\Generated_Source\PSoC5/cyfitter_cfg.c **** 
 346:.\Generated_Source\PSoC5/cyfitter_cfg.c **** 	/* Set Flash Cycles based on max possible frequency in case a glitch occurs during ClockSetup(). *
 347:.\Generated_Source\PSoC5/cyfitter_cfg.c **** 	CY_SET_XTND_REG8((void CYFAR *)(CYREG_CACHE_CC_CTL), (((CYDEV_INSTRUCT_CACHE_ENABLED) != 0) ? 0x01
 535              		.loc 1 347 0
 536              		.thumb
 537 0008 574B     		ldr	r3, .L31
 538 000a 0122     		movs	r2, #1
 539 000c 1A70     		strb	r2, [r3]
 348:.\Generated_Source\PSoC5/cyfitter_cfg.c **** 	/* Setup clocks based on selections from Clock DWR */
 349:.\Generated_Source\PSoC5/cyfitter_cfg.c **** 	ClockSetup();
 540              		.loc 1 349 0
 541 000e FFF7FEFF 		bl	ClockSetup
 350:.\Generated_Source\PSoC5/cyfitter_cfg.c **** 	/* Enable/Disable Debug functionality based on settings from System DWR */
 351:.\Generated_Source\PSoC5/cyfitter_cfg.c **** 	CY_SET_XTND_REG8((void CYFAR *)CYREG_MLOGIC_DEBUG, (CY_GET_XTND_REG8((void CYFAR *)CYREG_MLOGIC_DE
 542              		.loc 1 351 0
 543 0012 564B     		ldr	r3, .L31+4
 544 0014 554A     		ldr	r2, .L31+4
 545 0016 1278     		ldrb	r2, [r2]
 546 0018 D2B2     		uxtb	r2, r2
 547 001a 42F00402 		orr	r2, r2, #4
 548 001e D2B2     		uxtb	r2, r2
 549 0020 1A70     		strb	r2, [r3]
 550              	.LBB3:
 352:.\Generated_Source\PSoC5/cyfitter_cfg.c **** 
 353:.\Generated_Source\PSoC5/cyfitter_cfg.c **** 	{
 354:.\Generated_Source\PSoC5/cyfitter_cfg.c **** 
 355:.\Generated_Source\PSoC5/cyfitter_cfg.c **** 		CYPACKED typedef struct {
 356:.\Generated_Source\PSoC5/cyfitter_cfg.c **** 			void CYFAR *address;
 357:.\Generated_Source\PSoC5/cyfitter_cfg.c **** 			uint16 size;
ARM GAS  C:\Users\pfautley\AppData\Local\Temp\ccifUTKT.s 			page 17


 358:.\Generated_Source\PSoC5/cyfitter_cfg.c **** 		} CYPACKED_ATTR cfg_memset_t;
 359:.\Generated_Source\PSoC5/cyfitter_cfg.c **** 
 360:.\Generated_Source\PSoC5/cyfitter_cfg.c **** 
 361:.\Generated_Source\PSoC5/cyfitter_cfg.c **** 		CYPACKED typedef struct {
 362:.\Generated_Source\PSoC5/cyfitter_cfg.c **** 			void CYFAR *dest;
 363:.\Generated_Source\PSoC5/cyfitter_cfg.c **** 			const void CYFAR *src;
 364:.\Generated_Source\PSoC5/cyfitter_cfg.c **** 			uint16 size;
 365:.\Generated_Source\PSoC5/cyfitter_cfg.c **** 		} CYPACKED_ATTR cfg_memcpy_t;
 366:.\Generated_Source\PSoC5/cyfitter_cfg.c **** 
 367:.\Generated_Source\PSoC5/cyfitter_cfg.c **** 		static const cfg_memset_t CYCODE cfg_memset_list [] = {
 368:.\Generated_Source\PSoC5/cyfitter_cfg.c **** 			/* address, size */
 369:.\Generated_Source\PSoC5/cyfitter_cfg.c **** 			{(void CYFAR *)(CYREG_PRT6_DR), 16u},
 370:.\Generated_Source\PSoC5/cyfitter_cfg.c **** 			{(void CYFAR *)(CYREG_PRT12_DR), 16u},
 371:.\Generated_Source\PSoC5/cyfitter_cfg.c **** 			{(void CYFAR *)(CYDEV_UCFG_B0_P0_U0_BASE), 4096u},
 372:.\Generated_Source\PSoC5/cyfitter_cfg.c **** 			{(void CYFAR *)(CYDEV_UCFG_B1_P2_U1_BASE), 1920u},
 373:.\Generated_Source\PSoC5/cyfitter_cfg.c **** 			{(void CYFAR *)(CYDEV_UCFG_DSI0_BASE), 2560u},
 374:.\Generated_Source\PSoC5/cyfitter_cfg.c **** 			{(void CYFAR *)(CYDEV_UCFG_DSI12_BASE), 512u},
 375:.\Generated_Source\PSoC5/cyfitter_cfg.c **** 			{(void CYFAR *)(CYREG_BCTL0_MDCLK_EN), 32u},
 376:.\Generated_Source\PSoC5/cyfitter_cfg.c **** 		};
 377:.\Generated_Source\PSoC5/cyfitter_cfg.c **** 
 378:.\Generated_Source\PSoC5/cyfitter_cfg.c **** 		static const cfg_memcpy_t CYCODE cfg_memcpy_list [] = {
 379:.\Generated_Source\PSoC5/cyfitter_cfg.c **** 			/* dest, src, size */
 380:.\Generated_Source\PSoC5/cyfitter_cfg.c **** 			{(void CYFAR *)(CYDEV_UCFG_B1_P2_U0_BASE), BS_UDB_1_0_0_CONFIG_VAL, 128u},
 381:.\Generated_Source\PSoC5/cyfitter_cfg.c **** 		};
 382:.\Generated_Source\PSoC5/cyfitter_cfg.c **** 
 383:.\Generated_Source\PSoC5/cyfitter_cfg.c **** 		uint8 CYDATA i;
 384:.\Generated_Source\PSoC5/cyfitter_cfg.c **** 
 385:.\Generated_Source\PSoC5/cyfitter_cfg.c **** 		/* Zero out critical memory blocks before beginning configuration */
 386:.\Generated_Source\PSoC5/cyfitter_cfg.c **** 		for (i = 0u; i < (sizeof(cfg_memset_list)/sizeof(cfg_memset_list[0])); i++)
 551              		.loc 1 386 0
 552 0022 0023     		movs	r3, #0
 553 0024 FB75     		strb	r3, [r7, #23]
 554 0026 13E0     		b	.L27
 555              	.L28:
 556              	.LBB4:
 387:.\Generated_Source\PSoC5/cyfitter_cfg.c **** 		{
 388:.\Generated_Source\PSoC5/cyfitter_cfg.c **** 			const cfg_memset_t CYCODE * CYDATA ms = &cfg_memset_list[i];
 557              		.loc 1 388 0 discriminator 2
 558 0028 FA7D     		ldrb	r2, [r7, #23]	@ zero_extendqisi2
 559 002a 1346     		mov	r3, r2
 560 002c 5B00     		lsls	r3, r3, #1
 561 002e 1344     		add	r3, r3, r2
 562 0030 5B00     		lsls	r3, r3, #1
 563 0032 4F4A     		ldr	r2, .L31+8
 564 0034 1344     		add	r3, r3, r2
 565 0036 3B61     		str	r3, [r7, #16]
 389:.\Generated_Source\PSoC5/cyfitter_cfg.c **** 			CYMEMZERO(ms->address, (size_t)(uint32)(ms->size));
 566              		.loc 1 389 0 discriminator 2
 567 0038 3B69     		ldr	r3, [r7, #16]
 568 003a 1A68     		ldr	r2, [r3]	@ unaligned
 569 003c 3B69     		ldr	r3, [r7, #16]
 570 003e 9B88     		ldrh	r3, [r3, #4]	@ unaligned
 571 0040 9BB2     		uxth	r3, r3
 572 0042 1046     		mov	r0, r2
 573 0044 1946     		mov	r1, r3
 574 0046 FFF7FEFF 		bl	CYMEMZERO
 575              	.LBE4:
ARM GAS  C:\Users\pfautley\AppData\Local\Temp\ccifUTKT.s 			page 18


 386:.\Generated_Source\PSoC5/cyfitter_cfg.c **** 		for (i = 0u; i < (sizeof(cfg_memset_list)/sizeof(cfg_memset_list[0])); i++)
 576              		.loc 1 386 0 discriminator 2
 577 004a FB7D     		ldrb	r3, [r7, #23]	@ zero_extendqisi2
 578 004c 0133     		adds	r3, r3, #1
 579 004e FB75     		strb	r3, [r7, #23]
 580              	.L27:
 386:.\Generated_Source\PSoC5/cyfitter_cfg.c **** 		for (i = 0u; i < (sizeof(cfg_memset_list)/sizeof(cfg_memset_list[0])); i++)
 581              		.loc 1 386 0 is_stmt 0 discriminator 1
 582 0050 FB7D     		ldrb	r3, [r7, #23]	@ zero_extendqisi2
 583 0052 062B     		cmp	r3, #6
 584 0054 E8D9     		bls	.L28
 390:.\Generated_Source\PSoC5/cyfitter_cfg.c **** 		}
 391:.\Generated_Source\PSoC5/cyfitter_cfg.c **** 
 392:.\Generated_Source\PSoC5/cyfitter_cfg.c **** 		/* Copy device configuration data into registers */
 393:.\Generated_Source\PSoC5/cyfitter_cfg.c **** 		for (i = 0u; i < (sizeof(cfg_memcpy_list)/sizeof(cfg_memcpy_list[0])); i++)
 585              		.loc 1 393 0 is_stmt 1
 586 0056 0023     		movs	r3, #0
 587 0058 FB75     		strb	r3, [r7, #23]
 588 005a 1CE0     		b	.L29
 589              	.L30:
 590              	.LBB5:
 394:.\Generated_Source\PSoC5/cyfitter_cfg.c **** 		{
 395:.\Generated_Source\PSoC5/cyfitter_cfg.c **** 			const cfg_memcpy_t CYCODE * CYDATA mc = &cfg_memcpy_list[i];
 591              		.loc 1 395 0 discriminator 2
 592 005c FA7D     		ldrb	r2, [r7, #23]	@ zero_extendqisi2
 593 005e 1346     		mov	r3, r2
 594 0060 9B00     		lsls	r3, r3, #2
 595 0062 1344     		add	r3, r3, r2
 596 0064 5B00     		lsls	r3, r3, #1
 597 0066 434A     		ldr	r2, .L31+12
 598 0068 1344     		add	r3, r3, r2
 599 006a FB60     		str	r3, [r7, #12]
 396:.\Generated_Source\PSoC5/cyfitter_cfg.c **** 			void * CYDATA destPtr = mc->dest;
 600              		.loc 1 396 0 discriminator 2
 601 006c FB68     		ldr	r3, [r7, #12]
 602 006e 1B68     		ldr	r3, [r3]	@ unaligned
 603 0070 BB60     		str	r3, [r7, #8]
 397:.\Generated_Source\PSoC5/cyfitter_cfg.c **** 			const void * CYDATA srcPtr = mc->src;
 604              		.loc 1 397 0 discriminator 2
 605 0072 FB68     		ldr	r3, [r7, #12]
 606 0074 5B68     		ldr	r3, [r3, #4]	@ unaligned
 607 0076 7B60     		str	r3, [r7, #4]
 398:.\Generated_Source\PSoC5/cyfitter_cfg.c **** 			uint16 CYDATA numBytes = mc->size;
 608              		.loc 1 398 0 discriminator 2
 609 0078 FB68     		ldr	r3, [r7, #12]
 610 007a 1A7A     		ldrb	r2, [r3, #8]	@ zero_extendqisi2
 611 007c 5B7A     		ldrb	r3, [r3, #9]	@ zero_extendqisi2
 612 007e 1B02     		lsls	r3, r3, #8
 613 0080 1343     		orrs	r3, r3, r2
 614 0082 7B80     		strh	r3, [r7, #2]	@ movhi
 399:.\Generated_Source\PSoC5/cyfitter_cfg.c **** 			CYCONFIGCPY(destPtr, srcPtr, numBytes);
 615              		.loc 1 399 0 discriminator 2
 616 0084 7B88     		ldrh	r3, [r7, #2]
 617 0086 B868     		ldr	r0, [r7, #8]
 618 0088 7968     		ldr	r1, [r7, #4]
 619 008a 1A46     		mov	r2, r3
 620 008c FFF7FEFF 		bl	CYCONFIGCPY
ARM GAS  C:\Users\pfautley\AppData\Local\Temp\ccifUTKT.s 			page 19


 621              	.LBE5:
 393:.\Generated_Source\PSoC5/cyfitter_cfg.c **** 		for (i = 0u; i < (sizeof(cfg_memcpy_list)/sizeof(cfg_memcpy_list[0])); i++)
 622              		.loc 1 393 0 discriminator 2
 623 0090 FB7D     		ldrb	r3, [r7, #23]	@ zero_extendqisi2
 624 0092 0133     		adds	r3, r3, #1
 625 0094 FB75     		strb	r3, [r7, #23]
 626              	.L29:
 393:.\Generated_Source\PSoC5/cyfitter_cfg.c **** 		for (i = 0u; i < (sizeof(cfg_memcpy_list)/sizeof(cfg_memcpy_list[0])); i++)
 627              		.loc 1 393 0 is_stmt 0 discriminator 1
 628 0096 FB7D     		ldrb	r3, [r7, #23]	@ zero_extendqisi2
 629 0098 002B     		cmp	r3, #0
 630 009a DFD0     		beq	.L30
 400:.\Generated_Source\PSoC5/cyfitter_cfg.c **** 		}
 401:.\Generated_Source\PSoC5/cyfitter_cfg.c **** 
 402:.\Generated_Source\PSoC5/cyfitter_cfg.c **** 		cfg_write_bytes32(cy_cfg_addr_table, cy_cfg_data_table);
 631              		.loc 1 402 0 is_stmt 1
 632 009c 4FF09040 		mov	r0, #1207959552
 633 00a0 3549     		ldr	r1, .L31+16
 634 00a2 FFF7FEFF 		bl	cfg_write_bytes32
 403:.\Generated_Source\PSoC5/cyfitter_cfg.c **** 
 404:.\Generated_Source\PSoC5/cyfitter_cfg.c **** 		/* Perform normal device configuration. Order is not critical for these items. */
 405:.\Generated_Source\PSoC5/cyfitter_cfg.c **** 		CYMEMZERO((void CYFAR *)(CYREG_PHUB_CFGMEM0_CFG0), 4u);
 635              		.loc 1 405 0
 636 00a6 3548     		ldr	r0, .L31+20
 637 00a8 0421     		movs	r1, #4
 638 00aa FFF7FEFF 		bl	CYMEMZERO
 406:.\Generated_Source\PSoC5/cyfitter_cfg.c **** 		CYMEMZERO((void CYFAR *)(CYREG_PHUB_CFGMEM1_CFG0), 4u);
 639              		.loc 1 406 0
 640 00ae 3448     		ldr	r0, .L31+24
 641 00b0 0421     		movs	r1, #4
 642 00b2 FFF7FEFF 		bl	CYMEMZERO
 407:.\Generated_Source\PSoC5/cyfitter_cfg.c **** 		CYMEMZERO((void CYFAR *)(CYREG_PHUB_CFGMEM2_CFG0), 4u);
 643              		.loc 1 407 0
 644 00b6 3348     		ldr	r0, .L31+28
 645 00b8 0421     		movs	r1, #4
 646 00ba FFF7FEFF 		bl	CYMEMZERO
 408:.\Generated_Source\PSoC5/cyfitter_cfg.c **** 
 409:.\Generated_Source\PSoC5/cyfitter_cfg.c **** 		/* Enable digital routing */
 410:.\Generated_Source\PSoC5/cyfitter_cfg.c **** 		CY_SET_XTND_REG8((void CYFAR *)CYREG_BCTL0_BANK_CTL, CY_GET_XTND_REG8((void CYFAR *)CYREG_BCTL0_B
 647              		.loc 1 410 0
 648 00be 324B     		ldr	r3, .L31+32
 649 00c0 314A     		ldr	r2, .L31+32
 650 00c2 1278     		ldrb	r2, [r2]
 651 00c4 D2B2     		uxtb	r2, r2
 652 00c6 42F00202 		orr	r2, r2, #2
 653 00ca D2B2     		uxtb	r2, r2
 654 00cc 1A70     		strb	r2, [r3]
 411:.\Generated_Source\PSoC5/cyfitter_cfg.c **** 		CY_SET_XTND_REG8((void CYFAR *)CYREG_BCTL1_BANK_CTL, CY_GET_XTND_REG8((void CYFAR *)CYREG_BCTL1_B
 655              		.loc 1 411 0
 656 00ce 2F4B     		ldr	r3, .L31+36
 657 00d0 2E4A     		ldr	r2, .L31+36
 658 00d2 1278     		ldrb	r2, [r2]
 659 00d4 D2B2     		uxtb	r2, r2
 660 00d6 42F00202 		orr	r2, r2, #2
 661 00da D2B2     		uxtb	r2, r2
 662 00dc 1A70     		strb	r2, [r3]
 412:.\Generated_Source\PSoC5/cyfitter_cfg.c **** 
ARM GAS  C:\Users\pfautley\AppData\Local\Temp\ccifUTKT.s 			page 20


 413:.\Generated_Source\PSoC5/cyfitter_cfg.c **** 		/* Enable UDB array */
 414:.\Generated_Source\PSoC5/cyfitter_cfg.c **** 		CY_SET_XTND_REG8((void CYFAR *)CYREG_PM_ACT_CFG0, CY_GET_XTND_REG8((void CYFAR *)CYREG_PM_ACT_CFG
 663              		.loc 1 414 0
 664 00de 2C4B     		ldr	r3, .L31+40
 665 00e0 2B4A     		ldr	r2, .L31+40
 666 00e2 1278     		ldrb	r2, [r2]
 667 00e4 D2B2     		uxtb	r2, r2
 668 00e6 42F04002 		orr	r2, r2, #64
 669 00ea D2B2     		uxtb	r2, r2
 670 00ec 1A70     		strb	r2, [r3]
 415:.\Generated_Source\PSoC5/cyfitter_cfg.c **** 		CY_SET_XTND_REG8((void CYFAR *)CYREG_PM_AVAIL_CR2, CY_GET_XTND_REG8((void CYFAR *)CYREG_PM_AVAIL_
 671              		.loc 1 415 0
 672 00ee 294B     		ldr	r3, .L31+44
 673 00f0 284A     		ldr	r2, .L31+44
 674 00f2 1278     		ldrb	r2, [r2]
 675 00f4 D2B2     		uxtb	r2, r2
 676 00f6 42F01002 		orr	r2, r2, #16
 677 00fa D2B2     		uxtb	r2, r2
 678 00fc 1A70     		strb	r2, [r3]
 679              	.LBE3:
 416:.\Generated_Source\PSoC5/cyfitter_cfg.c **** 	}
 417:.\Generated_Source\PSoC5/cyfitter_cfg.c **** 
 418:.\Generated_Source\PSoC5/cyfitter_cfg.c **** 	/* Perform second pass device configuration. These items must be configured in specific order afte
 419:.\Generated_Source\PSoC5/cyfitter_cfg.c **** 	CYCONFIGCPY((void CYFAR *)(CYREG_PRT0_DM0), (const void CYFAR *)(BS_IOPINS0_0_VAL), 8u);
 680              		.loc 1 419 0
 681 00fe 2648     		ldr	r0, .L31+48
 682 0100 2649     		ldr	r1, .L31+52
 683 0102 0822     		movs	r2, #8
 684 0104 FFF7FEFF 		bl	CYCONFIGCPY
 420:.\Generated_Source\PSoC5/cyfitter_cfg.c **** 	CYCONFIGCPY((void CYFAR *)(CYREG_PRT15_DR), (const void CYFAR *)(BS_IOPINS0_8_VAL), 10u);
 685              		.loc 1 420 0
 686 0108 2548     		ldr	r0, .L31+56
 687 010a 2649     		ldr	r1, .L31+60
 688 010c 0A22     		movs	r2, #10
 689 010e FFF7FEFF 		bl	CYCONFIGCPY
 421:.\Generated_Source\PSoC5/cyfitter_cfg.c **** 	CYCONFIGCPY((void CYFAR *)(CYREG_PRT1_DR), (const void CYFAR *)(BS_IOPINS0_1_VAL), 10u);
 690              		.loc 1 421 0
 691 0112 2548     		ldr	r0, .L31+64
 692 0114 2549     		ldr	r1, .L31+68
 693 0116 0A22     		movs	r2, #10
 694 0118 FFF7FEFF 		bl	CYCONFIGCPY
 422:.\Generated_Source\PSoC5/cyfitter_cfg.c **** 	CYCONFIGCPY((void CYFAR *)(CYREG_PRT2_DM0), (const void CYFAR *)(BS_IOPINS0_2_VAL), 8u);
 695              		.loc 1 422 0
 696 011c 2448     		ldr	r0, .L31+72
 697 011e 2549     		ldr	r1, .L31+76
 698 0120 0822     		movs	r2, #8
 699 0122 FFF7FEFF 		bl	CYCONFIGCPY
 423:.\Generated_Source\PSoC5/cyfitter_cfg.c **** 	CYCONFIGCPY((void CYFAR *)(CYREG_PRT3_DM0), (const void CYFAR *)(BS_IOPINS0_3_VAL), 8u);
 700              		.loc 1 423 0
 701 0126 2448     		ldr	r0, .L31+80
 702 0128 2449     		ldr	r1, .L31+84
 703 012a 0822     		movs	r2, #8
 704 012c FFF7FEFF 		bl	CYCONFIGCPY
 424:.\Generated_Source\PSoC5/cyfitter_cfg.c **** 	CYCONFIGCPY((void CYFAR *)(CYREG_PRT4_DM0), (const void CYFAR *)(BS_IOPINS0_4_VAL), 8u);
 705              		.loc 1 424 0
 706 0130 2348     		ldr	r0, .L31+88
 707 0132 2449     		ldr	r1, .L31+92
ARM GAS  C:\Users\pfautley\AppData\Local\Temp\ccifUTKT.s 			page 21


 708 0134 0822     		movs	r2, #8
 709 0136 FFF7FEFF 		bl	CYCONFIGCPY
 425:.\Generated_Source\PSoC5/cyfitter_cfg.c **** 	CYCONFIGCPY((void CYFAR *)(CYREG_PRT5_DM0), (const void CYFAR *)(BS_IOPINS0_5_VAL), 8u);
 710              		.loc 1 425 0
 711 013a 2348     		ldr	r0, .L31+96
 712 013c 2349     		ldr	r1, .L31+100
 713 013e 0822     		movs	r2, #8
 714 0140 FFF7FEFF 		bl	CYCONFIGCPY
 426:.\Generated_Source\PSoC5/cyfitter_cfg.c **** 
 427:.\Generated_Source\PSoC5/cyfitter_cfg.c **** 	/* Switch Boost to the precision bandgap reference from its internal reference */
 428:.\Generated_Source\PSoC5/cyfitter_cfg.c **** 	CY_SET_REG8((void CYXDATA *)CYREG_BOOST_CR2, (CY_GET_REG8((void CYXDATA *)CYREG_BOOST_CR2) | 0x08u
 715              		.loc 1 428 0
 716 0144 224B     		ldr	r3, .L31+104
 717 0146 224A     		ldr	r2, .L31+104
 718 0148 1278     		ldrb	r2, [r2]
 719 014a D2B2     		uxtb	r2, r2
 720 014c 42F00802 		orr	r2, r2, #8
 721 0150 D2B2     		uxtb	r2, r2
 722 0152 1A70     		strb	r2, [r3]
 429:.\Generated_Source\PSoC5/cyfitter_cfg.c **** 
 430:.\Generated_Source\PSoC5/cyfitter_cfg.c **** 	/* Perform basic analog initialization to defaults */
 431:.\Generated_Source\PSoC5/cyfitter_cfg.c **** 	AnalogSetDefault();
 723              		.loc 1 431 0
 724 0154 FFF7FEFF 		bl	AnalogSetDefault
 432:.\Generated_Source\PSoC5/cyfitter_cfg.c **** 
 433:.\Generated_Source\PSoC5/cyfitter_cfg.c **** 	/* Configure alternate active mode */
 434:.\Generated_Source\PSoC5/cyfitter_cfg.c **** 	CYCONFIGCPY((void CYFAR *)CYDEV_PM_STBY_BASE, (const void CYFAR *)CYDEV_PM_ACT_BASE, 14u);
 725              		.loc 1 434 0
 726 0158 1E48     		ldr	r0, .L31+108
 727 015a 0D49     		ldr	r1, .L31+40
 728 015c 0E22     		movs	r2, #14
 729 015e FFF7FEFF 		bl	CYCONFIGCPY
 435:.\Generated_Source\PSoC5/cyfitter_cfg.c **** }
 730              		.loc 1 435 0
 731 0162 1837     		adds	r7, r7, #24
 732 0164 BD46     		mov	sp, r7
 733              		@ sp needed
 734 0166 80BD     		pop	{r7, pc}
 735              	.L32:
 736              		.align	2
 737              	.L31:
 738 0168 00480040 		.word	1073760256
 739 016c E8460040 		.word	1073759976
 740 0170 00000000 		.word	cfg_memset_list.4884
 741 0174 2C000000 		.word	cfg_memcpy_list.4885
 742 0178 8C000048 		.word	1207959692
 743 017c 00760040 		.word	1073772032
 744 0180 08760040 		.word	1073772040
 745 0184 10760040 		.word	1073772048
 746 0188 03500140 		.word	1073827843
 747 018c 13500140 		.word	1073827859
 748 0190 A0430040 		.word	1073759136
 749 0194 C2430040 		.word	1073759170
 750 0198 02510040 		.word	1073762562
 751 019c 3C090048 		.word	1207961916
 752 01a0 F0510040 		.word	1073762800
 753 01a4 44090048 		.word	1207961924
ARM GAS  C:\Users\pfautley\AppData\Local\Temp\ccifUTKT.s 			page 22


 754 01a8 10510040 		.word	1073762576
 755 01ac 50090048 		.word	1207961936
 756 01b0 22510040 		.word	1073762594
 757 01b4 5C090048 		.word	1207961948
 758 01b8 32510040 		.word	1073762610
 759 01bc 64090048 		.word	1207961956
 760 01c0 42510040 		.word	1073762626
 761 01c4 6C090048 		.word	1207961964
 762 01c8 52510040 		.word	1073762642
 763 01cc 74090048 		.word	1207961972
 764 01d0 22430040 		.word	1073759010
 765 01d4 B0430040 		.word	1073759152
 766              		.cfi_endproc
 767              	.LFE8:
 768              		.size	cyfitter_cfg, .-cyfitter_cfg
 769              		.section	.rodata
 770              		.align	2
 771              		.type	cfg_memset_list.4884, %object
 772              		.size	cfg_memset_list.4884, 42
 773              	cfg_memset_list.4884:
 774 0000 60510040 		.word	1073762656
 775 0004 1000     		.short	16
 776 0006 C0510040 		.4byte	1073762752
 777 000a 1000     		.short	16
 778 000c 00000140 		.word	1073807360
 779 0010 0010     		.short	4096
 780 0012 80140140 		.4byte	1073812608
 781 0016 8007     		.short	1920
 782 0018 00400140 		.word	1073823744
 783 001c 000A     		.short	2560
 784 001e 004C0140 		.4byte	1073826816
 785 0022 0002     		.short	512
 786 0024 00500140 		.word	1073827840
 787 0028 2000     		.short	32
 788 002a 0000     		.align	2
 789              		.type	cfg_memcpy_list.4885, %object
 790              		.size	cfg_memcpy_list.4885, 10
 791              	cfg_memcpy_list.4885:
 792 002c 00140140 		.word	1073812480
 793 0030 BC080048 		.word	1207961788
 794 0034 8000     		.short	128
 795 0036 0000     		.text
 796              	.Letext0:
 797              		.file 2 "c:\\program files\\cypress\\psoc creator\\3.1\\psoc creator\\import\\gnu_cs\\arm\\4.8.4\\
 798              		.file 3 ".\\Generated_Source\\PSoC5/cytypes.h"