ARM GAS  C:\Users\pfautley\AppData\Local\Temp\ccQrxhuh.s 			page 1


   1              		.syntax unified
   2              		.cpu cortex-m3
   3              		.fpu softvfp
   4              		.eabi_attribute 20, 1
   5              		.eabi_attribute 21, 1
   6              		.eabi_attribute 23, 3
   7              		.eabi_attribute 24, 1
   8              		.eabi_attribute 25, 1
   9              		.eabi_attribute 26, 1
  10              		.eabi_attribute 30, 6
  11              		.eabi_attribute 34, 1
  12              		.eabi_attribute 18, 4
  13              		.thumb
  14              		.file	"emFile_1_SPI0_PM.c"
  15              		.text
  16              	.Ltext0:
  17              		.cfi_sections	.debug_frame
  18              		.data
  19              		.align	2
  20              		.type	emFile_1_SPI0_backup, %object
  21              		.size	emFile_1_SPI0_backup, 2
  22              	emFile_1_SPI0_backup:
  23 0000 00       		.byte	0
  24 0001 0F       		.byte	15
  25 0002 0000     		.section	.text.emFile_1_SPI0_SaveConfig,"ax",%progbits
  26              		.align	2
  27              		.global	emFile_1_SPI0_SaveConfig
  28              		.thumb
  29              		.thumb_func
  30              		.type	emFile_1_SPI0_SaveConfig, %function
  31              	emFile_1_SPI0_SaveConfig:
  32              	.LFB0:
  33              		.file 1 ".\\Generated_Source\\PSoC5\\emFile_1_SPI0_PM.c"
   1:.\Generated_Source\PSoC5/emFile_1_SPI0_PM.c **** /*******************************************************************************
   2:.\Generated_Source\PSoC5/emFile_1_SPI0_PM.c **** * File Name: emFile_1_SPI0_PM.c
   3:.\Generated_Source\PSoC5/emFile_1_SPI0_PM.c **** * Version 2.40
   4:.\Generated_Source\PSoC5/emFile_1_SPI0_PM.c **** *
   5:.\Generated_Source\PSoC5/emFile_1_SPI0_PM.c **** * Description:
   6:.\Generated_Source\PSoC5/emFile_1_SPI0_PM.c **** *  This file contains the setup, control and status commands to support
   7:.\Generated_Source\PSoC5/emFile_1_SPI0_PM.c **** *  component operations in low power mode.
   8:.\Generated_Source\PSoC5/emFile_1_SPI0_PM.c **** *
   9:.\Generated_Source\PSoC5/emFile_1_SPI0_PM.c **** * Note:
  10:.\Generated_Source\PSoC5/emFile_1_SPI0_PM.c **** *
  11:.\Generated_Source\PSoC5/emFile_1_SPI0_PM.c **** ********************************************************************************
  12:.\Generated_Source\PSoC5/emFile_1_SPI0_PM.c **** * Copyright 2008-2012, Cypress Semiconductor Corporation.  All rights reserved.
  13:.\Generated_Source\PSoC5/emFile_1_SPI0_PM.c **** * You may use this file only in accordance with the license, terms, conditions,
  14:.\Generated_Source\PSoC5/emFile_1_SPI0_PM.c **** * disclaimers, and limitations in the end user license agreement accompanying
  15:.\Generated_Source\PSoC5/emFile_1_SPI0_PM.c **** * the software package with which this file was provided.
  16:.\Generated_Source\PSoC5/emFile_1_SPI0_PM.c **** *******************************************************************************/
  17:.\Generated_Source\PSoC5/emFile_1_SPI0_PM.c **** 
  18:.\Generated_Source\PSoC5/emFile_1_SPI0_PM.c **** #include "emFile_1_SPI0_PVT.h"
  19:.\Generated_Source\PSoC5/emFile_1_SPI0_PM.c **** 
  20:.\Generated_Source\PSoC5/emFile_1_SPI0_PM.c **** static emFile_1_SPI0_BACKUP_STRUCT emFile_1_SPI0_backup =
  21:.\Generated_Source\PSoC5/emFile_1_SPI0_PM.c **** {
  22:.\Generated_Source\PSoC5/emFile_1_SPI0_PM.c ****     emFile_1_SPI0_DISABLED,
  23:.\Generated_Source\PSoC5/emFile_1_SPI0_PM.c ****     emFile_1_SPI0_BITCTR_INIT,
  24:.\Generated_Source\PSoC5/emFile_1_SPI0_PM.c ****     #if(CY_UDB_V0)
ARM GAS  C:\Users\pfautley\AppData\Local\Temp\ccQrxhuh.s 			page 2


  25:.\Generated_Source\PSoC5/emFile_1_SPI0_PM.c ****         emFile_1_SPI0_TX_INIT_INTERRUPTS_MASK,
  26:.\Generated_Source\PSoC5/emFile_1_SPI0_PM.c ****         emFile_1_SPI0_RX_INIT_INTERRUPTS_MASK
  27:.\Generated_Source\PSoC5/emFile_1_SPI0_PM.c ****     #endif /* CY_UDB_V0 */
  28:.\Generated_Source\PSoC5/emFile_1_SPI0_PM.c **** };
  29:.\Generated_Source\PSoC5/emFile_1_SPI0_PM.c **** 
  30:.\Generated_Source\PSoC5/emFile_1_SPI0_PM.c **** 
  31:.\Generated_Source\PSoC5/emFile_1_SPI0_PM.c **** /*******************************************************************************
  32:.\Generated_Source\PSoC5/emFile_1_SPI0_PM.c **** * Function Name: emFile_1_SPI0_SaveConfig
  33:.\Generated_Source\PSoC5/emFile_1_SPI0_PM.c **** ********************************************************************************
  34:.\Generated_Source\PSoC5/emFile_1_SPI0_PM.c **** *
  35:.\Generated_Source\PSoC5/emFile_1_SPI0_PM.c **** * Summary:
  36:.\Generated_Source\PSoC5/emFile_1_SPI0_PM.c **** *  Saves SPIM configuration.
  37:.\Generated_Source\PSoC5/emFile_1_SPI0_PM.c **** *
  38:.\Generated_Source\PSoC5/emFile_1_SPI0_PM.c **** * Parameters:
  39:.\Generated_Source\PSoC5/emFile_1_SPI0_PM.c **** *  None.
  40:.\Generated_Source\PSoC5/emFile_1_SPI0_PM.c **** *
  41:.\Generated_Source\PSoC5/emFile_1_SPI0_PM.c **** * Return:
  42:.\Generated_Source\PSoC5/emFile_1_SPI0_PM.c **** *  None.
  43:.\Generated_Source\PSoC5/emFile_1_SPI0_PM.c **** *
  44:.\Generated_Source\PSoC5/emFile_1_SPI0_PM.c **** * Global Variables:
  45:.\Generated_Source\PSoC5/emFile_1_SPI0_PM.c **** *  emFile_1_SPI0_backup - modified when non-retention registers are saved.
  46:.\Generated_Source\PSoC5/emFile_1_SPI0_PM.c **** *
  47:.\Generated_Source\PSoC5/emFile_1_SPI0_PM.c **** * Reentrant:
  48:.\Generated_Source\PSoC5/emFile_1_SPI0_PM.c **** *  No.
  49:.\Generated_Source\PSoC5/emFile_1_SPI0_PM.c **** *
  50:.\Generated_Source\PSoC5/emFile_1_SPI0_PM.c **** *******************************************************************************/
  51:.\Generated_Source\PSoC5/emFile_1_SPI0_PM.c **** void emFile_1_SPI0_SaveConfig(void) 
  52:.\Generated_Source\PSoC5/emFile_1_SPI0_PM.c **** {
  34              		.loc 1 52 0
  35              		.cfi_startproc
  36              		@ args = 0, pretend = 0, frame = 0
  37              		@ frame_needed = 1, uses_anonymous_args = 0
  38              		@ link register save eliminated.
  39 0000 80B4     		push	{r7}
  40              		.cfi_def_cfa_offset 4
  41              		.cfi_offset 7, -4
  42 0002 00AF     		add	r7, sp, #0
  43              		.cfi_def_cfa_register 7
  53:.\Generated_Source\PSoC5/emFile_1_SPI0_PM.c ****     /* Store Status Mask registers */
  54:.\Generated_Source\PSoC5/emFile_1_SPI0_PM.c ****     #if(CY_UDB_V0)
  55:.\Generated_Source\PSoC5/emFile_1_SPI0_PM.c ****        emFile_1_SPI0_backup.cntrPeriod      = emFile_1_SPI0_COUNTER_PERIOD_REG;
  56:.\Generated_Source\PSoC5/emFile_1_SPI0_PM.c ****        emFile_1_SPI0_backup.saveSrTxIntMask = emFile_1_SPI0_TX_STATUS_MASK_REG;
  57:.\Generated_Source\PSoC5/emFile_1_SPI0_PM.c ****        emFile_1_SPI0_backup.saveSrRxIntMask = emFile_1_SPI0_RX_STATUS_MASK_REG;
  58:.\Generated_Source\PSoC5/emFile_1_SPI0_PM.c ****     #endif /* (CY_UDB_V0) */
  59:.\Generated_Source\PSoC5/emFile_1_SPI0_PM.c **** }
  44              		.loc 1 59 0
  45 0004 BD46     		mov	sp, r7
  46              		@ sp needed
  47 0006 5DF8047B 		ldr	r7, [sp], #4
  48 000a 7047     		bx	lr
  49              		.cfi_endproc
  50              	.LFE0:
  51              		.size	emFile_1_SPI0_SaveConfig, .-emFile_1_SPI0_SaveConfig
  52              		.section	.text.emFile_1_SPI0_RestoreConfig,"ax",%progbits
  53              		.align	2
  54              		.global	emFile_1_SPI0_RestoreConfig
  55              		.thumb
ARM GAS  C:\Users\pfautley\AppData\Local\Temp\ccQrxhuh.s 			page 3


  56              		.thumb_func
  57              		.type	emFile_1_SPI0_RestoreConfig, %function
  58              	emFile_1_SPI0_RestoreConfig:
  59              	.LFB1:
  60:.\Generated_Source\PSoC5/emFile_1_SPI0_PM.c **** 
  61:.\Generated_Source\PSoC5/emFile_1_SPI0_PM.c **** 
  62:.\Generated_Source\PSoC5/emFile_1_SPI0_PM.c **** /*******************************************************************************
  63:.\Generated_Source\PSoC5/emFile_1_SPI0_PM.c **** * Function Name: emFile_1_SPI0_RestoreConfig
  64:.\Generated_Source\PSoC5/emFile_1_SPI0_PM.c **** ********************************************************************************
  65:.\Generated_Source\PSoC5/emFile_1_SPI0_PM.c **** *
  66:.\Generated_Source\PSoC5/emFile_1_SPI0_PM.c **** * Summary:
  67:.\Generated_Source\PSoC5/emFile_1_SPI0_PM.c **** *  Restores SPIM configuration.
  68:.\Generated_Source\PSoC5/emFile_1_SPI0_PM.c **** *
  69:.\Generated_Source\PSoC5/emFile_1_SPI0_PM.c **** * Parameters:
  70:.\Generated_Source\PSoC5/emFile_1_SPI0_PM.c **** *  None.
  71:.\Generated_Source\PSoC5/emFile_1_SPI0_PM.c **** *
  72:.\Generated_Source\PSoC5/emFile_1_SPI0_PM.c **** * Return:
  73:.\Generated_Source\PSoC5/emFile_1_SPI0_PM.c **** *  None.
  74:.\Generated_Source\PSoC5/emFile_1_SPI0_PM.c **** *
  75:.\Generated_Source\PSoC5/emFile_1_SPI0_PM.c **** * Global Variables:
  76:.\Generated_Source\PSoC5/emFile_1_SPI0_PM.c **** *  emFile_1_SPI0_backup - used when non-retention registers are restored.
  77:.\Generated_Source\PSoC5/emFile_1_SPI0_PM.c **** *
  78:.\Generated_Source\PSoC5/emFile_1_SPI0_PM.c **** * Side Effects:
  79:.\Generated_Source\PSoC5/emFile_1_SPI0_PM.c **** *  If this API is called without first calling SaveConfig then in the following
  80:.\Generated_Source\PSoC5/emFile_1_SPI0_PM.c **** *  registers will be default values from Customizer:
  81:.\Generated_Source\PSoC5/emFile_1_SPI0_PM.c **** *  emFile_1_SPI0_STATUS_MASK_REG and emFile_1_SPI0_COUNTER_PERIOD_REG.
  82:.\Generated_Source\PSoC5/emFile_1_SPI0_PM.c **** *
  83:.\Generated_Source\PSoC5/emFile_1_SPI0_PM.c **** *******************************************************************************/
  84:.\Generated_Source\PSoC5/emFile_1_SPI0_PM.c **** void emFile_1_SPI0_RestoreConfig(void) 
  85:.\Generated_Source\PSoC5/emFile_1_SPI0_PM.c **** {
  60              		.loc 1 85 0
  61              		.cfi_startproc
  62              		@ args = 0, pretend = 0, frame = 0
  63              		@ frame_needed = 1, uses_anonymous_args = 0
  64              		@ link register save eliminated.
  65 0000 80B4     		push	{r7}
  66              		.cfi_def_cfa_offset 4
  67              		.cfi_offset 7, -4
  68 0002 00AF     		add	r7, sp, #0
  69              		.cfi_def_cfa_register 7
  86:.\Generated_Source\PSoC5/emFile_1_SPI0_PM.c ****     /* Restore the data, saved by SaveConfig() function */
  87:.\Generated_Source\PSoC5/emFile_1_SPI0_PM.c ****     #if(CY_UDB_V0)
  88:.\Generated_Source\PSoC5/emFile_1_SPI0_PM.c ****         emFile_1_SPI0_COUNTER_PERIOD_REG = emFile_1_SPI0_backup.cntrPeriod;
  89:.\Generated_Source\PSoC5/emFile_1_SPI0_PM.c ****         emFile_1_SPI0_TX_STATUS_MASK_REG = ((uint8) emFile_1_SPI0_backup.saveSrTxIntMask);
  90:.\Generated_Source\PSoC5/emFile_1_SPI0_PM.c ****         emFile_1_SPI0_RX_STATUS_MASK_REG = ((uint8) emFile_1_SPI0_backup.saveSrRxIntMask);
  91:.\Generated_Source\PSoC5/emFile_1_SPI0_PM.c ****     #endif /* (CY_UDB_V0) */
  92:.\Generated_Source\PSoC5/emFile_1_SPI0_PM.c **** }
  70              		.loc 1 92 0
  71 0004 BD46     		mov	sp, r7
  72              		@ sp needed
  73 0006 5DF8047B 		ldr	r7, [sp], #4
  74 000a 7047     		bx	lr
  75              		.cfi_endproc
  76              	.LFE1:
  77              		.size	emFile_1_SPI0_RestoreConfig, .-emFile_1_SPI0_RestoreConfig
  78              		.section	.text.emFile_1_SPI0_Sleep,"ax",%progbits
  79              		.align	2
ARM GAS  C:\Users\pfautley\AppData\Local\Temp\ccQrxhuh.s 			page 4


  80              		.global	emFile_1_SPI0_Sleep
  81              		.thumb
  82              		.thumb_func
  83              		.type	emFile_1_SPI0_Sleep, %function
  84              	emFile_1_SPI0_Sleep:
  85              	.LFB2:
  93:.\Generated_Source\PSoC5/emFile_1_SPI0_PM.c **** 
  94:.\Generated_Source\PSoC5/emFile_1_SPI0_PM.c **** 
  95:.\Generated_Source\PSoC5/emFile_1_SPI0_PM.c **** /*******************************************************************************
  96:.\Generated_Source\PSoC5/emFile_1_SPI0_PM.c **** * Function Name: emFile_1_SPI0_Sleep
  97:.\Generated_Source\PSoC5/emFile_1_SPI0_PM.c **** ********************************************************************************
  98:.\Generated_Source\PSoC5/emFile_1_SPI0_PM.c **** *
  99:.\Generated_Source\PSoC5/emFile_1_SPI0_PM.c **** * Summary:
 100:.\Generated_Source\PSoC5/emFile_1_SPI0_PM.c **** *  Prepare SPIM Component goes to sleep.
 101:.\Generated_Source\PSoC5/emFile_1_SPI0_PM.c **** *
 102:.\Generated_Source\PSoC5/emFile_1_SPI0_PM.c **** * Parameters:
 103:.\Generated_Source\PSoC5/emFile_1_SPI0_PM.c **** *  None.
 104:.\Generated_Source\PSoC5/emFile_1_SPI0_PM.c **** *
 105:.\Generated_Source\PSoC5/emFile_1_SPI0_PM.c **** * Return:
 106:.\Generated_Source\PSoC5/emFile_1_SPI0_PM.c **** *  None.
 107:.\Generated_Source\PSoC5/emFile_1_SPI0_PM.c **** *
 108:.\Generated_Source\PSoC5/emFile_1_SPI0_PM.c **** * Global Variables:
 109:.\Generated_Source\PSoC5/emFile_1_SPI0_PM.c **** *  emFile_1_SPI0_backup - modified when non-retention registers are saved.
 110:.\Generated_Source\PSoC5/emFile_1_SPI0_PM.c **** *
 111:.\Generated_Source\PSoC5/emFile_1_SPI0_PM.c **** * Reentrant:
 112:.\Generated_Source\PSoC5/emFile_1_SPI0_PM.c **** *  No.
 113:.\Generated_Source\PSoC5/emFile_1_SPI0_PM.c **** *
 114:.\Generated_Source\PSoC5/emFile_1_SPI0_PM.c **** *******************************************************************************/
 115:.\Generated_Source\PSoC5/emFile_1_SPI0_PM.c **** void emFile_1_SPI0_Sleep(void) 
 116:.\Generated_Source\PSoC5/emFile_1_SPI0_PM.c **** {
  86              		.loc 1 116 0
  87              		.cfi_startproc
  88              		@ args = 0, pretend = 0, frame = 0
  89              		@ frame_needed = 1, uses_anonymous_args = 0
  90 0000 80B5     		push	{r7, lr}
  91              		.cfi_def_cfa_offset 8
  92              		.cfi_offset 7, -8
  93              		.cfi_offset 14, -4
  94 0002 00AF     		add	r7, sp, #0
  95              		.cfi_def_cfa_register 7
 117:.\Generated_Source\PSoC5/emFile_1_SPI0_PM.c ****     /* Save components enable state */
 118:.\Generated_Source\PSoC5/emFile_1_SPI0_PM.c ****     emFile_1_SPI0_backup.enableState = ((uint8) emFile_1_SPI0_IS_ENABLED);
  96              		.loc 1 118 0
  97 0004 084B     		ldr	r3, .L4
  98 0006 1B78     		ldrb	r3, [r3]
  99 0008 DBB2     		uxtb	r3, r3
 100 000a 03F01003 		and	r3, r3, #16
 101 000e 002B     		cmp	r3, #0
 102 0010 0CBF     		ite	eq
 103 0012 0023     		moveq	r3, #0
 104 0014 0123     		movne	r3, #1
 105 0016 DBB2     		uxtb	r3, r3
 106 0018 1A46     		mov	r2, r3
 107 001a 044B     		ldr	r3, .L4+4
 108 001c 1A70     		strb	r2, [r3]
 119:.\Generated_Source\PSoC5/emFile_1_SPI0_PM.c **** 
 120:.\Generated_Source\PSoC5/emFile_1_SPI0_PM.c ****     emFile_1_SPI0_Stop();
ARM GAS  C:\Users\pfautley\AppData\Local\Temp\ccQrxhuh.s 			page 5


 109              		.loc 1 120 0
 110 001e FFF7FEFF 		bl	emFile_1_SPI0_Stop
 121:.\Generated_Source\PSoC5/emFile_1_SPI0_PM.c ****     emFile_1_SPI0_SaveConfig();
 111              		.loc 1 121 0
 112 0022 FFF7FEFF 		bl	emFile_1_SPI0_SaveConfig
 122:.\Generated_Source\PSoC5/emFile_1_SPI0_PM.c **** }
 113              		.loc 1 122 0
 114 0026 80BD     		pop	{r7, pc}
 115              	.L5:
 116              		.align	2
 117              	.L4:
 118 0028 95640040 		.word	1073767573
 119 002c 00000000 		.word	emFile_1_SPI0_backup
 120              		.cfi_endproc
 121              	.LFE2:
 122              		.size	emFile_1_SPI0_Sleep, .-emFile_1_SPI0_Sleep
 123              		.section	.text.emFile_1_SPI0_Wakeup,"ax",%progbits
 124              		.align	2
 125              		.global	emFile_1_SPI0_Wakeup
 126              		.thumb
 127              		.thumb_func
 128              		.type	emFile_1_SPI0_Wakeup, %function
 129              	emFile_1_SPI0_Wakeup:
 130              	.LFB3:
 123:.\Generated_Source\PSoC5/emFile_1_SPI0_PM.c **** 
 124:.\Generated_Source\PSoC5/emFile_1_SPI0_PM.c **** 
 125:.\Generated_Source\PSoC5/emFile_1_SPI0_PM.c **** /*******************************************************************************
 126:.\Generated_Source\PSoC5/emFile_1_SPI0_PM.c **** * Function Name: emFile_1_SPI0_Wakeup
 127:.\Generated_Source\PSoC5/emFile_1_SPI0_PM.c **** ********************************************************************************
 128:.\Generated_Source\PSoC5/emFile_1_SPI0_PM.c **** *
 129:.\Generated_Source\PSoC5/emFile_1_SPI0_PM.c **** * Summary:
 130:.\Generated_Source\PSoC5/emFile_1_SPI0_PM.c **** *  Prepare SPIM Component to wake up.
 131:.\Generated_Source\PSoC5/emFile_1_SPI0_PM.c **** *
 132:.\Generated_Source\PSoC5/emFile_1_SPI0_PM.c **** * Parameters:
 133:.\Generated_Source\PSoC5/emFile_1_SPI0_PM.c **** *  None.
 134:.\Generated_Source\PSoC5/emFile_1_SPI0_PM.c **** *
 135:.\Generated_Source\PSoC5/emFile_1_SPI0_PM.c **** * Return:
 136:.\Generated_Source\PSoC5/emFile_1_SPI0_PM.c **** *  None.
 137:.\Generated_Source\PSoC5/emFile_1_SPI0_PM.c **** *
 138:.\Generated_Source\PSoC5/emFile_1_SPI0_PM.c **** * Global Variables:
 139:.\Generated_Source\PSoC5/emFile_1_SPI0_PM.c **** *  emFile_1_SPI0_backup - used when non-retention registers are restored.
 140:.\Generated_Source\PSoC5/emFile_1_SPI0_PM.c **** *  emFile_1_SPI0_txBufferWrite - modified every function call - resets to
 141:.\Generated_Source\PSoC5/emFile_1_SPI0_PM.c **** *  zero.
 142:.\Generated_Source\PSoC5/emFile_1_SPI0_PM.c **** *  emFile_1_SPI0_txBufferRead - modified every function call - resets to
 143:.\Generated_Source\PSoC5/emFile_1_SPI0_PM.c **** *  zero.
 144:.\Generated_Source\PSoC5/emFile_1_SPI0_PM.c **** *  emFile_1_SPI0_rxBufferWrite - modified every function call - resets to
 145:.\Generated_Source\PSoC5/emFile_1_SPI0_PM.c **** *  zero.
 146:.\Generated_Source\PSoC5/emFile_1_SPI0_PM.c **** *  emFile_1_SPI0_rxBufferRead - modified every function call - resets to
 147:.\Generated_Source\PSoC5/emFile_1_SPI0_PM.c **** *  zero.
 148:.\Generated_Source\PSoC5/emFile_1_SPI0_PM.c **** *
 149:.\Generated_Source\PSoC5/emFile_1_SPI0_PM.c **** * Reentrant:
 150:.\Generated_Source\PSoC5/emFile_1_SPI0_PM.c **** *  No.
 151:.\Generated_Source\PSoC5/emFile_1_SPI0_PM.c **** *
 152:.\Generated_Source\PSoC5/emFile_1_SPI0_PM.c **** *******************************************************************************/
 153:.\Generated_Source\PSoC5/emFile_1_SPI0_PM.c **** void emFile_1_SPI0_Wakeup(void) 
 154:.\Generated_Source\PSoC5/emFile_1_SPI0_PM.c **** {
 131              		.loc 1 154 0
ARM GAS  C:\Users\pfautley\AppData\Local\Temp\ccQrxhuh.s 			page 6


 132              		.cfi_startproc
 133              		@ args = 0, pretend = 0, frame = 0
 134              		@ frame_needed = 1, uses_anonymous_args = 0
 135 0000 80B5     		push	{r7, lr}
 136              		.cfi_def_cfa_offset 8
 137              		.cfi_offset 7, -8
 138              		.cfi_offset 14, -4
 139 0002 00AF     		add	r7, sp, #0
 140              		.cfi_def_cfa_register 7
 155:.\Generated_Source\PSoC5/emFile_1_SPI0_PM.c ****     emFile_1_SPI0_RestoreConfig();
 141              		.loc 1 155 0
 142 0004 FFF7FEFF 		bl	emFile_1_SPI0_RestoreConfig
 156:.\Generated_Source\PSoC5/emFile_1_SPI0_PM.c **** 
 157:.\Generated_Source\PSoC5/emFile_1_SPI0_PM.c ****     #if(emFile_1_SPI0_RX_SOFTWARE_BUF_ENABLED)
 158:.\Generated_Source\PSoC5/emFile_1_SPI0_PM.c ****         emFile_1_SPI0_rxBufferFull  = 0u;
 159:.\Generated_Source\PSoC5/emFile_1_SPI0_PM.c ****         emFile_1_SPI0_rxBufferRead  = 0u;
 160:.\Generated_Source\PSoC5/emFile_1_SPI0_PM.c ****         emFile_1_SPI0_rxBufferWrite = 0u;
 161:.\Generated_Source\PSoC5/emFile_1_SPI0_PM.c ****     #endif /* (emFile_1_SPI0_RX_SOFTWARE_BUF_ENABLED) */
 162:.\Generated_Source\PSoC5/emFile_1_SPI0_PM.c **** 
 163:.\Generated_Source\PSoC5/emFile_1_SPI0_PM.c ****     #if(emFile_1_SPI0_TX_SOFTWARE_BUF_ENABLED)
 164:.\Generated_Source\PSoC5/emFile_1_SPI0_PM.c ****         emFile_1_SPI0_txBufferFull  = 0u;
 165:.\Generated_Source\PSoC5/emFile_1_SPI0_PM.c ****         emFile_1_SPI0_txBufferRead  = 0u;
 166:.\Generated_Source\PSoC5/emFile_1_SPI0_PM.c ****         emFile_1_SPI0_txBufferWrite = 0u;
 167:.\Generated_Source\PSoC5/emFile_1_SPI0_PM.c ****     #endif /* (emFile_1_SPI0_TX_SOFTWARE_BUF_ENABLED) */
 168:.\Generated_Source\PSoC5/emFile_1_SPI0_PM.c **** 
 169:.\Generated_Source\PSoC5/emFile_1_SPI0_PM.c ****     /* Clear any data from the RX and TX FIFO */
 170:.\Generated_Source\PSoC5/emFile_1_SPI0_PM.c ****     emFile_1_SPI0_ClearFIFO();
 143              		.loc 1 170 0
 144 0008 FFF7FEFF 		bl	emFile_1_SPI0_ClearFIFO
 171:.\Generated_Source\PSoC5/emFile_1_SPI0_PM.c **** 
 172:.\Generated_Source\PSoC5/emFile_1_SPI0_PM.c ****     /* Restore components block enable state */
 173:.\Generated_Source\PSoC5/emFile_1_SPI0_PM.c ****     if(0u != emFile_1_SPI0_backup.enableState)
 145              		.loc 1 173 0
 146 000c 034B     		ldr	r3, .L8
 147 000e 1B78     		ldrb	r3, [r3]	@ zero_extendqisi2
 148 0010 002B     		cmp	r3, #0
 149 0012 01D0     		beq	.L6
 174:.\Generated_Source\PSoC5/emFile_1_SPI0_PM.c ****     {
 175:.\Generated_Source\PSoC5/emFile_1_SPI0_PM.c ****         emFile_1_SPI0_Enable();
 150              		.loc 1 175 0
 151 0014 FFF7FEFF 		bl	emFile_1_SPI0_Enable
 152              	.L6:
 176:.\Generated_Source\PSoC5/emFile_1_SPI0_PM.c ****     }
 177:.\Generated_Source\PSoC5/emFile_1_SPI0_PM.c **** }
 153              		.loc 1 177 0
 154 0018 80BD     		pop	{r7, pc}
 155              	.L9:
 156 001a 00BF     		.align	2
 157              	.L8:
 158 001c 00000000 		.word	emFile_1_SPI0_backup
 159              		.cfi_endproc
 160              	.LFE3:
 161              		.size	emFile_1_SPI0_Wakeup, .-emFile_1_SPI0_Wakeup
 162              		.text
 163              	.Letext0:
 164              		.file 2 ".\\Generated_Source\\PSoC5\\cytypes.h"
 165              		.file 3 ".\\Generated_Source\\PSoC5\\emFile_1_SPI0.h"
ARM GAS  C:\Users\pfautley\AppData\Local\Temp\ccQrxhuh.s 			page 7

