ARM GAS  C:\Users\pfautley\AppData\Local\Temp\ccRphpHf.s 			page 1


   1              		.syntax unified
   2              		.cpu cortex-m3
   3              		.fpu softvfp
   4              		.eabi_attribute 20, 1
   5              		.eabi_attribute 21, 1
   6              		.eabi_attribute 23, 3
   7              		.eabi_attribute 24, 1
   8              		.eabi_attribute 25, 1
   9              		.eabi_attribute 26, 1
  10              		.eabi_attribute 30, 6
  11              		.eabi_attribute 34, 1
  12              		.eabi_attribute 18, 4
  13              		.thumb
  14              		.file	"main.c"
  15              		.text
  16              	.Ltext0:
  17              		.cfi_sections	.debug_frame
  18              		.global	i
  19              		.bss
  20              		.align	2
  21              		.type	i, %object
  22              		.size	i, 4
  23              	i:
  24 0000 00000000 		.space	4
  25              		.global	j
  26              		.align	2
  27              		.type	j, %object
  28              		.size	j, 4
  29              	j:
  30 0004 00000000 		.space	4
  31              		.global	Col
  32              		.data
  33              		.align	2
  34              		.type	Col, %object
  35              		.size	Col, 4
  36              	Col:
  37 0000 10000000 		.word	16
  38              		.global	Row
  39              		.align	2
  40              		.type	Row, %object
  41              		.size	Row, 4
  42              	Row:
  43 0004 10000000 		.word	16
  44              		.global	colnow
  45              		.bss
  46              		.align	2
  47              		.type	colnow, %object
  48              		.size	colnow, 4
  49              	colnow:
  50 0008 00000000 		.space	4
  51              		.global	rownow
  52              		.align	2
  53              		.type	rownow, %object
  54              		.size	rownow, 4
  55              	rownow:
  56 000c 00000000 		.space	4
  57              		.global	hri
ARM GAS  C:\Users\pfautley\AppData\Local\Temp\ccRphpHf.s 			page 2


  58              		.align	2
  59              		.type	hri, %object
  60              		.size	hri, 4
  61              	hri:
  62 0010 00000000 		.space	4
  63              		.global	right
  64              		.align	2
  65              		.type	right, %object
  66              		.size	right, 4
  67              	right:
  68 0014 00000000 		.space	4
  69              		.global	left
  70              		.align	2
  71              		.type	left, %object
  72              		.size	left, 4
  73              	left:
  74 0018 00000000 		.space	4
  75              		.global	playerturn
  76              		.align	2
  77              		.type	playerturn, %object
  78              		.size	playerturn, 4
  79              	playerturn:
  80 001c 00000000 		.space	4
  81              		.comm	red,256,4
  82              		.comm	green,256,4
  83              		.comm	blue,256,4
  84              		.global _printf_float
  85              		.thumb
  86              		.global	parity
  87              		.section	.rodata
  88              		.align	2
  89              	.LC0:
  90 0000 4E6F6E65 		.ascii	"None\000"
  90      00
  91 0005 000000   		.align	2
  92              	.LC1:
  93 0008 4F646400 		.ascii	"Odd\000"
  94              		.align	2
  95              	.LC2:
  96 000c 4576656E 		.ascii	"Even\000"
  96      00
  97 0011 000000   		.align	2
  98              	.LC3:
  99 0014 4D61726B 		.ascii	"Mark\000"
  99      00
 100 0019 000000   		.align	2
 101              	.LC4:
 102 001c 53706163 		.ascii	"Space\000"
 102      6500
 103              		.data
 104              		.align	2
 105              		.type	parity, %object
 106              		.size	parity, 20
 107              	parity:
 108 0008 00000000 		.word	.LC0
 109 000c 08000000 		.word	.LC1
 110 0010 0C000000 		.word	.LC2
ARM GAS  C:\Users\pfautley\AppData\Local\Temp\ccRphpHf.s 			page 3


 111 0014 14000000 		.word	.LC3
 112 0018 1C000000 		.word	.LC4
 113              		.global	stop
 114              		.section	.rodata
 115 0022 0000     		.align	2
 116              	.LC5:
 117 0024 3100     		.ascii	"1\000"
 118 0026 0000     		.align	2
 119              	.LC6:
 120 0028 312E3500 		.ascii	"1.5\000"
 121              		.align	2
 122              	.LC7:
 123 002c 3200     		.ascii	"2\000"
 124              		.data
 125              		.align	2
 126              		.type	stop, %object
 127              		.size	stop, 12
 128              	stop:
 129 001c 24000000 		.word	.LC5
 130 0020 28000000 		.word	.LC6
 131 0024 2C000000 		.word	.LC7
 132              		.global	count
 133              		.bss
 134              		.align	1
 135              		.type	count, %object
 136              		.size	count, 2
 137              	count:
 138 0020 0000     		.space	2
 139              		.global	count1
 140              		.align	1
 141              		.type	count1, %object
 142              		.size	count1, 2
 143              	count1:
 144 0022 0000     		.space	2
 145              		.global	bytesReceived
 146              		.align	1
 147              		.type	bytesReceived, %object
 148              		.size	bytesReceived, 2
 149              	bytesReceived:
 150 0024 0000     		.space	2
 151              		.global	wifiRxBuffer
 152 0026 0000     		.align	2
 153              		.type	wifiRxBuffer, %object
 154              		.size	wifiRxBuffer, 64
 155              	wifiRxBuffer:
 156 0028 00000000 		.space	64
 156      00000000 
 156      00000000 
 156      00000000 
 156      00000000 
 157              		.global	tempstr
 158              		.align	2
 159              		.type	tempstr, %object
 160              		.size	tempstr, 64
 161              	tempstr:
 162 0068 00000000 		.space	64
 162      00000000 
ARM GAS  C:\Users\pfautley\AppData\Local\Temp\ccRphpHf.s 			page 4


 162      00000000 
 162      00000000 
 162      00000000 
 163              		.global	RxBuffer0
 164              		.align	2
 165              		.type	RxBuffer0, %object
 166              		.size	RxBuffer0, 1
 167              	RxBuffer0:
 168 00a8 00       		.space	1
 169              		.global	RxBuffer1
 170 00a9 000000   		.align	2
 171              		.type	RxBuffer1, %object
 172              		.size	RxBuffer1, 1
 173              	RxBuffer1:
 174 00ac 00       		.space	1
 175              		.global	size
 176              		.data
 177              		.type	size, %object
 178              		.size	size, 1
 179              	size:
 180 0028 01       		.byte	1
 181              		.global	rxCount
 182 0029 000000   		.bss
 183              		.type	rxCount, %object
 184              		.size	rxCount, 1
 185              	rxCount:
 186 00ad 00       		.space	1
 187 00ae 0000     		.section	.text.InterruptHandler,"ax",%progbits
 188              		.align	2
 189              		.global	InterruptHandler
 190              		.thumb
 191              		.thumb_func
 192              		.type	InterruptHandler, %function
 193              	InterruptHandler:
 194              	.LFB56:
 195              		.file 1 ".\\main.c"
   1:.\main.c      **** /* ========================================
   2:.\main.c      ****  *
   3:.\main.c      ****  * Copyright YOUR COMPANY, THE YEAR
   4:.\main.c      ****  * All Rights Reserved
   5:.\main.c      ****  * UNPUBLISHED, LICENSED SOFTWARE.
   6:.\main.c      ****  *
   7:.\main.c      ****  * CONFIDENTIAL AND PROPRIETARY INFORMATION
   8:.\main.c      ****  * WHICH IS THE PROPERTY OF your company.
   9:.\main.c      ****  *
  10:.\main.c      ****  * ========================================
  11:.\main.c      **** */
  12:.\main.c      **** #include <project.h>
  13:.\main.c      **** #include <stdio.h>
  14:.\main.c      **** #include "FS.h"
  15:.\main.c      **** 
  16:.\main.c      **** //int count = 0;
  17:.\main.c      ****     int i =0;
  18:.\main.c      ****     int j =0;
  19:.\main.c      ****     int Col =16;
  20:.\main.c      ****     int Row =16;
  21:.\main.c      ****     int colnow = 0;
ARM GAS  C:\Users\pfautley\AppData\Local\Temp\ccRphpHf.s 			page 5


  22:.\main.c      ****     int rownow = 0;
  23:.\main.c      ****     int hri = 0;
  24:.\main.c      ****     int right = 0;
  25:.\main.c      ****     int left = 0;
  26:.\main.c      ****     int playerturn=0;
  27:.\main.c      ****     uint8 red[16][16];
  28:.\main.c      ****     uint8 green[16][16];
  29:.\main.c      ****     uint8 blue[16][16];
  30:.\main.c      ****     #include "stdio.h"
  31:.\main.c      **** 
  32:.\main.c      **** #if defined (__GNUC__)
  33:.\main.c      ****     /* Add an explicit reference to the floating point printf library */
  34:.\main.c      ****     /* to allow the usage of floating point conversion specifiers. */
  35:.\main.c      ****     /* This is not linked in by default with the newlib-nano library. */
  36:.\main.c      ****     asm (".global _printf_float");
  37:.\main.c      **** #endif
  38:.\main.c      **** 
  39:.\main.c      **** /* The size of the buffer is equal to maximum packet size of the 
  40:.\main.c      **** *  IN and OUT bulk endpoints. 
  41:.\main.c      **** */
  42:.\main.c      **** #define BUFFER_SIZE 1u
  43:.\main.c      **** #define IN_EP 2u
  44:.\main.c      **** #define OUT_EP 3u
  45:.\main.c      **** 
  46:.\main.c      **** char8 *parity[] = { "None", "Odd", "Even", "Mark", "Space" };
  47:.\main.c      **** char8 *stop[] = { "1", "1.5", "2" };
  48:.\main.c      **** uint16 count = 0;
  49:.\main.c      **** uint16 count1 = 0;
  50:.\main.c      **** uint16 bytesReceived = 0;
  51:.\main.c      **** 
  52:.\main.c      **** char8 wifiRxBuffer[64] = {0};
  53:.\main.c      **** char8 tempstr[64] = {0};
  54:.\main.c      **** 
  55:.\main.c      **** uint8 RxBuffer0[BUFFER_SIZE] = {0};
  56:.\main.c      **** uint8 RxBuffer1[BUFFER_SIZE] = {0};
  57:.\main.c      **** uint8 size = 1;
  58:.\main.c      **** uint8 rxCount = 0;
  59:.\main.c      **** 
  60:.\main.c      **** void USBwork();
  61:.\main.c      **** void move(uint16 movement);
  62:.\main.c      **** void wincheck(int length, int width);
  63:.\main.c      **** 
  64:.\main.c      **** typedef enum {
  65:.\main.c      ****     WIFI_ADVERTISE,
  66:.\main.c      ****     WIFI_CONNECT,
  67:.\main.c      ****     WIFI_PLAY
  68:.\main.c      **** }WifiState;
  69:.\main.c      **** 
  70:.\main.c      **** CY_ISR(InterruptHandler)
  71:.\main.c      **** {
 196              		.loc 1 71 0
 197              		.cfi_startproc
 198              		@ args = 0, pretend = 0, frame = 0
 199              		@ frame_needed = 1, uses_anonymous_args = 0
 200 0000 80B5     		push	{r7, lr}
 201              		.cfi_def_cfa_offset 8
 202              		.cfi_offset 7, -8
ARM GAS  C:\Users\pfautley\AppData\Local\Temp\ccRphpHf.s 			page 6


 203              		.cfi_offset 14, -4
 204 0002 00AF     		add	r7, sp, #0
 205              		.cfi_def_cfa_register 7
  72:.\main.c      **** 	/* Read Status register in order to clear the sticky Terminal Count (TC) bit 
  73:.\main.c      **** 	 * in the status register. Note that the function is not called, but rather 
  74:.\main.c      **** 	 * the status is read directly.
  75:.\main.c      **** 	 */
  76:.\main.c      ****     for(i = 0; i < 8; i++)
 206              		.loc 1 76 0
 207 0004 924B     		ldr	r3, .L25
 208 0006 0022     		movs	r2, #0
 209 0008 1A60     		str	r2, [r3]
 210 000a 6CE1     		b	.L2
 211              	.L24:
  77:.\main.c      ****     {
  78:.\main.c      ****         if (i == 0){
 212              		.loc 1 78 0
 213 000c 904B     		ldr	r3, .L25
 214 000e 1B68     		ldr	r3, [r3]
 215 0010 002B     		cmp	r3, #0
 216 0012 03D1     		bne	.L3
  79:.\main.c      ****             CBA_Write(7);
 217              		.loc 1 79 0
 218 0014 0720     		movs	r0, #7
 219 0016 FFF7FEFF 		bl	CBA_Write
 220 001a 07E0     		b	.L4
 221              	.L3:
  80:.\main.c      ****         }else CBA_Write(i-1);
 222              		.loc 1 80 0
 223 001c 8C4B     		ldr	r3, .L25
 224 001e 1B68     		ldr	r3, [r3]
 225 0020 DBB2     		uxtb	r3, r3
 226 0022 013B     		subs	r3, r3, #1
 227 0024 DBB2     		uxtb	r3, r3
 228 0026 1846     		mov	r0, r3
 229 0028 FFF7FEFF 		bl	CBA_Write
 230              	.L4:
  81:.\main.c      ****         
  82:.\main.c      ****         for(j=0; j < 32; j++)
 231              		.loc 1 82 0
 232 002c 894B     		ldr	r3, .L25+4
 233 002e 0022     		movs	r2, #0
 234 0030 1A60     		str	r2, [r3]
 235 0032 4EE1     		b	.L5
 236              	.L23:
  83:.\main.c      ****         {
  84:.\main.c      ****             if(j<16)
 237              		.loc 1 84 0
 238 0034 874B     		ldr	r3, .L25+4
 239 0036 1B68     		ldr	r3, [r3]
 240 0038 0F2B     		cmp	r3, #15
 241 003a 00F31C81 		bgt	.L6
  85:.\main.c      ****             {
  86:.\main.c      ****                OE_Write(0);
 242              		.loc 1 86 0
 243 003e 0020     		movs	r0, #0
 244 0040 FFF7FEFF 		bl	OE_Write
ARM GAS  C:\Users\pfautley\AppData\Local\Temp\ccRphpHf.s 			page 7


  87:.\main.c      ****                 if(red[i][j]==0)
 245              		.loc 1 87 0
 246 0044 824B     		ldr	r3, .L25
 247 0046 1968     		ldr	r1, [r3]
 248 0048 824B     		ldr	r3, .L25+4
 249 004a 1B68     		ldr	r3, [r3]
 250 004c 824A     		ldr	r2, .L25+8
 251 004e 0901     		lsls	r1, r1, #4
 252 0050 0B44     		add	r3, r3, r1
 253 0052 1344     		add	r3, r3, r2
 254 0054 1B78     		ldrb	r3, [r3]	@ zero_extendqisi2
 255 0056 002B     		cmp	r3, #0
 256 0058 03D1     		bne	.L7
  88:.\main.c      ****                 {
  89:.\main.c      ****                     red_Write(0);
 257              		.loc 1 89 0
 258 005a 0020     		movs	r0, #0
 259 005c FFF7FEFF 		bl	red_Write
 260 0060 0DE0     		b	.L8
 261              	.L7:
  90:.\main.c      ****                     
  91:.\main.c      ****                 }else if (red[i][j]==1)
 262              		.loc 1 91 0
 263 0062 7B4B     		ldr	r3, .L25
 264 0064 1968     		ldr	r1, [r3]
 265 0066 7B4B     		ldr	r3, .L25+4
 266 0068 1B68     		ldr	r3, [r3]
 267 006a 7B4A     		ldr	r2, .L25+8
 268 006c 0901     		lsls	r1, r1, #4
 269 006e 0B44     		add	r3, r3, r1
 270 0070 1344     		add	r3, r3, r2
 271 0072 1B78     		ldrb	r3, [r3]	@ zero_extendqisi2
 272 0074 012B     		cmp	r3, #1
 273 0076 02D1     		bne	.L8
  92:.\main.c      ****                 {
  93:.\main.c      ****                     red_Write(1);
 274              		.loc 1 93 0
 275 0078 0120     		movs	r0, #1
 276 007a FFF7FEFF 		bl	red_Write
 277              	.L8:
  94:.\main.c      ****                 }
  95:.\main.c      ****                 if(green[i][j]==0)
 278              		.loc 1 95 0
 279 007e 744B     		ldr	r3, .L25
 280 0080 1968     		ldr	r1, [r3]
 281 0082 744B     		ldr	r3, .L25+4
 282 0084 1B68     		ldr	r3, [r3]
 283 0086 754A     		ldr	r2, .L25+12
 284 0088 0901     		lsls	r1, r1, #4
 285 008a 0B44     		add	r3, r3, r1
 286 008c 1344     		add	r3, r3, r2
 287 008e 1B78     		ldrb	r3, [r3]	@ zero_extendqisi2
 288 0090 002B     		cmp	r3, #0
 289 0092 03D1     		bne	.L9
  96:.\main.c      ****                 {
  97:.\main.c      ****                     green_Write(0);
 290              		.loc 1 97 0
ARM GAS  C:\Users\pfautley\AppData\Local\Temp\ccRphpHf.s 			page 8


 291 0094 0020     		movs	r0, #0
 292 0096 FFF7FEFF 		bl	green_Write
 293 009a 0DE0     		b	.L10
 294              	.L9:
  98:.\main.c      ****                    
  99:.\main.c      ****                 }else if(green[i][j]==1)
 295              		.loc 1 99 0
 296 009c 6C4B     		ldr	r3, .L25
 297 009e 1968     		ldr	r1, [r3]
 298 00a0 6C4B     		ldr	r3, .L25+4
 299 00a2 1B68     		ldr	r3, [r3]
 300 00a4 6D4A     		ldr	r2, .L25+12
 301 00a6 0901     		lsls	r1, r1, #4
 302 00a8 0B44     		add	r3, r3, r1
 303 00aa 1344     		add	r3, r3, r2
 304 00ac 1B78     		ldrb	r3, [r3]	@ zero_extendqisi2
 305 00ae 012B     		cmp	r3, #1
 306 00b0 02D1     		bne	.L10
 100:.\main.c      ****                 {
 101:.\main.c      ****                     green_Write(1);
 307              		.loc 1 101 0
 308 00b2 0120     		movs	r0, #1
 309 00b4 FFF7FEFF 		bl	green_Write
 310              	.L10:
 102:.\main.c      ****                 }
 103:.\main.c      ****                 if(blue[i][j]==0)
 311              		.loc 1 103 0
 312 00b8 654B     		ldr	r3, .L25
 313 00ba 1968     		ldr	r1, [r3]
 314 00bc 654B     		ldr	r3, .L25+4
 315 00be 1B68     		ldr	r3, [r3]
 316 00c0 674A     		ldr	r2, .L25+16
 317 00c2 0901     		lsls	r1, r1, #4
 318 00c4 0B44     		add	r3, r3, r1
 319 00c6 1344     		add	r3, r3, r2
 320 00c8 1B78     		ldrb	r3, [r3]	@ zero_extendqisi2
 321 00ca 002B     		cmp	r3, #0
 322 00cc 03D1     		bne	.L11
 104:.\main.c      ****                 {
 105:.\main.c      ****                     blue_Write(0);
 323              		.loc 1 105 0
 324 00ce 0020     		movs	r0, #0
 325 00d0 FFF7FEFF 		bl	blue_Write
 326 00d4 0DE0     		b	.L12
 327              	.L11:
 106:.\main.c      ****                    
 107:.\main.c      ****                 }else if(blue[i][j]==1)
 328              		.loc 1 107 0
 329 00d6 5E4B     		ldr	r3, .L25
 330 00d8 1968     		ldr	r1, [r3]
 331 00da 5E4B     		ldr	r3, .L25+4
 332 00dc 1B68     		ldr	r3, [r3]
 333 00de 604A     		ldr	r2, .L25+16
 334 00e0 0901     		lsls	r1, r1, #4
 335 00e2 0B44     		add	r3, r3, r1
 336 00e4 1344     		add	r3, r3, r2
 337 00e6 1B78     		ldrb	r3, [r3]	@ zero_extendqisi2
ARM GAS  C:\Users\pfautley\AppData\Local\Temp\ccRphpHf.s 			page 9


 338 00e8 012B     		cmp	r3, #1
 339 00ea 02D1     		bne	.L12
 108:.\main.c      ****                 {
 109:.\main.c      ****                     blue_Write(1);
 340              		.loc 1 109 0
 341 00ec 0120     		movs	r0, #1
 342 00ee FFF7FEFF 		bl	blue_Write
 343              	.L12:
 110:.\main.c      ****                 }
 111:.\main.c      ****                 
 112:.\main.c      ****                   if(red[i+8][j]==0)
 344              		.loc 1 112 0
 345 00f2 574B     		ldr	r3, .L25
 346 00f4 1B68     		ldr	r3, [r3]
 347 00f6 03F10801 		add	r1, r3, #8
 348 00fa 564B     		ldr	r3, .L25+4
 349 00fc 1B68     		ldr	r3, [r3]
 350 00fe 564A     		ldr	r2, .L25+8
 351 0100 0901     		lsls	r1, r1, #4
 352 0102 0B44     		add	r3, r3, r1
 353 0104 1344     		add	r3, r3, r2
 354 0106 1B78     		ldrb	r3, [r3]	@ zero_extendqisi2
 355 0108 002B     		cmp	r3, #0
 356 010a 03D1     		bne	.L13
 113:.\main.c      ****                 {
 114:.\main.c      ****                     red2_Write(0);
 357              		.loc 1 114 0
 358 010c 0020     		movs	r0, #0
 359 010e FFF7FEFF 		bl	red2_Write
 360 0112 0FE0     		b	.L14
 361              	.L13:
 115:.\main.c      ****                     
 116:.\main.c      ****                 }else if (red[i+8][j]==1)
 362              		.loc 1 116 0
 363 0114 4E4B     		ldr	r3, .L25
 364 0116 1B68     		ldr	r3, [r3]
 365 0118 03F10801 		add	r1, r3, #8
 366 011c 4D4B     		ldr	r3, .L25+4
 367 011e 1B68     		ldr	r3, [r3]
 368 0120 4D4A     		ldr	r2, .L25+8
 369 0122 0901     		lsls	r1, r1, #4
 370 0124 0B44     		add	r3, r3, r1
 371 0126 1344     		add	r3, r3, r2
 372 0128 1B78     		ldrb	r3, [r3]	@ zero_extendqisi2
 373 012a 012B     		cmp	r3, #1
 374 012c 02D1     		bne	.L14
 117:.\main.c      ****                 {
 118:.\main.c      ****                     red2_Write(1);
 375              		.loc 1 118 0
 376 012e 0120     		movs	r0, #1
 377 0130 FFF7FEFF 		bl	red2_Write
 378              	.L14:
 119:.\main.c      ****                 }
 120:.\main.c      ****                 if(green[i+8][j]==0)
 379              		.loc 1 120 0
 380 0134 464B     		ldr	r3, .L25
 381 0136 1B68     		ldr	r3, [r3]
ARM GAS  C:\Users\pfautley\AppData\Local\Temp\ccRphpHf.s 			page 10


 382 0138 03F10801 		add	r1, r3, #8
 383 013c 454B     		ldr	r3, .L25+4
 384 013e 1B68     		ldr	r3, [r3]
 385 0140 464A     		ldr	r2, .L25+12
 386 0142 0901     		lsls	r1, r1, #4
 387 0144 0B44     		add	r3, r3, r1
 388 0146 1344     		add	r3, r3, r2
 389 0148 1B78     		ldrb	r3, [r3]	@ zero_extendqisi2
 390 014a 002B     		cmp	r3, #0
 391 014c 03D1     		bne	.L15
 121:.\main.c      ****                 {
 122:.\main.c      ****                     green2_Write(0);
 392              		.loc 1 122 0
 393 014e 0020     		movs	r0, #0
 394 0150 FFF7FEFF 		bl	green2_Write
 395 0154 0FE0     		b	.L16
 396              	.L15:
 123:.\main.c      ****                     
 124:.\main.c      ****                 }else if(green[i+8][j]==1)
 397              		.loc 1 124 0
 398 0156 3E4B     		ldr	r3, .L25
 399 0158 1B68     		ldr	r3, [r3]
 400 015a 03F10801 		add	r1, r3, #8
 401 015e 3D4B     		ldr	r3, .L25+4
 402 0160 1B68     		ldr	r3, [r3]
 403 0162 3E4A     		ldr	r2, .L25+12
 404 0164 0901     		lsls	r1, r1, #4
 405 0166 0B44     		add	r3, r3, r1
 406 0168 1344     		add	r3, r3, r2
 407 016a 1B78     		ldrb	r3, [r3]	@ zero_extendqisi2
 408 016c 012B     		cmp	r3, #1
 409 016e 02D1     		bne	.L16
 125:.\main.c      ****                 {
 126:.\main.c      ****                     green2_Write(1);
 410              		.loc 1 126 0
 411 0170 0120     		movs	r0, #1
 412 0172 FFF7FEFF 		bl	green2_Write
 413              	.L16:
 127:.\main.c      ****                 }
 128:.\main.c      ****                 if(blue[i+8][j]==0)
 414              		.loc 1 128 0
 415 0176 364B     		ldr	r3, .L25
 416 0178 1B68     		ldr	r3, [r3]
 417 017a 03F10801 		add	r1, r3, #8
 418 017e 354B     		ldr	r3, .L25+4
 419 0180 1B68     		ldr	r3, [r3]
 420 0182 374A     		ldr	r2, .L25+16
 421 0184 0901     		lsls	r1, r1, #4
 422 0186 0B44     		add	r3, r3, r1
 423 0188 1344     		add	r3, r3, r2
 424 018a 1B78     		ldrb	r3, [r3]	@ zero_extendqisi2
 425 018c 002B     		cmp	r3, #0
 426 018e 03D1     		bne	.L17
 129:.\main.c      ****                 {
 130:.\main.c      ****                     blue2_Write(0);
 427              		.loc 1 130 0
 428 0190 0020     		movs	r0, #0
ARM GAS  C:\Users\pfautley\AppData\Local\Temp\ccRphpHf.s 			page 11


 429 0192 FFF7FEFF 		bl	blue2_Write
 430 0196 0FE0     		b	.L18
 431              	.L17:
 131:.\main.c      ****                     
 132:.\main.c      ****                 }else if(blue[i+8][j]==1)
 432              		.loc 1 132 0
 433 0198 2D4B     		ldr	r3, .L25
 434 019a 1B68     		ldr	r3, [r3]
 435 019c 03F10801 		add	r1, r3, #8
 436 01a0 2C4B     		ldr	r3, .L25+4
 437 01a2 1B68     		ldr	r3, [r3]
 438 01a4 2E4A     		ldr	r2, .L25+16
 439 01a6 0901     		lsls	r1, r1, #4
 440 01a8 0B44     		add	r3, r3, r1
 441 01aa 1344     		add	r3, r3, r2
 442 01ac 1B78     		ldrb	r3, [r3]	@ zero_extendqisi2
 443 01ae 012B     		cmp	r3, #1
 444 01b0 02D1     		bne	.L18
 133:.\main.c      ****                 {
 134:.\main.c      ****                     blue2_Write(1);
 445              		.loc 1 134 0
 446 01b2 0120     		movs	r0, #1
 447 01b4 FFF7FEFF 		bl	blue2_Write
 448              	.L18:
 135:.\main.c      ****                 }
 136:.\main.c      ****                 if(blue[i][j]==1||red[i][j]==1||green[i][j]==1||blue[i+8][j]==1||red[i+8][j]==1||gr
 449              		.loc 1 136 0
 450 01b8 254B     		ldr	r3, .L25
 451 01ba 1968     		ldr	r1, [r3]
 452 01bc 254B     		ldr	r3, .L25+4
 453 01be 1B68     		ldr	r3, [r3]
 454 01c0 274A     		ldr	r2, .L25+16
 455 01c2 0901     		lsls	r1, r1, #4
 456 01c4 0B44     		add	r3, r3, r1
 457 01c6 1344     		add	r3, r3, r2
 458 01c8 1B78     		ldrb	r3, [r3]	@ zero_extendqisi2
 459 01ca 012B     		cmp	r3, #1
 460 01cc 3CD0     		beq	.L19
 461              		.loc 1 136 0 is_stmt 0 discriminator 1
 462 01ce 204B     		ldr	r3, .L25
 463 01d0 1968     		ldr	r1, [r3]
 464 01d2 204B     		ldr	r3, .L25+4
 465 01d4 1B68     		ldr	r3, [r3]
 466 01d6 204A     		ldr	r2, .L25+8
 467 01d8 0901     		lsls	r1, r1, #4
 468 01da 0B44     		add	r3, r3, r1
 469 01dc 1344     		add	r3, r3, r2
 470 01de 1B78     		ldrb	r3, [r3]	@ zero_extendqisi2
 471 01e0 012B     		cmp	r3, #1
 472 01e2 31D0     		beq	.L19
 473 01e4 1A4B     		ldr	r3, .L25
 474 01e6 1968     		ldr	r1, [r3]
 475 01e8 1A4B     		ldr	r3, .L25+4
 476 01ea 1B68     		ldr	r3, [r3]
 477 01ec 1B4A     		ldr	r2, .L25+12
 478 01ee 0901     		lsls	r1, r1, #4
 479 01f0 0B44     		add	r3, r3, r1
ARM GAS  C:\Users\pfautley\AppData\Local\Temp\ccRphpHf.s 			page 12


 480 01f2 1344     		add	r3, r3, r2
 481 01f4 1B78     		ldrb	r3, [r3]	@ zero_extendqisi2
 482 01f6 012B     		cmp	r3, #1
 483 01f8 26D0     		beq	.L19
 484 01fa 154B     		ldr	r3, .L25
 485 01fc 1B68     		ldr	r3, [r3]
 486 01fe 03F10801 		add	r1, r3, #8
 487 0202 144B     		ldr	r3, .L25+4
 488 0204 1B68     		ldr	r3, [r3]
 489 0206 164A     		ldr	r2, .L25+16
 490 0208 0901     		lsls	r1, r1, #4
 491 020a 0B44     		add	r3, r3, r1
 492 020c 1344     		add	r3, r3, r2
 493 020e 1B78     		ldrb	r3, [r3]	@ zero_extendqisi2
 494 0210 012B     		cmp	r3, #1
 495 0212 19D0     		beq	.L19
 496 0214 0E4B     		ldr	r3, .L25
 497 0216 1B68     		ldr	r3, [r3]
 498 0218 03F10801 		add	r1, r3, #8
 499 021c 0D4B     		ldr	r3, .L25+4
 500 021e 1B68     		ldr	r3, [r3]
 501 0220 0D4A     		ldr	r2, .L25+8
 502 0222 0901     		lsls	r1, r1, #4
 503 0224 0B44     		add	r3, r3, r1
 504 0226 1344     		add	r3, r3, r2
 505 0228 1B78     		ldrb	r3, [r3]	@ zero_extendqisi2
 506 022a 012B     		cmp	r3, #1
 507 022c 0CD0     		beq	.L19
 508 022e 084B     		ldr	r3, .L25
 509 0230 1B68     		ldr	r3, [r3]
 510 0232 03F10801 		add	r1, r3, #8
 511 0236 074B     		ldr	r3, .L25+4
 512 0238 1B68     		ldr	r3, [r3]
 513 023a 084A     		ldr	r2, .L25+12
 514 023c 0901     		lsls	r1, r1, #4
 515 023e 0B44     		add	r3, r3, r1
 516 0240 1344     		add	r3, r3, r2
 517 0242 1B78     		ldrb	r3, [r3]	@ zero_extendqisi2
 518 0244 012B     		cmp	r3, #1
 519 0246 0DD1     		bne	.L20
 520              	.L19:
 137:.\main.c      ****                 {
 138:.\main.c      ****                     OE_Write(0);
 521              		.loc 1 138 0 is_stmt 1
 522 0248 0020     		movs	r0, #0
 523 024a FFF7FEFF 		bl	OE_Write
 524 024e 0CE0     		b	.L21
 525              	.L26:
 526              		.align	2
 527              	.L25:
 528 0250 00000000 		.word	i
 529 0254 00000000 		.word	j
 530 0258 00000000 		.word	red
 531 025c 00000000 		.word	green
 532 0260 00000000 		.word	blue
 533              	.L20:
 139:.\main.c      ****                 }else
ARM GAS  C:\Users\pfautley\AppData\Local\Temp\ccRphpHf.s 			page 13


 140:.\main.c      ****                 {
 141:.\main.c      ****                     OE_Write(1);
 534              		.loc 1 141 0
 535 0264 0120     		movs	r0, #1
 536 0266 FFF7FEFF 		bl	OE_Write
 537              	.L21:
 142:.\main.c      ****                 }
 143:.\main.c      ****                 clk_Write(1);
 538              		.loc 1 143 0
 539 026a 0120     		movs	r0, #1
 540 026c FFF7FEFF 		bl	clk_Write
 144:.\main.c      ****                 clk_Write(0);
 541              		.loc 1 144 0
 542 0270 0020     		movs	r0, #0
 543 0272 FFF7FEFF 		bl	clk_Write
 544              	.L6:
 145:.\main.c      ****             }
 146:.\main.c      ****             
 147:.\main.c      ****             if(j>15)
 545              		.loc 1 147 0
 546 0276 204B     		ldr	r3, .L27
 547 0278 1B68     		ldr	r3, [r3]
 548 027a 0F2B     		cmp	r3, #15
 549 027c 24DD     		ble	.L22
 148:.\main.c      ****             {
 149:.\main.c      ****                 blue_Write(0);
 550              		.loc 1 149 0
 551 027e 0020     		movs	r0, #0
 552 0280 FFF7FEFF 		bl	blue_Write
 150:.\main.c      ****                 red_Write(0);
 553              		.loc 1 150 0
 554 0284 0020     		movs	r0, #0
 555 0286 FFF7FEFF 		bl	red_Write
 151:.\main.c      ****                 green_Write(0);
 556              		.loc 1 151 0
 557 028a 0020     		movs	r0, #0
 558 028c FFF7FEFF 		bl	green_Write
 152:.\main.c      ****                  blue2_Write(0);
 559              		.loc 1 152 0
 560 0290 0020     		movs	r0, #0
 561 0292 FFF7FEFF 		bl	blue2_Write
 153:.\main.c      ****                 red2_Write(0);
 562              		.loc 1 153 0
 563 0296 0020     		movs	r0, #0
 564 0298 FFF7FEFF 		bl	red2_Write
 154:.\main.c      ****                 green2_Write(0);
 565              		.loc 1 154 0
 566 029c 0020     		movs	r0, #0
 567 029e FFF7FEFF 		bl	green2_Write
 155:.\main.c      ****                 clk_Write(1);
 568              		.loc 1 155 0
 569 02a2 0120     		movs	r0, #1
 570 02a4 FFF7FEFF 		bl	clk_Write
 156:.\main.c      ****                 clk_Write(0);
 571              		.loc 1 156 0
 572 02a8 0020     		movs	r0, #0
 573 02aa FFF7FEFF 		bl	clk_Write
ARM GAS  C:\Users\pfautley\AppData\Local\Temp\ccRphpHf.s 			page 14


 157:.\main.c      ****                 
 158:.\main.c      ****                 if (j == 31)
 574              		.loc 1 158 0
 575 02ae 124B     		ldr	r3, .L27
 576 02b0 1B68     		ldr	r3, [r3]
 577 02b2 1F2B     		cmp	r3, #31
 578 02b4 08D1     		bne	.L22
 159:.\main.c      ****                 {
 160:.\main.c      ****                     OE_Write(1);
 579              		.loc 1 160 0
 580 02b6 0120     		movs	r0, #1
 581 02b8 FFF7FEFF 		bl	OE_Write
 161:.\main.c      ****                     Latch_Write(1);
 582              		.loc 1 161 0
 583 02bc 0120     		movs	r0, #1
 584 02be FFF7FEFF 		bl	Latch_Write
 162:.\main.c      ****                     Latch_Write(0);
 585              		.loc 1 162 0
 586 02c2 0020     		movs	r0, #0
 587 02c4 FFF7FEFF 		bl	Latch_Write
 588              	.L22:
  82:.\main.c      ****         for(j=0; j < 32; j++)
 589              		.loc 1 82 0
 590 02c8 0B4B     		ldr	r3, .L27
 591 02ca 1B68     		ldr	r3, [r3]
 592 02cc 5A1C     		adds	r2, r3, #1
 593 02ce 0A4B     		ldr	r3, .L27
 594 02d0 1A60     		str	r2, [r3]
 595              	.L5:
  82:.\main.c      ****         for(j=0; j < 32; j++)
 596              		.loc 1 82 0 is_stmt 0 discriminator 1
 597 02d2 094B     		ldr	r3, .L27
 598 02d4 1B68     		ldr	r3, [r3]
 599 02d6 1F2B     		cmp	r3, #31
 600 02d8 7FF7ACAE 		ble	.L23
  76:.\main.c      ****     for(i = 0; i < 8; i++)
 601              		.loc 1 76 0 is_stmt 1
 602 02dc 074B     		ldr	r3, .L27+4
 603 02de 1B68     		ldr	r3, [r3]
 604 02e0 5A1C     		adds	r2, r3, #1
 605 02e2 064B     		ldr	r3, .L27+4
 606 02e4 1A60     		str	r2, [r3]
 607              	.L2:
  76:.\main.c      ****     for(i = 0; i < 8; i++)
 608              		.loc 1 76 0 is_stmt 0 discriminator 1
 609 02e6 054B     		ldr	r3, .L27+4
 610 02e8 1B68     		ldr	r3, [r3]
 611 02ea 072B     		cmp	r3, #7
 612 02ec 7FF78EAE 		ble	.L24
 163:.\main.c      ****                 }
 164:.\main.c      ****             }
 165:.\main.c      ****         }
 166:.\main.c      ****     }
 167:.\main.c      ****    	Timer_1_STATUS;
 613              		.loc 1 167 0 is_stmt 1
 614 02f0 034B     		ldr	r3, .L27+8
 615 02f2 1B78     		ldrb	r3, [r3]
ARM GAS  C:\Users\pfautley\AppData\Local\Temp\ccRphpHf.s 			page 15


 168:.\main.c      **** }
 616              		.loc 1 168 0
 617 02f4 80BD     		pop	{r7, pc}
 618              	.L28:
 619 02f6 00BF     		.align	2
 620              	.L27:
 621 02f8 00000000 		.word	j
 622 02fc 00000000 		.word	i
 623 0300 61640040 		.word	1073767521
 624              		.cfi_endproc
 625              	.LFE56:
 626              		.size	InterruptHandler, .-InterruptHandler
 627              		.section	.text.RxHandler,"ax",%progbits
 628              		.align	2
 629              		.global	RxHandler
 630              		.thumb
 631              		.thumb_func
 632              		.type	RxHandler, %function
 633              	RxHandler:
 634              	.LFB57:
 169:.\main.c      **** 
 170:.\main.c      **** CY_ISR(RxHandler){
 635              		.loc 1 170 0
 636              		.cfi_startproc
 637              		@ args = 0, pretend = 0, frame = 8
 638              		@ frame_needed = 1, uses_anonymous_args = 0
 639 0000 90B5     		push	{r4, r7, lr}
 640              		.cfi_def_cfa_offset 12
 641              		.cfi_offset 4, -12
 642              		.cfi_offset 7, -8
 643              		.cfi_offset 14, -4
 644 0002 83B0     		sub	sp, sp, #12
 645              		.cfi_def_cfa_offset 24
 646 0004 00AF     		add	r7, sp, #0
 647              		.cfi_def_cfa_register 7
 171:.\main.c      ****     uint8 rxStatus;
 172:.\main.c      ****     
 173:.\main.c      ****     rxStatus = UART_1_ReadRxStatus();
 648              		.loc 1 173 0
 649 0006 FFF7FEFF 		bl	UART_1_ReadRxStatus
 650 000a 0346     		mov	r3, r0
 651 000c FB71     		strb	r3, [r7, #7]
 174:.\main.c      ****     
 175:.\main.c      ****     while(rxStatus & UART_1_RX_STS_FIFO_NOTEMPTY){
 652              		.loc 1 175 0
 653 000e 2FE0     		b	.L30
 654              	.L34:
 176:.\main.c      ****         
 177:.\main.c      ****         wifiRxBuffer[rxCount] = UART_1_ReadRxData();
 655              		.loc 1 177 0
 656 0010 1F4B     		ldr	r3, .L36
 657 0012 1B78     		ldrb	r3, [r3]	@ zero_extendqisi2
 658 0014 1C46     		mov	r4, r3
 659 0016 FFF7FEFF 		bl	UART_1_ReadRxData
 660 001a 0346     		mov	r3, r0
 661 001c 1A46     		mov	r2, r3
 662 001e 1D4B     		ldr	r3, .L36+4
ARM GAS  C:\Users\pfautley\AppData\Local\Temp\ccRphpHf.s 			page 16


 663 0020 1A55     		strb	r2, [r3, r4]
 178:.\main.c      ****         
 179:.\main.c      ****         if(wifiRxBuffer[rxCount] == '\n'){
 664              		.loc 1 179 0
 665 0022 1B4B     		ldr	r3, .L36
 666 0024 1B78     		ldrb	r3, [r3]	@ zero_extendqisi2
 667 0026 1B4A     		ldr	r2, .L36+4
 668 0028 D35C     		ldrb	r3, [r2, r3]	@ zero_extendqisi2
 669 002a 0A2B     		cmp	r3, #10
 670 002c 16D1     		bne	.L31
 180:.\main.c      ****             while(USBUART_1_CDCIsReady() == 0u);
 671              		.loc 1 180 0
 672 002e 00BF     		nop
 673              	.L32:
 674              		.loc 1 180 0 is_stmt 0 discriminator 1
 675 0030 FFF7FEFF 		bl	USBUART_1_CDCIsReady
 676 0034 0346     		mov	r3, r0
 677 0036 002B     		cmp	r3, #0
 678 0038 FAD0     		beq	.L32
 181:.\main.c      ****             
 182:.\main.c      ****             strncpy(tempstr, wifiRxBuffer, rxCount);
 679              		.loc 1 182 0 is_stmt 1
 680 003a 154B     		ldr	r3, .L36
 681 003c 1B78     		ldrb	r3, [r3]	@ zero_extendqisi2
 682 003e 1648     		ldr	r0, .L36+8
 683 0040 1449     		ldr	r1, .L36+4
 684 0042 1A46     		mov	r2, r3
 685 0044 FFF7FEFF 		bl	strncpy
 183:.\main.c      ****             USBUART_1_PutData(tempstr, rxCount);
 686              		.loc 1 183 0
 687 0048 114B     		ldr	r3, .L36
 688 004a 1B78     		ldrb	r3, [r3]	@ zero_extendqisi2
 689 004c 1248     		ldr	r0, .L36+8
 690 004e 1946     		mov	r1, r3
 691 0050 FFF7FEFF 		bl	USBUART_1_PutData
 184:.\main.c      ****             
 185:.\main.c      **** //            while(USBUART_1_CDCIsReady() == 0u);
 186:.\main.c      **** //            USBUART_1_PutData(tempstr, rxCount);
 187:.\main.c      ****             rxCount = 0;
 692              		.loc 1 187 0
 693 0054 0E4B     		ldr	r3, .L36
 694 0056 0022     		movs	r2, #0
 695 0058 1A70     		strb	r2, [r3]
 696 005a 05E0     		b	.L33
 697              	.L31:
 188:.\main.c      ****             
 189:.\main.c      ****         }else{
 190:.\main.c      ****             rxCount++;
 698              		.loc 1 190 0
 699 005c 0C4B     		ldr	r3, .L36
 700 005e 1B78     		ldrb	r3, [r3]	@ zero_extendqisi2
 701 0060 0133     		adds	r3, r3, #1
 702 0062 DAB2     		uxtb	r2, r3
 703 0064 0A4B     		ldr	r3, .L36
 704 0066 1A70     		strb	r2, [r3]
 705              	.L33:
 191:.\main.c      ****         }
ARM GAS  C:\Users\pfautley\AppData\Local\Temp\ccRphpHf.s 			page 17


 192:.\main.c      ****         rxStatus = UART_1_ReadRxStatus();
 706              		.loc 1 192 0
 707 0068 FFF7FEFF 		bl	UART_1_ReadRxStatus
 708 006c 0346     		mov	r3, r0
 709 006e FB71     		strb	r3, [r7, #7]
 710              	.L30:
 175:.\main.c      ****     while(rxStatus & UART_1_RX_STS_FIFO_NOTEMPTY){
 711              		.loc 1 175 0 discriminator 1
 712 0070 FB79     		ldrb	r3, [r7, #7]	@ zero_extendqisi2
 713 0072 03F02003 		and	r3, r3, #32
 714 0076 002B     		cmp	r3, #0
 715 0078 CAD1     		bne	.L34
 193:.\main.c      ****     }
 194:.\main.c      ****     if(rxCount >= 64){
 716              		.loc 1 194 0
 717 007a 054B     		ldr	r3, .L36
 718 007c 1B78     		ldrb	r3, [r3]	@ zero_extendqisi2
 719 007e 3F2B     		cmp	r3, #63
 720 0080 02D9     		bls	.L29
 195:.\main.c      ****         rxCount = 0;
 721              		.loc 1 195 0
 722 0082 034B     		ldr	r3, .L36
 723 0084 0022     		movs	r2, #0
 724 0086 1A70     		strb	r2, [r3]
 725              	.L29:
 196:.\main.c      ****     }
 197:.\main.c      **** }
 726              		.loc 1 197 0
 727 0088 0C37     		adds	r7, r7, #12
 728 008a BD46     		mov	sp, r7
 729              		@ sp needed
 730 008c 90BD     		pop	{r4, r7, pc}
 731              	.L37:
 732 008e 00BF     		.align	2
 733              	.L36:
 734 0090 00000000 		.word	rxCount
 735 0094 00000000 		.word	wifiRxBuffer
 736 0098 00000000 		.word	tempstr
 737              		.cfi_endproc
 738              	.LFE57:
 739              		.size	RxHandler, .-RxHandler
 740              		.section	.text.TxHandler,"ax",%progbits
 741              		.align	2
 742              		.global	TxHandler
 743              		.thumb
 744              		.thumb_func
 745              		.type	TxHandler, %function
 746              	TxHandler:
 747              	.LFB58:
 198:.\main.c      **** 
 199:.\main.c      **** CY_ISR(TxHandler){
 748              		.loc 1 199 0
 749              		.cfi_startproc
 750              		@ args = 0, pretend = 0, frame = 0
 751              		@ frame_needed = 1, uses_anonymous_args = 0
 752              		@ link register save eliminated.
 753 0000 80B4     		push	{r7}
ARM GAS  C:\Users\pfautley\AppData\Local\Temp\ccRphpHf.s 			page 18


 754              		.cfi_def_cfa_offset 4
 755              		.cfi_offset 7, -4
 756 0002 00AF     		add	r7, sp, #0
 757              		.cfi_def_cfa_register 7
 200:.\main.c      ****     
 201:.\main.c      **** }
 758              		.loc 1 201 0
 759 0004 BD46     		mov	sp, r7
 760              		@ sp needed
 761 0006 5DF8047B 		ldr	r7, [sp], #4
 762 000a 7047     		bx	lr
 763              		.cfi_endproc
 764              	.LFE58:
 765              		.size	TxHandler, .-TxHandler
 766              		.section	.text.main,"ax",%progbits
 767              		.align	2
 768              		.global	main
 769              		.thumb
 770              		.thumb_func
 771              		.type	main, %function
 772              	main:
 773              	.LFB59:
 202:.\main.c      **** 
 203:.\main.c      **** int main()
 204:.\main.c      **** {
 774              		.loc 1 204 0
 775              		.cfi_startproc
 776              		@ args = 0, pretend = 0, frame = 16
 777              		@ frame_needed = 1, uses_anonymous_args = 0
 778 0000 80B5     		push	{r7, lr}
 779              		.cfi_def_cfa_offset 8
 780              		.cfi_offset 7, -8
 781              		.cfi_offset 14, -4
 782 0002 84B0     		sub	sp, sp, #16
 783              		.cfi_def_cfa_offset 24
 784 0004 00AF     		add	r7, sp, #0
 785              		.cfi_def_cfa_register 7
 205:.\main.c      ****     /* Place your initialization/startup code here (e.g. MyInst_Start()) */
 206:.\main.c      ****     FS_Init();
 786              		.loc 1 206 0
 787 0006 FFF7FEFF 		bl	FS_Init
 207:.\main.c      ****     
 208:.\main.c      **** //    char plays[]="Player One did another thing\n";
 209:.\main.c      **** //    FS_FILE *pFile;
 210:.\main.c      **** //    
 211:.\main.c      **** //    pFile = FS_FOpen("log.txt", "w");
 212:.\main.c      **** //    
 213:.\main.c      **** //    if (pFile != 0) {
 214:.\main.c      **** //        FS_FWrite(plays, 1, strlen(plays), pFile);
 215:.\main.c      **** //        FS_FClose(pFile);
 216:.\main.c      **** //    }
 217:.\main.c      ****     
 218:.\main.c      ****     uint16 count = 0;
 788              		.loc 1 218 0
 789 000a 0023     		movs	r3, #0
 790 000c FB81     		strh	r3, [r7, #14]	@ movhi
 219:.\main.c      ****     uint16 count1 = 0;
ARM GAS  C:\Users\pfautley\AppData\Local\Temp\ccRphpHf.s 			page 19


 791              		.loc 1 219 0
 792 000e 0023     		movs	r3, #0
 793 0010 BB81     		strh	r3, [r7, #12]	@ movhi
 220:.\main.c      ****     uint16 bytesReceived = 0;
 794              		.loc 1 220 0
 795 0012 0023     		movs	r3, #0
 796 0014 7B81     		strh	r3, [r7, #10]	@ movhi
 221:.\main.c      ****     
 222:.\main.c      ****     
 223:.\main.c      ****     uint8 RxBuffer0[BUFFER_SIZE] = {0};
 797              		.loc 1 223 0
 798 0016 0023     		movs	r3, #0
 799 0018 3B72     		strb	r3, [r7, #8]
 224:.\main.c      ****     uint8 RxBuffer1[BUFFER_SIZE] = {0};
 800              		.loc 1 224 0
 801 001a 0023     		movs	r3, #0
 802 001c 3B71     		strb	r3, [r7, #4]
 225:.\main.c      ****     uint8 size = 64;
 803              		.loc 1 225 0
 804 001e 4023     		movs	r3, #64
 805 0020 7B72     		strb	r3, [r7, #9]
 226:.\main.c      ****     
 227:.\main.c      ****     /* Enable Global Interrupts */
 228:.\main.c      ****     CyGlobalIntEnable;                        
 806              		.loc 1 228 0
 807              	@ 228 ".\main.c" 1
 808 0022 62B6     		CPSIE   i
 809              	@ 0 "" 2
 229:.\main.c      **** 
 230:.\main.c      ****     //Start the UART
 231:.\main.c      ****     UART_1_Start();
 810              		.loc 1 231 0
 811              		.thumb
 812 0024 FFF7FEFF 		bl	UART_1_Start
 232:.\main.c      ****     /* Start USBFS Operation with 3V operation */
 233:.\main.c      ****        USBUART_1_Start(0u, USBUART_1_3V_OPERATION);
 813              		.loc 1 233 0
 814 0028 0020     		movs	r0, #0
 815 002a 0021     		movs	r1, #0
 816 002c FFF7FEFF 		bl	USBUART_1_Start
 234:.\main.c      ****        USBUART_1_CDC_Init();
 817              		.loc 1 234 0
 818 0030 FFF7FEFF 		bl	USBUART_1_CDC_Init
 235:.\main.c      ****        USBUART_1_EnableOutEP(OUT_EP);
 819              		.loc 1 235 0
 820 0034 0320     		movs	r0, #3
 821 0036 FFF7FEFF 		bl	USBUART_1_EnableOutEP
 236:.\main.c      ****     
 237:.\main.c      ****     /* Start LCD */
 238:.\main.c      ****     LCD_Char_Start();
 822              		.loc 1 238 0
 823 003a FFF7FEFF 		bl	LCD_Char_Start
 239:.\main.c      ****      /* Enable the global interrupt */
 240:.\main.c      ****     CyGlobalIntEnable;
 824              		.loc 1 240 0
 825              	@ 240 ".\main.c" 1
 826 003e 62B6     		CPSIE   i
ARM GAS  C:\Users\pfautley\AppData\Local\Temp\ccRphpHf.s 			page 20


 827              	@ 0 "" 2
 241:.\main.c      ****     
 242:.\main.c      ****     /* Enable the Interrupt component connected to Timer interrupt */
 243:.\main.c      ****     isr_1_StartEx(InterruptHandler);
 828              		.loc 1 243 0
 829              		.thumb
 830 0040 2148     		ldr	r0, .L45
 831 0042 FFF7FEFF 		bl	isr_1_StartEx
 244:.\main.c      ****     
 245:.\main.c      ****     //Start UART interrupts
 246:.\main.c      ****     isr_Tx_StartEx(TxHandler);
 832              		.loc 1 246 0
 833 0046 2148     		ldr	r0, .L45+4
 834 0048 FFF7FEFF 		bl	isr_Tx_StartEx
 247:.\main.c      ****     isr_Rx_StartEx(RxHandler);
 835              		.loc 1 247 0
 836 004c 2048     		ldr	r0, .L45+8
 837 004e FFF7FEFF 		bl	isr_Rx_StartEx
 248:.\main.c      **** 	/* Start the components */
 249:.\main.c      ****     Timer_1_Start();
 838              		.loc 1 249 0
 839 0052 FFF7FEFF 		bl	Timer_1_Start
 250:.\main.c      ****     for(i=0;i<16;i++)
 840              		.loc 1 250 0
 841 0056 1F4B     		ldr	r3, .L45+12
 842 0058 0022     		movs	r2, #0
 843 005a 1A60     		str	r2, [r3]
 844 005c 2FE0     		b	.L40
 845              	.L43:
 251:.\main.c      ****     {
 252:.\main.c      ****         for(j=0;j<16;j++)
 846              		.loc 1 252 0
 847 005e 1E4B     		ldr	r3, .L45+16
 848 0060 0022     		movs	r2, #0
 849 0062 1A60     		str	r2, [r3]
 850 0064 22E0     		b	.L41
 851              	.L42:
 253:.\main.c      ****         {
 254:.\main.c      ****             red[i][j]=0;
 852              		.loc 1 254 0 discriminator 2
 853 0066 1B4B     		ldr	r3, .L45+12
 854 0068 1968     		ldr	r1, [r3]
 855 006a 1B4B     		ldr	r3, .L45+16
 856 006c 1B68     		ldr	r3, [r3]
 857 006e 1B4A     		ldr	r2, .L45+20
 858 0070 0901     		lsls	r1, r1, #4
 859 0072 0B44     		add	r3, r3, r1
 860 0074 1344     		add	r3, r3, r2
 861 0076 0022     		movs	r2, #0
 862 0078 1A70     		strb	r2, [r3]
 255:.\main.c      ****             blue[i][j]=0;
 863              		.loc 1 255 0 discriminator 2
 864 007a 164B     		ldr	r3, .L45+12
 865 007c 1968     		ldr	r1, [r3]
 866 007e 164B     		ldr	r3, .L45+16
 867 0080 1B68     		ldr	r3, [r3]
 868 0082 174A     		ldr	r2, .L45+24
ARM GAS  C:\Users\pfautley\AppData\Local\Temp\ccRphpHf.s 			page 21


 869 0084 0901     		lsls	r1, r1, #4
 870 0086 0B44     		add	r3, r3, r1
 871 0088 1344     		add	r3, r3, r2
 872 008a 0022     		movs	r2, #0
 873 008c 1A70     		strb	r2, [r3]
 256:.\main.c      ****             green[i][j]=0;
 874              		.loc 1 256 0 discriminator 2
 875 008e 114B     		ldr	r3, .L45+12
 876 0090 1968     		ldr	r1, [r3]
 877 0092 114B     		ldr	r3, .L45+16
 878 0094 1B68     		ldr	r3, [r3]
 879 0096 134A     		ldr	r2, .L45+28
 880 0098 0901     		lsls	r1, r1, #4
 881 009a 0B44     		add	r3, r3, r1
 882 009c 1344     		add	r3, r3, r2
 883 009e 0022     		movs	r2, #0
 884 00a0 1A70     		strb	r2, [r3]
 252:.\main.c      ****         for(j=0;j<16;j++)
 885              		.loc 1 252 0 discriminator 2
 886 00a2 0D4B     		ldr	r3, .L45+16
 887 00a4 1B68     		ldr	r3, [r3]
 888 00a6 5A1C     		adds	r2, r3, #1
 889 00a8 0B4B     		ldr	r3, .L45+16
 890 00aa 1A60     		str	r2, [r3]
 891              	.L41:
 252:.\main.c      ****         for(j=0;j<16;j++)
 892              		.loc 1 252 0 is_stmt 0 discriminator 1
 893 00ac 0A4B     		ldr	r3, .L45+16
 894 00ae 1B68     		ldr	r3, [r3]
 895 00b0 0F2B     		cmp	r3, #15
 896 00b2 D8DD     		ble	.L42
 250:.\main.c      ****     for(i=0;i<16;i++)
 897              		.loc 1 250 0 is_stmt 1
 898 00b4 074B     		ldr	r3, .L45+12
 899 00b6 1B68     		ldr	r3, [r3]
 900 00b8 5A1C     		adds	r2, r3, #1
 901 00ba 064B     		ldr	r3, .L45+12
 902 00bc 1A60     		str	r2, [r3]
 903              	.L40:
 250:.\main.c      ****     for(i=0;i<16;i++)
 904              		.loc 1 250 0 is_stmt 0 discriminator 1
 905 00be 054B     		ldr	r3, .L45+12
 906 00c0 1B68     		ldr	r3, [r3]
 907 00c2 0F2B     		cmp	r3, #15
 908 00c4 CBDD     		ble	.L43
 909              	.L44:
 257:.\main.c      ****         }
 258:.\main.c      ****     }
 259:.\main.c      ****     /* CyGlobalIntEnable; */ /* Uncomment this line to enable global interrupts. */
 260:.\main.c      ****     for(;;)
 261:.\main.c      ****     {
 262:.\main.c      ****        // USBwork();
 263:.\main.c      ****         /* Place your application code here. */
 264:.\main.c      ****        
 265:.\main.c      ****     }
 910              		.loc 1 265 0 is_stmt 1 discriminator 1
 911 00c6 FEE7     		b	.L44
ARM GAS  C:\Users\pfautley\AppData\Local\Temp\ccRphpHf.s 			page 22


 912              	.L46:
 913              		.align	2
 914              	.L45:
 915 00c8 00000000 		.word	InterruptHandler
 916 00cc 00000000 		.word	TxHandler
 917 00d0 00000000 		.word	RxHandler
 918 00d4 00000000 		.word	i
 919 00d8 00000000 		.word	j
 920 00dc 00000000 		.word	red
 921 00e0 00000000 		.word	blue
 922 00e4 00000000 		.word	green
 923              		.cfi_endproc
 924              	.LFE59:
 925              		.size	main, .-main
 926              		.section	.rodata
 927 002e 0000     		.align	2
 928              	.LC8:
 929 0030 436F756E 		.ascii	"Count:\000"
 929      743A00
 930 0037 00       		.section	.text.USBwork,"ax",%progbits
 931              		.align	2
 932              		.global	USBwork
 933              		.thumb
 934              		.thumb_func
 935              		.type	USBwork, %function
 936              	USBwork:
 937              	.LFB60:
 266:.\main.c      **** }
 267:.\main.c      **** 
 268:.\main.c      **** 
 269:.\main.c      **** void USBwork(){
 938              		.loc 1 269 0
 939              		.cfi_startproc
 940              		@ args = 0, pretend = 0, frame = 0
 941              		@ frame_needed = 1, uses_anonymous_args = 0
 942 0000 80B5     		push	{r7, lr}
 943              		.cfi_def_cfa_offset 8
 944              		.cfi_offset 7, -8
 945              		.cfi_offset 14, -4
 946 0002 00AF     		add	r7, sp, #0
 947              		.cfi_def_cfa_register 7
 270:.\main.c      ****     if(USBUART_1_IsConfigurationChanged() != 0u)
 948              		.loc 1 270 0
 949 0004 FFF7FEFF 		bl	USBUART_1_IsConfigurationChanged
 950 0008 0346     		mov	r3, r0
 951 000a 002B     		cmp	r3, #0
 952 000c 07D0     		beq	.L48
 271:.\main.c      ****         {
 272:.\main.c      ****             /* Re-enable endpoint when device is configured */
 273:.\main.c      ****             if(USBUART_1_GetConfiguration() != 0u)
 953              		.loc 1 273 0
 954 000e FFF7FEFF 		bl	USBUART_1_GetConfiguration
 955 0012 0346     		mov	r3, r0
 956 0014 002B     		cmp	r3, #0
 957 0016 02D0     		beq	.L48
 274:.\main.c      ****             {
 275:.\main.c      ****                 USBUART_1_EnableOutEP(OUT_EP);
ARM GAS  C:\Users\pfautley\AppData\Local\Temp\ccRphpHf.s 			page 23


 958              		.loc 1 275 0
 959 0018 0320     		movs	r0, #3
 960 001a FFF7FEFF 		bl	USBUART_1_EnableOutEP
 961              	.L48:
 276:.\main.c      ****             }
 277:.\main.c      ****         }
 278:.\main.c      ****         
 279:.\main.c      ****         /* Check for data received */
 280:.\main.c      ****         if(USBUART_1_GetEPState(OUT_EP) == USBUART_1_OUT_BUFFER_FULL)
 962              		.loc 1 280 0
 963 001e 0320     		movs	r0, #3
 964 0020 FFF7FEFF 		bl	USBUART_1_GetEPState
 965 0024 0346     		mov	r3, r0
 966 0026 012B     		cmp	r3, #1
 967 0028 55D1     		bne	.L49
 281:.\main.c      ****         {
 282:.\main.c      ****             // Read  the received byte count 
 283:.\main.c      ****             bytesReceived = USBUART_1_GetEPCount(OUT_EP);
 968              		.loc 1 283 0
 969 002a 0320     		movs	r0, #3
 970 002c FFF7FEFF 		bl	USBUART_1_GetEPCount
 971 0030 0346     		mov	r3, r0
 972 0032 1A46     		mov	r2, r3
 973 0034 684B     		ldr	r3, .L56
 974 0036 1A80     		strh	r2, [r3]	@ movhi
 284:.\main.c      ****         
 285:.\main.c      ****             // Unload the OUT buffer into the first buffer
 286:.\main.c      ****             if (count < BUFFER_SIZE && count1 == 0)
 975              		.loc 1 286 0
 976 0038 684B     		ldr	r3, .L56+4
 977 003a 1B88     		ldrh	r3, [r3]
 978 003c 002B     		cmp	r3, #0
 979 003e 2AD1     		bne	.L50
 980              		.loc 1 286 0 is_stmt 0 discriminator 1
 981 0040 674B     		ldr	r3, .L56+8
 982 0042 1B88     		ldrh	r3, [r3]
 983 0044 002B     		cmp	r3, #0
 984 0046 26D1     		bne	.L50
 287:.\main.c      ****             {
 288:.\main.c      ****                 USBUART_1_ReadOutEP(OUT_EP, RxBuffer1,size);
 985              		.loc 1 288 0 is_stmt 1
 986 0048 664B     		ldr	r3, .L56+12
 987 004a 1B78     		ldrb	r3, [r3]	@ zero_extendqisi2
 988 004c 0320     		movs	r0, #3
 989 004e 6649     		ldr	r1, .L56+16
 990 0050 1A46     		mov	r2, r3
 991 0052 FFF7FEFF 		bl	USBUART_1_ReadOutEP
 289:.\main.c      ****                 RxBuffer0[count] = RxBuffer1[0];
 992              		.loc 1 289 0
 993 0056 614B     		ldr	r3, .L56+4
 994 0058 1B88     		ldrh	r3, [r3]
 995 005a 634A     		ldr	r2, .L56+16
 996 005c 1178     		ldrb	r1, [r2]	@ zero_extendqisi2
 997 005e 634A     		ldr	r2, .L56+20
 998 0060 D154     		strb	r1, [r2, r3]
 290:.\main.c      ****                 LCD_Char_PrintDecUint16(RxBuffer0[count] );
 999              		.loc 1 290 0
ARM GAS  C:\Users\pfautley\AppData\Local\Temp\ccRphpHf.s 			page 24


 1000 0062 5E4B     		ldr	r3, .L56+4
 1001 0064 1B88     		ldrh	r3, [r3]
 1002 0066 614A     		ldr	r2, .L56+20
 1003 0068 D35C     		ldrb	r3, [r2, r3]	@ zero_extendqisi2
 1004 006a 1846     		mov	r0, r3
 1005 006c FFF7FEFF 		bl	LCD_Char_PrintU32Number
 291:.\main.c      ****                 LCD_Char_Position(1,5);
 1006              		.loc 1 291 0
 1007 0070 0120     		movs	r0, #1
 1008 0072 0521     		movs	r1, #5
 1009 0074 FFF7FEFF 		bl	LCD_Char_Position
 292:.\main.c      ****                 move(RxBuffer0[count]);
 1010              		.loc 1 292 0
 1011 0078 584B     		ldr	r3, .L56+4
 1012 007a 1B88     		ldrh	r3, [r3]
 1013 007c 5B4A     		ldr	r2, .L56+20
 1014 007e D35C     		ldrb	r3, [r2, r3]	@ zero_extendqisi2
 1015 0080 1846     		mov	r0, r3
 1016 0082 FFF7FEFF 		bl	move
 293:.\main.c      ****                 count+= bytesReceived;//store bytes into the count 
 1017              		.loc 1 293 0
 1018 0086 554B     		ldr	r3, .L56+4
 1019 0088 1A88     		ldrh	r2, [r3]
 1020 008a 534B     		ldr	r3, .L56
 1021 008c 1B88     		ldrh	r3, [r3]
 1022 008e 1344     		add	r3, r3, r2
 1023 0090 9AB2     		uxth	r2, r3
 1024 0092 524B     		ldr	r3, .L56+4
 1025 0094 1A80     		strh	r2, [r3]	@ movhi
 1026              	.L50:
 294:.\main.c      ****             }
 295:.\main.c      ****             
 296:.\main.c      ****             if (count > BUFFER_SIZE +1)//if first buffer is full unload the rest into the next buff
 1027              		.loc 1 296 0
 1028 0096 514B     		ldr	r3, .L56+4
 1029 0098 1B88     		ldrh	r3, [r3]
 1030 009a 022B     		cmp	r3, #2
 1031 009c 1BD9     		bls	.L49
 297:.\main.c      ****             {
 298:.\main.c      ****                 USBUART_1_ReadOutEP(OUT_EP, RxBuffer0,size);//
 1032              		.loc 1 298 0
 1033 009e 514B     		ldr	r3, .L56+12
 1034 00a0 1B78     		ldrb	r3, [r3]	@ zero_extendqisi2
 1035 00a2 0320     		movs	r0, #3
 1036 00a4 5149     		ldr	r1, .L56+20
 1037 00a6 1A46     		mov	r2, r3
 1038 00a8 FFF7FEFF 		bl	USBUART_1_ReadOutEP
 299:.\main.c      ****                 RxBuffer1[count1] = RxBuffer0[0];
 1039              		.loc 1 299 0
 1040 00ac 4C4B     		ldr	r3, .L56+8
 1041 00ae 1B88     		ldrh	r3, [r3]
 1042 00b0 4E4A     		ldr	r2, .L56+20
 1043 00b2 1178     		ldrb	r1, [r2]	@ zero_extendqisi2
 1044 00b4 4C4A     		ldr	r2, .L56+16
 1045 00b6 D154     		strb	r1, [r2, r3]
 300:.\main.c      ****                 move(RxBuffer1[count1]);
 1046              		.loc 1 300 0
ARM GAS  C:\Users\pfautley\AppData\Local\Temp\ccRphpHf.s 			page 25


 1047 00b8 494B     		ldr	r3, .L56+8
 1048 00ba 1B88     		ldrh	r3, [r3]
 1049 00bc 4A4A     		ldr	r2, .L56+16
 1050 00be D35C     		ldrb	r3, [r2, r3]	@ zero_extendqisi2
 1051 00c0 1846     		mov	r0, r3
 1052 00c2 FFF7FEFF 		bl	move
 301:.\main.c      ****                 count1+= bytesReceived;
 1053              		.loc 1 301 0
 1054 00c6 464B     		ldr	r3, .L56+8
 1055 00c8 1A88     		ldrh	r2, [r3]
 1056 00ca 434B     		ldr	r3, .L56
 1057 00cc 1B88     		ldrh	r3, [r3]
 1058 00ce 1344     		add	r3, r3, r2
 1059 00d0 9AB2     		uxth	r2, r3
 1060 00d2 434B     		ldr	r3, .L56+8
 1061 00d4 1A80     		strh	r2, [r3]	@ movhi
 1062              	.L49:
 302:.\main.c      ****             }
 303:.\main.c      ****         }
 304:.\main.c      ****         
 305:.\main.c      ****        
 306:.\main.c      ****         if (count == BUFFER_SIZE && (USBUART_1_GetEPState(IN_EP) == USBUART_1_IN_BUFFER_EMPTY)) // 
 1063              		.loc 1 306 0
 1064 00d6 414B     		ldr	r3, .L56+4
 1065 00d8 1B88     		ldrh	r3, [r3]
 1066 00da 012B     		cmp	r3, #1
 1067 00dc 0FD1     		bne	.L51
 1068              		.loc 1 306 0 is_stmt 0 discriminator 1
 1069 00de 0220     		movs	r0, #2
 1070 00e0 FFF7FEFF 		bl	USBUART_1_GetEPState
 1071 00e4 0346     		mov	r3, r0
 1072 00e6 012B     		cmp	r3, #1
 1073 00e8 09D1     		bne	.L51
 307:.\main.c      ****         {
 308:.\main.c      ****             USBUART_1_LoadInEP(IN_EP, RxBuffer0, size);
 1074              		.loc 1 308 0 is_stmt 1
 1075 00ea 3E4B     		ldr	r3, .L56+12
 1076 00ec 1B78     		ldrb	r3, [r3]	@ zero_extendqisi2
 1077 00ee 0220     		movs	r0, #2
 1078 00f0 3E49     		ldr	r1, .L56+20
 1079 00f2 1A46     		mov	r2, r3
 1080 00f4 FFF7FEFF 		bl	USBUART_1_LoadInEP
 309:.\main.c      ****             count=0;//count++
 1081              		.loc 1 309 0
 1082 00f8 384B     		ldr	r3, .L56+4
 1083 00fa 0022     		movs	r2, #0
 1084 00fc 1A80     		strh	r2, [r3]	@ movhi
 1085              	.L51:
 310:.\main.c      ****         }
 311:.\main.c      ****         if (count == (BUFFER_SIZE+1) && (USBUART_1_GetEPState(IN_EP) == USBUART_1_IN_BUFFER_EMPTY))
 1086              		.loc 1 311 0
 1087 00fe 374B     		ldr	r3, .L56+4
 1088 0100 1B88     		ldrh	r3, [r3]
 1089 0102 022B     		cmp	r3, #2
 1090 0104 10D1     		bne	.L52
 1091              		.loc 1 311 0 is_stmt 0 discriminator 1
 1092 0106 0220     		movs	r0, #2
ARM GAS  C:\Users\pfautley\AppData\Local\Temp\ccRphpHf.s 			page 26


 1093 0108 FFF7FEFF 		bl	USBUART_1_GetEPState
 1094 010c 0346     		mov	r3, r0
 1095 010e 012B     		cmp	r3, #1
 1096 0110 0AD1     		bne	.L52
 312:.\main.c      ****         {
 313:.\main.c      ****             USBUART_1_LoadInEP(IN_EP, NULL, 0);//64 bit needs this to send the max packet size
 1097              		.loc 1 313 0 is_stmt 1
 1098 0112 0220     		movs	r0, #2
 1099 0114 0021     		movs	r1, #0
 1100 0116 0022     		movs	r2, #0
 1101 0118 FFF7FEFF 		bl	USBUART_1_LoadInEP
 314:.\main.c      ****             count++;
 1102              		.loc 1 314 0
 1103 011c 2F4B     		ldr	r3, .L56+4
 1104 011e 1B88     		ldrh	r3, [r3]
 1105 0120 0133     		adds	r3, r3, #1
 1106 0122 9AB2     		uxth	r2, r3
 1107 0124 2D4B     		ldr	r3, .L56+4
 1108 0126 1A80     		strh	r2, [r3]	@ movhi
 1109              	.L52:
 315:.\main.c      ****         }
 316:.\main.c      ****         
 317:.\main.c      ****         if ((USBUART_1_GetEPState(IN_EP) == USBUART_1_IN_BUFFER_EMPTY) && (count1 >= BUFFER_SIZE) &
 1110              		.loc 1 317 0
 1111 0128 0220     		movs	r0, #2
 1112 012a FFF7FEFF 		bl	USBUART_1_GetEPState
 1113 012e 0346     		mov	r3, r0
 1114 0130 012B     		cmp	r3, #1
 1115 0132 14D1     		bne	.L53
 1116              		.loc 1 317 0 is_stmt 0 discriminator 1
 1117 0134 2A4B     		ldr	r3, .L56+8
 1118 0136 1B88     		ldrh	r3, [r3]
 1119 0138 002B     		cmp	r3, #0
 1120 013a 10D0     		beq	.L53
 1121 013c 274B     		ldr	r3, .L56+4
 1122 013e 1B88     		ldrh	r3, [r3]
 1123 0140 022B     		cmp	r3, #2
 1124 0142 0CD9     		bls	.L53
 318:.\main.c      ****         {
 319:.\main.c      ****             USBUART_1_LoadInEP(IN_EP, RxBuffer1, size);
 1125              		.loc 1 319 0 is_stmt 1
 1126 0144 274B     		ldr	r3, .L56+12
 1127 0146 1B78     		ldrb	r3, [r3]	@ zero_extendqisi2
 1128 0148 0220     		movs	r0, #2
 1129 014a 2749     		ldr	r1, .L56+16
 1130 014c 1A46     		mov	r2, r3
 1131 014e FFF7FEFF 		bl	USBUART_1_LoadInEP
 320:.\main.c      ****             count1=0;//count1++
 1132              		.loc 1 320 0
 1133 0152 234B     		ldr	r3, .L56+8
 1134 0154 0022     		movs	r2, #0
 1135 0156 1A80     		strh	r2, [r3]	@ movhi
 321:.\main.c      ****             count=0;
 1136              		.loc 1 321 0
 1137 0158 204B     		ldr	r3, .L56+4
 1138 015a 0022     		movs	r2, #0
 1139 015c 1A80     		strh	r2, [r3]	@ movhi
ARM GAS  C:\Users\pfautley\AppData\Local\Temp\ccRphpHf.s 			page 27


 1140              	.L53:
 322:.\main.c      ****         }
 323:.\main.c      ****         if (count1 >= (BUFFER_SIZE + 1) && count == 0 &&(USBUART_1_GetEPState(IN_EP) == USBUART_1_I
 1141              		.loc 1 323 0
 1142 015e 204B     		ldr	r3, .L56+8
 1143 0160 1B88     		ldrh	r3, [r3]
 1144 0162 012B     		cmp	r3, #1
 1145 0164 11D9     		bls	.L54
 1146              		.loc 1 323 0 is_stmt 0 discriminator 1
 1147 0166 1D4B     		ldr	r3, .L56+4
 1148 0168 1B88     		ldrh	r3, [r3]
 1149 016a 002B     		cmp	r3, #0
 1150 016c 0DD1     		bne	.L54
 1151 016e 0220     		movs	r0, #2
 1152 0170 FFF7FEFF 		bl	USBUART_1_GetEPState
 1153 0174 0346     		mov	r3, r0
 1154 0176 012B     		cmp	r3, #1
 1155 0178 07D1     		bne	.L54
 324:.\main.c      ****         {
 325:.\main.c      ****             USBUART_1_LoadInEP(IN_EP, NULL, 0);//64 bit needs this to send the max packet size
 1156              		.loc 1 325 0 is_stmt 1
 1157 017a 0220     		movs	r0, #2
 1158 017c 0021     		movs	r1, #0
 1159 017e 0022     		movs	r2, #0
 1160 0180 FFF7FEFF 		bl	USBUART_1_LoadInEP
 326:.\main.c      ****             count1 = 0;
 1161              		.loc 1 326 0
 1162 0184 164B     		ldr	r3, .L56+8
 1163 0186 0022     		movs	r2, #0
 1164 0188 1A80     		strh	r2, [r3]	@ movhi
 1165              	.L54:
 327:.\main.c      ****         }
 328:.\main.c      ****         if(count == 0 && count1 == 0)//clear lcd screen when both counts are 0
 1166              		.loc 1 328 0
 1167 018a 144B     		ldr	r3, .L56+4
 1168 018c 1B88     		ldrh	r3, [r3]
 1169 018e 002B     		cmp	r3, #0
 1170 0190 06D1     		bne	.L55
 1171              		.loc 1 328 0 is_stmt 0 discriminator 1
 1172 0192 134B     		ldr	r3, .L56+8
 1173 0194 1B88     		ldrh	r3, [r3]
 1174 0196 002B     		cmp	r3, #0
 1175 0198 02D1     		bne	.L55
 329:.\main.c      ****         {
 330:.\main.c      **** //            CyDelay(30);
 331:.\main.c      ****             LCD_Char_ClearDisplay();
 1176              		.loc 1 331 0 is_stmt 1
 1177 019a 0120     		movs	r0, #1
 1178 019c FFF7FEFF 		bl	LCD_Char_WriteControl
 1179              	.L55:
 332:.\main.c      ****         }
 333:.\main.c      **** 
 334:.\main.c      ****         LCD_Char_Position(0,0);//show number for each array
 1180              		.loc 1 334 0
 1181 01a0 0020     		movs	r0, #0
 1182 01a2 0021     		movs	r1, #0
 1183 01a4 FFF7FEFF 		bl	LCD_Char_Position
ARM GAS  C:\Users\pfautley\AppData\Local\Temp\ccRphpHf.s 			page 28


 335:.\main.c      ****         LCD_Char_PrintString("Count:");
 1184              		.loc 1 335 0
 1185 01a8 1148     		ldr	r0, .L56+24
 1186 01aa FFF7FEFF 		bl	LCD_Char_PrintString
 336:.\main.c      ****         LCD_Char_Position(1,0);
 1187              		.loc 1 336 0
 1188 01ae 0120     		movs	r0, #1
 1189 01b0 0021     		movs	r1, #0
 1190 01b2 FFF7FEFF 		bl	LCD_Char_Position
 337:.\main.c      ****         LCD_Char_PrintDecUint16(RxBuffer0[count] );
 1191              		.loc 1 337 0
 1192 01b6 094B     		ldr	r3, .L56+4
 1193 01b8 1B88     		ldrh	r3, [r3]
 1194 01ba 0C4A     		ldr	r2, .L56+20
 1195 01bc D35C     		ldrb	r3, [r2, r3]	@ zero_extendqisi2
 1196 01be 1846     		mov	r0, r3
 1197 01c0 FFF7FEFF 		bl	LCD_Char_PrintU32Number
 338:.\main.c      ****         LCD_Char_Position(1,5);
 1198              		.loc 1 338 0
 1199 01c4 0120     		movs	r0, #1
 1200 01c6 0521     		movs	r1, #5
 1201 01c8 FFF7FEFF 		bl	LCD_Char_Position
 339:.\main.c      ****         LCD_Char_PrintNumber(count1);
 1202              		.loc 1 339 0
 1203 01cc 044B     		ldr	r3, .L56+8
 1204 01ce 1B88     		ldrh	r3, [r3]
 1205 01d0 1846     		mov	r0, r3
 1206 01d2 FFF7FEFF 		bl	LCD_Char_PrintU32Number
 340:.\main.c      ****     
 341:.\main.c      **** }
 1207              		.loc 1 341 0
 1208 01d6 80BD     		pop	{r7, pc}
 1209              	.L57:
 1210              		.align	2
 1211              	.L56:
 1212 01d8 00000000 		.word	bytesReceived
 1213 01dc 00000000 		.word	count
 1214 01e0 00000000 		.word	count1
 1215 01e4 00000000 		.word	size
 1216 01e8 00000000 		.word	RxBuffer1
 1217 01ec 00000000 		.word	RxBuffer0
 1218 01f0 30000000 		.word	.LC8
 1219              		.cfi_endproc
 1220              	.LFE60:
 1221              		.size	USBwork, .-USBwork
 1222              		.section	.text.move,"ax",%progbits
 1223              		.align	2
 1224              		.global	move
 1225              		.thumb
 1226              		.thumb_func
 1227              		.type	move, %function
 1228              	move:
 1229              	.LFB61:
 342:.\main.c      **** 
 343:.\main.c      **** 
 344:.\main.c      **** 
 345:.\main.c      **** void move(uint16 movement)
ARM GAS  C:\Users\pfautley\AppData\Local\Temp\ccRphpHf.s 			page 29


 346:.\main.c      **** {
 1230              		.loc 1 346 0
 1231              		.cfi_startproc
 1232              		@ args = 0, pretend = 0, frame = 8
 1233              		@ frame_needed = 1, uses_anonymous_args = 0
 1234 0000 80B5     		push	{r7, lr}
 1235              		.cfi_def_cfa_offset 8
 1236              		.cfi_offset 7, -8
 1237              		.cfi_offset 14, -4
 1238 0002 82B0     		sub	sp, sp, #8
 1239              		.cfi_def_cfa_offset 16
 1240 0004 00AF     		add	r7, sp, #0
 1241              		.cfi_def_cfa_register 7
 1242 0006 0346     		mov	r3, r0
 1243 0008 FB80     		strh	r3, [r7, #6]	@ movhi
 347:.\main.c      ****     
 348:.\main.c      ****     if(movement == 1 )//up arrow initialize to top left corner of array
 1244              		.loc 1 348 0
 1245 000a FB88     		ldrh	r3, [r7, #6]
 1246 000c 012B     		cmp	r3, #1
 1247 000e 2CD1     		bne	.L59
 349:.\main.c      ****                 {
 350:.\main.c      ****                     if (playerturn%2==0)
 1248              		.loc 1 350 0
 1249 0010 9B4B     		ldr	r3, .L74
 1250 0012 1B68     		ldr	r3, [r3]
 1251 0014 03F00103 		and	r3, r3, #1
 1252 0018 002B     		cmp	r3, #0
 1253 001a 10D1     		bne	.L60
 351:.\main.c      ****                     {
 352:.\main.c      ****                         red[0][hri+right-left]=0;
 1254              		.loc 1 352 0
 1255 001c 994B     		ldr	r3, .L74+4
 1256 001e 1A68     		ldr	r2, [r3]
 1257 0020 994B     		ldr	r3, .L74+8
 1258 0022 1B68     		ldr	r3, [r3]
 1259 0024 1A44     		add	r2, r2, r3
 1260 0026 994B     		ldr	r3, .L74+12
 1261 0028 1B68     		ldr	r3, [r3]
 1262 002a D31A     		subs	r3, r2, r3
 1263 002c 984A     		ldr	r2, .L74+16
 1264 002e 0021     		movs	r1, #0
 1265 0030 D154     		strb	r1, [r2, r3]
 353:.\main.c      ****                         red[0][hri] = 1;
 1266              		.loc 1 353 0
 1267 0032 944B     		ldr	r3, .L74+4
 1268 0034 1B68     		ldr	r3, [r3]
 1269 0036 964A     		ldr	r2, .L74+16
 1270 0038 0121     		movs	r1, #1
 1271 003a D154     		strb	r1, [r2, r3]
 1272 003c 0FE0     		b	.L61
 1273              	.L60:
 354:.\main.c      ****                     }else
 355:.\main.c      ****                     {
 356:.\main.c      ****                         blue[0][hri+right-left]=0;
 1274              		.loc 1 356 0
 1275 003e 914B     		ldr	r3, .L74+4
ARM GAS  C:\Users\pfautley\AppData\Local\Temp\ccRphpHf.s 			page 30


 1276 0040 1A68     		ldr	r2, [r3]
 1277 0042 914B     		ldr	r3, .L74+8
 1278 0044 1B68     		ldr	r3, [r3]
 1279 0046 1A44     		add	r2, r2, r3
 1280 0048 904B     		ldr	r3, .L74+12
 1281 004a 1B68     		ldr	r3, [r3]
 1282 004c D31A     		subs	r3, r2, r3
 1283 004e 914A     		ldr	r2, .L74+20
 1284 0050 0021     		movs	r1, #0
 1285 0052 D154     		strb	r1, [r2, r3]
 357:.\main.c      ****                         blue[0][hri] = 1;
 1286              		.loc 1 357 0
 1287 0054 8B4B     		ldr	r3, .L74+4
 1288 0056 1B68     		ldr	r3, [r3]
 1289 0058 8E4A     		ldr	r2, .L74+20
 1290 005a 0121     		movs	r1, #1
 1291 005c D154     		strb	r1, [r2, r3]
 1292              	.L61:
 358:.\main.c      ****                     }
 359:.\main.c      ****                     
 360:.\main.c      ****                     left=0;
 1293              		.loc 1 360 0
 1294 005e 8B4B     		ldr	r3, .L74+12
 1295 0060 0022     		movs	r2, #0
 1296 0062 1A60     		str	r2, [r3]
 361:.\main.c      ****                     right=0;
 1297              		.loc 1 361 0
 1298 0064 884B     		ldr	r3, .L74+8
 1299 0066 0022     		movs	r2, #0
 1300 0068 1A60     		str	r2, [r3]
 1301              	.L59:
 362:.\main.c      ****                 }
 363:.\main.c      ****                 if(movement == 29 )
 1302              		.loc 1 363 0
 1303 006a FB88     		ldrh	r3, [r7, #6]
 1304 006c 1D2B     		cmp	r3, #29
 1305 006e 4FD1     		bne	.L62
 364:.\main.c      ****                 {
 365:.\main.c      ****                     right++;
 1306              		.loc 1 365 0
 1307 0070 854B     		ldr	r3, .L74+8
 1308 0072 1B68     		ldr	r3, [r3]
 1309 0074 5A1C     		adds	r2, r3, #1
 1310 0076 844B     		ldr	r3, .L74+8
 1311 0078 1A60     		str	r2, [r3]
 366:.\main.c      ****                     if(hri+right-left==16)
 1312              		.loc 1 366 0
 1313 007a 824B     		ldr	r3, .L74+4
 1314 007c 1A68     		ldr	r2, [r3]
 1315 007e 824B     		ldr	r3, .L74+8
 1316 0080 1B68     		ldr	r3, [r3]
 1317 0082 1A44     		add	r2, r2, r3
 1318 0084 814B     		ldr	r3, .L74+12
 1319 0086 1B68     		ldr	r3, [r3]
 1320 0088 D31A     		subs	r3, r2, r3
 1321 008a 102B     		cmp	r3, #16
 1322 008c 0BD1     		bne	.L63
ARM GAS  C:\Users\pfautley\AppData\Local\Temp\ccRphpHf.s 			page 31


 367:.\main.c      ****                     {
 368:.\main.c      ****                         hri=0;
 1323              		.loc 1 368 0
 1324 008e 7D4B     		ldr	r3, .L74+4
 1325 0090 0022     		movs	r2, #0
 1326 0092 1A60     		str	r2, [r3]
 369:.\main.c      ****                         right=0;
 1327              		.loc 1 369 0
 1328 0094 7C4B     		ldr	r3, .L74+8
 1329 0096 0022     		movs	r2, #0
 1330 0098 1A60     		str	r2, [r3]
 370:.\main.c      ****                         red[0][15] = 0;
 1331              		.loc 1 370 0
 1332 009a 7D4B     		ldr	r3, .L74+16
 1333 009c 0022     		movs	r2, #0
 1334 009e DA73     		strb	r2, [r3, #15]
 371:.\main.c      ****                         blue[0][15] = 0;
 1335              		.loc 1 371 0
 1336 00a0 7C4B     		ldr	r3, .L74+20
 1337 00a2 0022     		movs	r2, #0
 1338 00a4 DA73     		strb	r2, [r3, #15]
 1339              	.L63:
 372:.\main.c      ****                     }
 373:.\main.c      ****                      if (playerturn%2==0)
 1340              		.loc 1 373 0
 1341 00a6 764B     		ldr	r3, .L74
 1342 00a8 1B68     		ldr	r3, [r3]
 1343 00aa 03F00103 		and	r3, r3, #1
 1344 00ae 002B     		cmp	r3, #0
 1345 00b0 17D1     		bne	.L64
 374:.\main.c      ****                     {
 375:.\main.c      ****                         red[0][hri+right-left]=1;
 1346              		.loc 1 375 0
 1347 00b2 744B     		ldr	r3, .L74+4
 1348 00b4 1A68     		ldr	r2, [r3]
 1349 00b6 744B     		ldr	r3, .L74+8
 1350 00b8 1B68     		ldr	r3, [r3]
 1351 00ba 1A44     		add	r2, r2, r3
 1352 00bc 734B     		ldr	r3, .L74+12
 1353 00be 1B68     		ldr	r3, [r3]
 1354 00c0 D31A     		subs	r3, r2, r3
 1355 00c2 734A     		ldr	r2, .L74+16
 1356 00c4 0121     		movs	r1, #1
 1357 00c6 D154     		strb	r1, [r2, r3]
 376:.\main.c      ****                         red[0][hri+right-left-1] = 0;
 1358              		.loc 1 376 0
 1359 00c8 6E4B     		ldr	r3, .L74+4
 1360 00ca 1A68     		ldr	r2, [r3]
 1361 00cc 6E4B     		ldr	r3, .L74+8
 1362 00ce 1B68     		ldr	r3, [r3]
 1363 00d0 1A44     		add	r2, r2, r3
 1364 00d2 6E4B     		ldr	r3, .L74+12
 1365 00d4 1B68     		ldr	r3, [r3]
 1366 00d6 D31A     		subs	r3, r2, r3
 1367 00d8 013B     		subs	r3, r3, #1
 1368 00da 6D4A     		ldr	r2, .L74+16
 1369 00dc 0021     		movs	r1, #0
ARM GAS  C:\Users\pfautley\AppData\Local\Temp\ccRphpHf.s 			page 32


 1370 00de D154     		strb	r1, [r2, r3]
 1371 00e0 16E0     		b	.L62
 1372              	.L64:
 377:.\main.c      ****                     }else
 378:.\main.c      ****                     {
 379:.\main.c      ****                         blue[0][hri+right-left]=1;
 1373              		.loc 1 379 0
 1374 00e2 684B     		ldr	r3, .L74+4
 1375 00e4 1A68     		ldr	r2, [r3]
 1376 00e6 684B     		ldr	r3, .L74+8
 1377 00e8 1B68     		ldr	r3, [r3]
 1378 00ea 1A44     		add	r2, r2, r3
 1379 00ec 674B     		ldr	r3, .L74+12
 1380 00ee 1B68     		ldr	r3, [r3]
 1381 00f0 D31A     		subs	r3, r2, r3
 1382 00f2 684A     		ldr	r2, .L74+20
 1383 00f4 0121     		movs	r1, #1
 1384 00f6 D154     		strb	r1, [r2, r3]
 380:.\main.c      ****                         blue[0][hri+right-left-1] = 0;
 1385              		.loc 1 380 0
 1386 00f8 624B     		ldr	r3, .L74+4
 1387 00fa 1A68     		ldr	r2, [r3]
 1388 00fc 624B     		ldr	r3, .L74+8
 1389 00fe 1B68     		ldr	r3, [r3]
 1390 0100 1A44     		add	r2, r2, r3
 1391 0102 624B     		ldr	r3, .L74+12
 1392 0104 1B68     		ldr	r3, [r3]
 1393 0106 D31A     		subs	r3, r2, r3
 1394 0108 013B     		subs	r3, r3, #1
 1395 010a 624A     		ldr	r2, .L74+20
 1396 010c 0021     		movs	r1, #0
 1397 010e D154     		strb	r1, [r2, r3]
 1398              	.L62:
 381:.\main.c      ****                     }
 382:.\main.c      ****                 }
 383:.\main.c      ****                  if(movement == 28 )
 1399              		.loc 1 383 0
 1400 0110 FB88     		ldrh	r3, [r7, #6]
 1401 0112 1C2B     		cmp	r3, #28
 1402 0114 52D1     		bne	.L65
 384:.\main.c      ****                 { 
 385:.\main.c      ****                     if(hri-left+right==0)
 1403              		.loc 1 385 0
 1404 0116 5B4B     		ldr	r3, .L74+4
 1405 0118 1A68     		ldr	r2, [r3]
 1406 011a 5C4B     		ldr	r3, .L74+12
 1407 011c 1B68     		ldr	r3, [r3]
 1408 011e D21A     		subs	r2, r2, r3
 1409 0120 594B     		ldr	r3, .L74+8
 1410 0122 1B68     		ldr	r3, [r3]
 1411 0124 1344     		add	r3, r3, r2
 1412 0126 002B     		cmp	r3, #0
 1413 0128 0ED1     		bne	.L66
 386:.\main.c      ****                     {
 387:.\main.c      ****                         hri=15;
 1414              		.loc 1 387 0
 1415 012a 564B     		ldr	r3, .L74+4
ARM GAS  C:\Users\pfautley\AppData\Local\Temp\ccRphpHf.s 			page 33


 1416 012c 0F22     		movs	r2, #15
 1417 012e 1A60     		str	r2, [r3]
 388:.\main.c      ****                         right=0;
 1418              		.loc 1 388 0
 1419 0130 554B     		ldr	r3, .L74+8
 1420 0132 0022     		movs	r2, #0
 1421 0134 1A60     		str	r2, [r3]
 389:.\main.c      ****                         left = 0;
 1422              		.loc 1 389 0
 1423 0136 554B     		ldr	r3, .L74+12
 1424 0138 0022     		movs	r2, #0
 1425 013a 1A60     		str	r2, [r3]
 390:.\main.c      ****                         red[0][0] = 0;
 1426              		.loc 1 390 0
 1427 013c 544B     		ldr	r3, .L74+16
 1428 013e 0022     		movs	r2, #0
 1429 0140 1A70     		strb	r2, [r3]
 391:.\main.c      ****                         blue[0][0] = 0;
 1430              		.loc 1 391 0
 1431 0142 544B     		ldr	r3, .L74+20
 1432 0144 0022     		movs	r2, #0
 1433 0146 1A70     		strb	r2, [r3]
 1434              	.L66:
 392:.\main.c      ****                     }
 393:.\main.c      ****                     left++;
 1435              		.loc 1 393 0
 1436 0148 504B     		ldr	r3, .L74+12
 1437 014a 1B68     		ldr	r3, [r3]
 1438 014c 5A1C     		adds	r2, r3, #1
 1439 014e 4F4B     		ldr	r3, .L74+12
 1440 0150 1A60     		str	r2, [r3]
 394:.\main.c      ****          
 395:.\main.c      ****                       if (playerturn%2==0)
 1441              		.loc 1 395 0
 1442 0152 4B4B     		ldr	r3, .L74
 1443 0154 1B68     		ldr	r3, [r3]
 1444 0156 03F00103 		and	r3, r3, #1
 1445 015a 002B     		cmp	r3, #0
 1446 015c 17D1     		bne	.L67
 396:.\main.c      ****                     {
 397:.\main.c      ****                         red[0][hri+right-left]=1;
 1447              		.loc 1 397 0
 1448 015e 494B     		ldr	r3, .L74+4
 1449 0160 1A68     		ldr	r2, [r3]
 1450 0162 494B     		ldr	r3, .L74+8
 1451 0164 1B68     		ldr	r3, [r3]
 1452 0166 1A44     		add	r2, r2, r3
 1453 0168 484B     		ldr	r3, .L74+12
 1454 016a 1B68     		ldr	r3, [r3]
 1455 016c D31A     		subs	r3, r2, r3
 1456 016e 484A     		ldr	r2, .L74+16
 1457 0170 0121     		movs	r1, #1
 1458 0172 D154     		strb	r1, [r2, r3]
 398:.\main.c      ****                         red[0][hri+right-left+1] = 0;
 1459              		.loc 1 398 0
 1460 0174 434B     		ldr	r3, .L74+4
 1461 0176 1A68     		ldr	r2, [r3]
ARM GAS  C:\Users\pfautley\AppData\Local\Temp\ccRphpHf.s 			page 34


 1462 0178 434B     		ldr	r3, .L74+8
 1463 017a 1B68     		ldr	r3, [r3]
 1464 017c 1A44     		add	r2, r2, r3
 1465 017e 434B     		ldr	r3, .L74+12
 1466 0180 1B68     		ldr	r3, [r3]
 1467 0182 D31A     		subs	r3, r2, r3
 1468 0184 0133     		adds	r3, r3, #1
 1469 0186 424A     		ldr	r2, .L74+16
 1470 0188 0021     		movs	r1, #0
 1471 018a D154     		strb	r1, [r2, r3]
 1472 018c 16E0     		b	.L65
 1473              	.L67:
 399:.\main.c      ****                     }else
 400:.\main.c      ****                     {
 401:.\main.c      ****                         blue[0][hri+right-left]=1;
 1474              		.loc 1 401 0
 1475 018e 3D4B     		ldr	r3, .L74+4
 1476 0190 1A68     		ldr	r2, [r3]
 1477 0192 3D4B     		ldr	r3, .L74+8
 1478 0194 1B68     		ldr	r3, [r3]
 1479 0196 1A44     		add	r2, r2, r3
 1480 0198 3C4B     		ldr	r3, .L74+12
 1481 019a 1B68     		ldr	r3, [r3]
 1482 019c D31A     		subs	r3, r2, r3
 1483 019e 3D4A     		ldr	r2, .L74+20
 1484 01a0 0121     		movs	r1, #1
 1485 01a2 D154     		strb	r1, [r2, r3]
 402:.\main.c      ****                         blue[0][hri+right-left+1] = 0;
 1486              		.loc 1 402 0
 1487 01a4 374B     		ldr	r3, .L74+4
 1488 01a6 1A68     		ldr	r2, [r3]
 1489 01a8 374B     		ldr	r3, .L74+8
 1490 01aa 1B68     		ldr	r3, [r3]
 1491 01ac 1A44     		add	r2, r2, r3
 1492 01ae 374B     		ldr	r3, .L74+12
 1493 01b0 1B68     		ldr	r3, [r3]
 1494 01b2 D31A     		subs	r3, r2, r3
 1495 01b4 0133     		adds	r3, r3, #1
 1496 01b6 374A     		ldr	r2, .L74+20
 1497 01b8 0021     		movs	r1, #0
 1498 01ba D154     		strb	r1, [r2, r3]
 1499              	.L65:
 403:.\main.c      ****                     }
 404:.\main.c      ****                 }
 405:.\main.c      ****                 if(movement==31)
 1500              		.loc 1 405 0
 1501 01bc FB88     		ldrh	r3, [r7, #6]
 1502 01be 1F2B     		cmp	r3, #31
 1503 01c0 40F0AD80 		bne	.L58
 406:.\main.c      ****                 {
 407:.\main.c      ****                     
 408:.\main.c      ****                     for(i=0;i<16;i++)
 1504              		.loc 1 408 0
 1505 01c4 344B     		ldr	r3, .L74+24
 1506 01c6 0022     		movs	r2, #0
 1507 01c8 1A60     		str	r2, [r3]
 1508 01ca 90E0     		b	.L69
ARM GAS  C:\Users\pfautley\AppData\Local\Temp\ccRphpHf.s 			page 35


 1509              	.L73:
 409:.\main.c      ****                     {
 410:.\main.c      ****                         
 411:.\main.c      ****                         
 412:.\main.c      ****                         if(red[15-i][hri+right-left]==0 && blue[15-i][hri+right-left]==0)
 1510              		.loc 1 412 0
 1511 01cc 324B     		ldr	r3, .L74+24
 1512 01ce 1B68     		ldr	r3, [r3]
 1513 01d0 C3F10F01 		rsb	r1, r3, #15
 1514 01d4 2B4B     		ldr	r3, .L74+4
 1515 01d6 1A68     		ldr	r2, [r3]
 1516 01d8 2B4B     		ldr	r3, .L74+8
 1517 01da 1B68     		ldr	r3, [r3]
 1518 01dc 1A44     		add	r2, r2, r3
 1519 01de 2B4B     		ldr	r3, .L74+12
 1520 01e0 1B68     		ldr	r3, [r3]
 1521 01e2 D31A     		subs	r3, r2, r3
 1522 01e4 2A4A     		ldr	r2, .L74+16
 1523 01e6 0901     		lsls	r1, r1, #4
 1524 01e8 0B44     		add	r3, r3, r1
 1525 01ea 1344     		add	r3, r3, r2
 1526 01ec 1B78     		ldrb	r3, [r3]	@ zero_extendqisi2
 1527 01ee 002B     		cmp	r3, #0
 1528 01f0 78D1     		bne	.L70
 1529              		.loc 1 412 0 is_stmt 0 discriminator 1
 1530 01f2 294B     		ldr	r3, .L74+24
 1531 01f4 1B68     		ldr	r3, [r3]
 1532 01f6 C3F10F01 		rsb	r1, r3, #15
 1533 01fa 224B     		ldr	r3, .L74+4
 1534 01fc 1A68     		ldr	r2, [r3]
 1535 01fe 224B     		ldr	r3, .L74+8
 1536 0200 1B68     		ldr	r3, [r3]
 1537 0202 1A44     		add	r2, r2, r3
 1538 0204 214B     		ldr	r3, .L74+12
 1539 0206 1B68     		ldr	r3, [r3]
 1540 0208 D31A     		subs	r3, r2, r3
 1541 020a 224A     		ldr	r2, .L74+20
 1542 020c 0901     		lsls	r1, r1, #4
 1543 020e 0B44     		add	r3, r3, r1
 1544 0210 1344     		add	r3, r3, r2
 1545 0212 1B78     		ldrb	r3, [r3]	@ zero_extendqisi2
 1546 0214 002B     		cmp	r3, #0
 1547 0216 65D1     		bne	.L70
 413:.\main.c      ****                         {
 414:.\main.c      ****                             
 415:.\main.c      ****                                if (playerturn%2==0)
 1548              		.loc 1 415 0 is_stmt 1
 1549 0218 194B     		ldr	r3, .L74
 1550 021a 1B68     		ldr	r3, [r3]
 1551 021c 03F00103 		and	r3, r3, #1
 1552 0220 002B     		cmp	r3, #0
 1553 0222 3FD1     		bne	.L71
 416:.\main.c      ****                                 {
 417:.\main.c      ****                                     red[15-i][hri+right-left]=1;
 1554              		.loc 1 417 0
 1555 0224 1C4B     		ldr	r3, .L74+24
 1556 0226 1B68     		ldr	r3, [r3]
ARM GAS  C:\Users\pfautley\AppData\Local\Temp\ccRphpHf.s 			page 36


 1557 0228 C3F10F01 		rsb	r1, r3, #15
 1558 022c 154B     		ldr	r3, .L74+4
 1559 022e 1A68     		ldr	r2, [r3]
 1560 0230 154B     		ldr	r3, .L74+8
 1561 0232 1B68     		ldr	r3, [r3]
 1562 0234 1A44     		add	r2, r2, r3
 1563 0236 154B     		ldr	r3, .L74+12
 1564 0238 1B68     		ldr	r3, [r3]
 1565 023a D31A     		subs	r3, r2, r3
 1566 023c 144A     		ldr	r2, .L74+16
 1567 023e 0901     		lsls	r1, r1, #4
 1568 0240 0B44     		add	r3, r3, r1
 1569 0242 1344     		add	r3, r3, r2
 1570 0244 0122     		movs	r2, #1
 1571 0246 1A70     		strb	r2, [r3]
 418:.\main.c      ****                                     rownow = 15-i;
 1572              		.loc 1 418 0
 1573 0248 134B     		ldr	r3, .L74+24
 1574 024a 1B68     		ldr	r3, [r3]
 1575 024c C3F10F02 		rsb	r2, r3, #15
 1576 0250 124B     		ldr	r3, .L74+28
 1577 0252 1A60     		str	r2, [r3]
 419:.\main.c      ****                                     colnow = hri+right-left;
 1578              		.loc 1 419 0
 1579 0254 0B4B     		ldr	r3, .L74+4
 1580 0256 1A68     		ldr	r2, [r3]
 1581 0258 0B4B     		ldr	r3, .L74+8
 1582 025a 1B68     		ldr	r3, [r3]
 1583 025c 1A44     		add	r2, r2, r3
 1584 025e 0B4B     		ldr	r3, .L74+12
 1585 0260 1B68     		ldr	r3, [r3]
 1586 0262 D21A     		subs	r2, r2, r3
 1587 0264 0E4B     		ldr	r3, .L74+32
 1588 0266 1A60     		str	r2, [r3]
 420:.\main.c      ****                                     red[0][hri+right-left] = 0;
 1589              		.loc 1 420 0
 1590 0268 064B     		ldr	r3, .L74+4
 1591 026a 1A68     		ldr	r2, [r3]
 1592 026c 064B     		ldr	r3, .L74+8
 1593 026e 1B68     		ldr	r3, [r3]
 1594 0270 1A44     		add	r2, r2, r3
 1595 0272 064B     		ldr	r3, .L74+12
 1596 0274 1B68     		ldr	r3, [r3]
 1597 0276 D31A     		subs	r3, r2, r3
 1598 0278 054A     		ldr	r2, .L74+16
 1599 027a 0021     		movs	r1, #0
 1600 027c D154     		strb	r1, [r2, r3]
 1601 027e 2EE0     		b	.L72
 1602              	.L75:
 1603              		.align	2
 1604              	.L74:
 1605 0280 00000000 		.word	playerturn
 1606 0284 00000000 		.word	hri
 1607 0288 00000000 		.word	right
 1608 028c 00000000 		.word	left
 1609 0290 00000000 		.word	red
 1610 0294 00000000 		.word	blue
ARM GAS  C:\Users\pfautley\AppData\Local\Temp\ccRphpHf.s 			page 37


 1611 0298 00000000 		.word	i
 1612 029c 00000000 		.word	rownow
 1613 02a0 00000000 		.word	colnow
 1614              	.L71:
 421:.\main.c      ****                                 }else
 422:.\main.c      ****                                 {
 423:.\main.c      ****                                     blue[15-i][hri+right-left]=1;
 1615              		.loc 1 423 0
 1616 02a4 1F4B     		ldr	r3, .L76
 1617 02a6 1B68     		ldr	r3, [r3]
 1618 02a8 C3F10F01 		rsb	r1, r3, #15
 1619 02ac 1E4B     		ldr	r3, .L76+4
 1620 02ae 1A68     		ldr	r2, [r3]
 1621 02b0 1E4B     		ldr	r3, .L76+8
 1622 02b2 1B68     		ldr	r3, [r3]
 1623 02b4 1A44     		add	r2, r2, r3
 1624 02b6 1E4B     		ldr	r3, .L76+12
 1625 02b8 1B68     		ldr	r3, [r3]
 1626 02ba D31A     		subs	r3, r2, r3
 1627 02bc 1D4A     		ldr	r2, .L76+16
 1628 02be 0901     		lsls	r1, r1, #4
 1629 02c0 0B44     		add	r3, r3, r1
 1630 02c2 1344     		add	r3, r3, r2
 1631 02c4 0122     		movs	r2, #1
 1632 02c6 1A70     		strb	r2, [r3]
 424:.\main.c      ****                                     blue[0][hri+right-left] = 0;
 1633              		.loc 1 424 0
 1634 02c8 174B     		ldr	r3, .L76+4
 1635 02ca 1A68     		ldr	r2, [r3]
 1636 02cc 174B     		ldr	r3, .L76+8
 1637 02ce 1B68     		ldr	r3, [r3]
 1638 02d0 1A44     		add	r2, r2, r3
 1639 02d2 174B     		ldr	r3, .L76+12
 1640 02d4 1B68     		ldr	r3, [r3]
 1641 02d6 D31A     		subs	r3, r2, r3
 1642 02d8 164A     		ldr	r2, .L76+16
 1643 02da 0021     		movs	r1, #0
 1644 02dc D154     		strb	r1, [r2, r3]
 1645              	.L72:
 425:.\main.c      ****                                 }
 426:.\main.c      ****                                  i=16;
 1646              		.loc 1 426 0
 1647 02de 114B     		ldr	r3, .L76
 1648 02e0 1022     		movs	r2, #16
 1649 02e2 1A60     		str	r2, [r3]
 1650              	.L70:
 408:.\main.c      ****                     for(i=0;i<16;i++)
 1651              		.loc 1 408 0
 1652 02e4 0F4B     		ldr	r3, .L76
 1653 02e6 1B68     		ldr	r3, [r3]
 1654 02e8 5A1C     		adds	r2, r3, #1
 1655 02ea 0E4B     		ldr	r3, .L76
 1656 02ec 1A60     		str	r2, [r3]
 1657              	.L69:
 408:.\main.c      ****                     for(i=0;i<16;i++)
 1658              		.loc 1 408 0 is_stmt 0 discriminator 1
 1659 02ee 0D4B     		ldr	r3, .L76
ARM GAS  C:\Users\pfautley\AppData\Local\Temp\ccRphpHf.s 			page 38


 1660 02f0 1B68     		ldr	r3, [r3]
 1661 02f2 0F2B     		cmp	r3, #15
 1662 02f4 7FF76AAF 		ble	.L73
 427:.\main.c      ****                         }
 428:.\main.c      ****                         
 429:.\main.c      ****                     
 430:.\main.c      ****                     }
 431:.\main.c      ****                     wincheck(rownow, colnow);
 1663              		.loc 1 431 0 is_stmt 1
 1664 02f8 0F4B     		ldr	r3, .L76+20
 1665 02fa 1A68     		ldr	r2, [r3]
 1666 02fc 0F4B     		ldr	r3, .L76+24
 1667 02fe 1B68     		ldr	r3, [r3]
 1668 0300 1046     		mov	r0, r2
 1669 0302 1946     		mov	r1, r3
 1670 0304 FFF7FEFF 		bl	wincheck
 432:.\main.c      ****                     playerturn++;
 1671              		.loc 1 432 0
 1672 0308 0D4B     		ldr	r3, .L76+28
 1673 030a 1B68     		ldr	r3, [r3]
 1674 030c 5A1C     		adds	r2, r3, #1
 1675 030e 0C4B     		ldr	r3, .L76+28
 1676 0310 1A60     		str	r2, [r3]
 433:.\main.c      ****                     right=0;
 1677              		.loc 1 433 0
 1678 0312 064B     		ldr	r3, .L76+8
 1679 0314 0022     		movs	r2, #0
 1680 0316 1A60     		str	r2, [r3]
 434:.\main.c      ****                     left=0;
 1681              		.loc 1 434 0
 1682 0318 054B     		ldr	r3, .L76+12
 1683 031a 0022     		movs	r2, #0
 1684 031c 1A60     		str	r2, [r3]
 1685              	.L58:
 435:.\main.c      ****                 }
 436:.\main.c      ****                 
 437:.\main.c      **** }
 1686              		.loc 1 437 0
 1687 031e 0837     		adds	r7, r7, #8
 1688 0320 BD46     		mov	sp, r7
 1689              		@ sp needed
 1690 0322 80BD     		pop	{r7, pc}
 1691              	.L77:
 1692              		.align	2
 1693              	.L76:
 1694 0324 00000000 		.word	i
 1695 0328 00000000 		.word	hri
 1696 032c 00000000 		.word	right
 1697 0330 00000000 		.word	left
 1698 0334 00000000 		.word	blue
 1699 0338 00000000 		.word	rownow
 1700 033c 00000000 		.word	colnow
 1701 0340 00000000 		.word	playerturn
 1702              		.cfi_endproc
 1703              	.LFE61:
 1704              		.size	move, .-move
 1705              		.section	.text.wincheck,"ax",%progbits
ARM GAS  C:\Users\pfautley\AppData\Local\Temp\ccRphpHf.s 			page 39


 1706              		.align	2
 1707              		.global	wincheck
 1708              		.thumb
 1709              		.thumb_func
 1710              		.type	wincheck, %function
 1711              	wincheck:
 1712              	.LFB62:
 438:.\main.c      **** //messed up since the numbers are from 0 to 15 not 15 to 0 
 439:.\main.c      **** void wincheck(int length, int width)
 440:.\main.c      **** {
 1713              		.loc 1 440 0
 1714              		.cfi_startproc
 1715              		@ args = 0, pretend = 0, frame = 24
 1716              		@ frame_needed = 1, uses_anonymous_args = 0
 1717              		@ link register save eliminated.
 1718 0000 80B4     		push	{r7}
 1719              		.cfi_def_cfa_offset 4
 1720              		.cfi_offset 7, -4
 1721 0002 87B0     		sub	sp, sp, #28
 1722              		.cfi_def_cfa_offset 32
 1723 0004 00AF     		add	r7, sp, #0
 1724              		.cfi_def_cfa_register 7
 1725 0006 7860     		str	r0, [r7, #4]
 1726 0008 3960     		str	r1, [r7]
 441:.\main.c      ****     int value = 0;
 1727              		.loc 1 441 0
 1728 000a 0023     		movs	r3, #0
 1729 000c FB60     		str	r3, [r7, #12]
 442:.\main.c      ****     if(width<5)
 1730              		.loc 1 442 0
 1731 000e 3B68     		ldr	r3, [r7]
 1732 0010 042B     		cmp	r3, #4
 1733 0012 01DC     		bgt	.L79
 443:.\main.c      ****     {
 444:.\main.c      ****      width = 4;
 1734              		.loc 1 444 0
 1735 0014 0423     		movs	r3, #4
 1736 0016 3B60     		str	r3, [r7]
 1737              	.L79:
 445:.\main.c      ****     }
 446:.\main.c      ****     int countpiece =0;
 1738              		.loc 1 446 0
 1739 0018 0023     		movs	r3, #0
 1740 001a 7B61     		str	r3, [r7, #20]
 447:.\main.c      ****     int countpieceV =0;
 1741              		.loc 1 447 0
 1742 001c 0023     		movs	r3, #0
 1743 001e 3B61     		str	r3, [r7, #16]
 448:.\main.c      ****     for(i= rownow-4;i<(16);i++)
 1744              		.loc 1 448 0
 1745 0020 5D4B     		ldr	r3, .L98
 1746 0022 1B68     		ldr	r3, [r3]
 1747 0024 1A1F     		subs	r2, r3, #4
 1748 0026 5D4B     		ldr	r3, .L98+4
 1749 0028 1A60     		str	r2, [r3]
 1750 002a 75E1     		b	.L80
 1751              	.L97:
ARM GAS  C:\Users\pfautley\AppData\Local\Temp\ccRphpHf.s 			page 40


 449:.\main.c      ****     {
 450:.\main.c      ****         
 451:.\main.c      ****         for(j=width-4;j<(colnow+4);j++)//(width-4)
 1752              		.loc 1 451 0
 1753 002c 3B68     		ldr	r3, [r7]
 1754 002e 1A1F     		subs	r2, r3, #4
 1755 0030 5B4B     		ldr	r3, .L98+8
 1756 0032 1A60     		str	r2, [r3]
 1757 0034 63E1     		b	.L81
 1758              	.L96:
 452:.\main.c      ****         {
 453:.\main.c      ****            
 454:.\main.c      ****             if(playerturn%2==1)
 1759              		.loc 1 454 0
 1760 0036 5B4B     		ldr	r3, .L98+12
 1761 0038 1A68     		ldr	r2, [r3]
 1762 003a 5B4B     		ldr	r3, .L98+16
 1763 003c 1340     		ands	r3, r3, r2
 1764 003e 002B     		cmp	r3, #0
 1765 0040 03DA     		bge	.L82
 1766 0042 013B     		subs	r3, r3, #1
 1767 0044 63F00103 		orn	r3, r3, #1
 1768 0048 0133     		adds	r3, r3, #1
 1769              	.L82:
 1770 004a 012B     		cmp	r3, #1
 1771 004c 40F0B280 		bne	.L83
 455:.\main.c      ****             {
 456:.\main.c      ****                 if(blue[i][j]==1)
 1772              		.loc 1 456 0
 1773 0050 524B     		ldr	r3, .L98+4
 1774 0052 1968     		ldr	r1, [r3]
 1775 0054 524B     		ldr	r3, .L98+8
 1776 0056 1B68     		ldr	r3, [r3]
 1777 0058 544A     		ldr	r2, .L98+20
 1778 005a 0901     		lsls	r1, r1, #4
 1779 005c 0B44     		add	r3, r3, r1
 1780 005e 1344     		add	r3, r3, r2
 1781 0060 1B78     		ldrb	r3, [r3]	@ zero_extendqisi2
 1782 0062 012B     		cmp	r3, #1
 1783 0064 40F09580 		bne	.L84
 457:.\main.c      ****                 {
 458:.\main.c      ****                     
 459:.\main.c      ****                     countpiece++;
 1784              		.loc 1 459 0
 1785 0068 7B69     		ldr	r3, [r7, #20]
 1786 006a 0133     		adds	r3, r3, #1
 1787 006c 7B61     		str	r3, [r7, #20]
 460:.\main.c      ****                     if (countpiece == 4) //horizontal check
 1788              		.loc 1 460 0
 1789 006e 7B69     		ldr	r3, [r7, #20]
 1790 0070 042B     		cmp	r3, #4
 1791 0072 03D1     		bne	.L85
 461:.\main.c      ****                     {
 462:.\main.c      ****                         green[3][3] =1;
 1792              		.loc 1 462 0
 1793 0074 4E4B     		ldr	r3, .L98+24
 1794 0076 0122     		movs	r2, #1
ARM GAS  C:\Users\pfautley\AppData\Local\Temp\ccRphpHf.s 			page 41


 1795 0078 83F83320 		strb	r2, [r3, #51]
 1796              	.L85:
 463:.\main.c      ****                     }
 464:.\main.c      ****                    
 465:.\main.c      ****                 
 466:.\main.c      ****                     if(blue[i-1][j]==1)//vertical check
 1797              		.loc 1 466 0
 1798 007c 474B     		ldr	r3, .L98+4
 1799 007e 1B68     		ldr	r3, [r3]
 1800 0080 591E     		subs	r1, r3, #1
 1801 0082 474B     		ldr	r3, .L98+8
 1802 0084 1B68     		ldr	r3, [r3]
 1803 0086 494A     		ldr	r2, .L98+20
 1804 0088 0901     		lsls	r1, r1, #4
 1805 008a 0B44     		add	r3, r3, r1
 1806 008c 1344     		add	r3, r3, r2
 1807 008e 1B78     		ldrb	r3, [r3]	@ zero_extendqisi2
 1808 0090 012B     		cmp	r3, #1
 1809 0092 1ED1     		bne	.L86
 467:.\main.c      ****                     {
 468:.\main.c      ****                         if(blue[i-2][j]==1&&blue[i-3][j]==1)
 1810              		.loc 1 468 0
 1811 0094 414B     		ldr	r3, .L98+4
 1812 0096 1B68     		ldr	r3, [r3]
 1813 0098 991E     		subs	r1, r3, #2
 1814 009a 414B     		ldr	r3, .L98+8
 1815 009c 1B68     		ldr	r3, [r3]
 1816 009e 434A     		ldr	r2, .L98+20
 1817 00a0 0901     		lsls	r1, r1, #4
 1818 00a2 0B44     		add	r3, r3, r1
 1819 00a4 1344     		add	r3, r3, r2
 1820 00a6 1B78     		ldrb	r3, [r3]	@ zero_extendqisi2
 1821 00a8 012B     		cmp	r3, #1
 1822 00aa 12D1     		bne	.L86
 1823              		.loc 1 468 0 is_stmt 0 discriminator 1
 1824 00ac 3B4B     		ldr	r3, .L98+4
 1825 00ae 1B68     		ldr	r3, [r3]
 1826 00b0 D91E     		subs	r1, r3, #3
 1827 00b2 3B4B     		ldr	r3, .L98+8
 1828 00b4 1B68     		ldr	r3, [r3]
 1829 00b6 3D4A     		ldr	r2, .L98+20
 1830 00b8 0901     		lsls	r1, r1, #4
 1831 00ba 0B44     		add	r3, r3, r1
 1832 00bc 1344     		add	r3, r3, r2
 1833 00be 1B78     		ldrb	r3, [r3]	@ zero_extendqisi2
 1834 00c0 012B     		cmp	r3, #1
 1835 00c2 06D1     		bne	.L86
 469:.\main.c      ****                         {
 470:.\main.c      ****                             countpieceV++;
 1836              		.loc 1 470 0 is_stmt 1
 1837 00c4 3B69     		ldr	r3, [r7, #16]
 1838 00c6 0133     		adds	r3, r3, #1
 1839 00c8 3B61     		str	r3, [r7, #16]
 471:.\main.c      ****                             green[4][4]=1;
 1840              		.loc 1 471 0
 1841 00ca 394B     		ldr	r3, .L98+24
 1842 00cc 0122     		movs	r2, #1
ARM GAS  C:\Users\pfautley\AppData\Local\Temp\ccRphpHf.s 			page 42


 1843 00ce 83F84420 		strb	r2, [r3, #68]
 1844              	.L86:
 472:.\main.c      ****                         }
 473:.\main.c      ****                     }
 474:.\main.c      ****                     if(blue[i-1][j-1]==1)//vertical/horizontal check
 1845              		.loc 1 474 0
 1846 00d2 324B     		ldr	r3, .L98+4
 1847 00d4 1B68     		ldr	r3, [r3]
 1848 00d6 591E     		subs	r1, r3, #1
 1849 00d8 314B     		ldr	r3, .L98+8
 1850 00da 1B68     		ldr	r3, [r3]
 1851 00dc 013B     		subs	r3, r3, #1
 1852 00de 334A     		ldr	r2, .L98+20
 1853 00e0 0901     		lsls	r1, r1, #4
 1854 00e2 0B44     		add	r3, r3, r1
 1855 00e4 1344     		add	r3, r3, r2
 1856 00e6 1B78     		ldrb	r3, [r3]	@ zero_extendqisi2
 1857 00e8 012B     		cmp	r3, #1
 1858 00ea 20D1     		bne	.L87
 475:.\main.c      ****                     {
 476:.\main.c      ****                         if(blue[i-2][j-2]==1&&blue[i-3][j-3]==1)
 1859              		.loc 1 476 0
 1860 00ec 2B4B     		ldr	r3, .L98+4
 1861 00ee 1B68     		ldr	r3, [r3]
 1862 00f0 991E     		subs	r1, r3, #2
 1863 00f2 2B4B     		ldr	r3, .L98+8
 1864 00f4 1B68     		ldr	r3, [r3]
 1865 00f6 023B     		subs	r3, r3, #2
 1866 00f8 2C4A     		ldr	r2, .L98+20
 1867 00fa 0901     		lsls	r1, r1, #4
 1868 00fc 0B44     		add	r3, r3, r1
 1869 00fe 1344     		add	r3, r3, r2
 1870 0100 1B78     		ldrb	r3, [r3]	@ zero_extendqisi2
 1871 0102 012B     		cmp	r3, #1
 1872 0104 13D1     		bne	.L87
 1873              		.loc 1 476 0 is_stmt 0 discriminator 1
 1874 0106 254B     		ldr	r3, .L98+4
 1875 0108 1B68     		ldr	r3, [r3]
 1876 010a D91E     		subs	r1, r3, #3
 1877 010c 244B     		ldr	r3, .L98+8
 1878 010e 1B68     		ldr	r3, [r3]
 1879 0110 033B     		subs	r3, r3, #3
 1880 0112 264A     		ldr	r2, .L98+20
 1881 0114 0901     		lsls	r1, r1, #4
 1882 0116 0B44     		add	r3, r3, r1
 1883 0118 1344     		add	r3, r3, r2
 1884 011a 1B78     		ldrb	r3, [r3]	@ zero_extendqisi2
 1885 011c 012B     		cmp	r3, #1
 1886 011e 06D1     		bne	.L87
 477:.\main.c      ****                         {
 478:.\main.c      ****                             countpieceV++;
 1887              		.loc 1 478 0 is_stmt 1
 1888 0120 3B69     		ldr	r3, [r7, #16]
 1889 0122 0133     		adds	r3, r3, #1
 1890 0124 3B61     		str	r3, [r7, #16]
 479:.\main.c      ****                             green[5][4]=1;
 1891              		.loc 1 479 0
ARM GAS  C:\Users\pfautley\AppData\Local\Temp\ccRphpHf.s 			page 43


 1892 0126 224B     		ldr	r3, .L98+24
 1893 0128 0122     		movs	r2, #1
 1894 012a 83F85420 		strb	r2, [r3, #84]
 1895              	.L87:
 480:.\main.c      ****                         }
 481:.\main.c      ****                     }
 482:.\main.c      ****                     if(blue[i-1][j+1]==1)//vertical/horizontal check
 1896              		.loc 1 482 0
 1897 012e 1B4B     		ldr	r3, .L98+4
 1898 0130 1B68     		ldr	r3, [r3]
 1899 0132 591E     		subs	r1, r3, #1
 1900 0134 1A4B     		ldr	r3, .L98+8
 1901 0136 1B68     		ldr	r3, [r3]
 1902 0138 0133     		adds	r3, r3, #1
 1903 013a 1C4A     		ldr	r2, .L98+20
 1904 013c 0901     		lsls	r1, r1, #4
 1905 013e 0B44     		add	r3, r3, r1
 1906 0140 1344     		add	r3, r3, r2
 1907 0142 1B78     		ldrb	r3, [r3]	@ zero_extendqisi2
 1908 0144 012B     		cmp	r3, #1
 1909 0146 40F0D580 		bne	.L90
 483:.\main.c      ****                     {
 484:.\main.c      ****                         if(blue[i-2][j+2]==1&&blue[i-3][j+3]==1)
 1910              		.loc 1 484 0
 1911 014a 144B     		ldr	r3, .L98+4
 1912 014c 1B68     		ldr	r3, [r3]
 1913 014e 991E     		subs	r1, r3, #2
 1914 0150 134B     		ldr	r3, .L98+8
 1915 0152 1B68     		ldr	r3, [r3]
 1916 0154 0233     		adds	r3, r3, #2
 1917 0156 154A     		ldr	r2, .L98+20
 1918 0158 0901     		lsls	r1, r1, #4
 1919 015a 0B44     		add	r3, r3, r1
 1920 015c 1344     		add	r3, r3, r2
 1921 015e 1B78     		ldrb	r3, [r3]	@ zero_extendqisi2
 1922 0160 012B     		cmp	r3, #1
 1923 0162 40F0C780 		bne	.L90
 1924              		.loc 1 484 0 is_stmt 0 discriminator 1
 1925 0166 0D4B     		ldr	r3, .L98+4
 1926 0168 1B68     		ldr	r3, [r3]
 1927 016a D91E     		subs	r1, r3, #3
 1928 016c 0C4B     		ldr	r3, .L98+8
 1929 016e 1B68     		ldr	r3, [r3]
 1930 0170 0333     		adds	r3, r3, #3
 1931 0172 0E4A     		ldr	r2, .L98+20
 1932 0174 0901     		lsls	r1, r1, #4
 1933 0176 0B44     		add	r3, r3, r1
 1934 0178 1344     		add	r3, r3, r2
 1935 017a 1B78     		ldrb	r3, [r3]	@ zero_extendqisi2
 1936 017c 012B     		cmp	r3, #1
 1937 017e 40F0B980 		bne	.L90
 485:.\main.c      ****                         {
 486:.\main.c      ****                             countpieceV++;
 1938              		.loc 1 486 0 is_stmt 1
 1939 0182 3B69     		ldr	r3, [r7, #16]
 1940 0184 0133     		adds	r3, r3, #1
 1941 0186 3B61     		str	r3, [r7, #16]
ARM GAS  C:\Users\pfautley\AppData\Local\Temp\ccRphpHf.s 			page 44


 487:.\main.c      ****                             green[4][3]=1;
 1942              		.loc 1 487 0
 1943 0188 094B     		ldr	r3, .L98+24
 1944 018a 0122     		movs	r2, #1
 1945 018c 83F84320 		strb	r2, [r3, #67]
 1946 0190 B0E0     		b	.L90
 1947              	.L84:
 488:.\main.c      ****                         }
 489:.\main.c      ****                     }
 490:.\main.c      ****                 }else 
 491:.\main.c      ****                 {
 492:.\main.c      ****                 countpiece = 0;
 1948              		.loc 1 492 0
 1949 0192 0023     		movs	r3, #0
 1950 0194 7B61     		str	r3, [r7, #20]
 1951 0196 ADE0     		b	.L90
 1952              	.L99:
 1953              		.align	2
 1954              	.L98:
 1955 0198 00000000 		.word	rownow
 1956 019c 00000000 		.word	i
 1957 01a0 00000000 		.word	j
 1958 01a4 00000000 		.word	playerturn
 1959 01a8 01000080 		.word	-2147483647
 1960 01ac 00000000 		.word	blue
 1961 01b0 00000000 		.word	green
 1962              	.L83:
 493:.\main.c      ****                 }
 494:.\main.c      ****             }else
 495:.\main.c      ****             {
 496:.\main.c      ****                 if (red[i][j] == 1)
 1963              		.loc 1 496 0
 1964 01b4 5D4B     		ldr	r3, .L100
 1965 01b6 1968     		ldr	r1, [r3]
 1966 01b8 5D4B     		ldr	r3, .L100+4
 1967 01ba 1B68     		ldr	r3, [r3]
 1968 01bc 5D4A     		ldr	r2, .L100+8
 1969 01be 0901     		lsls	r1, r1, #4
 1970 01c0 0B44     		add	r3, r3, r1
 1971 01c2 1344     		add	r3, r3, r2
 1972 01c4 1B78     		ldrb	r3, [r3]	@ zero_extendqisi2
 1973 01c6 012B     		cmp	r3, #1
 1974 01c8 40F09280 		bne	.L91
 497:.\main.c      ****                 {
 498:.\main.c      ****                     countpiece++;
 1975              		.loc 1 498 0
 1976 01cc 7B69     		ldr	r3, [r7, #20]
 1977 01ce 0133     		adds	r3, r3, #1
 1978 01d0 7B61     		str	r3, [r7, #20]
 499:.\main.c      ****                     if (countpiece == 4) 
 1979              		.loc 1 499 0
 1980 01d2 7B69     		ldr	r3, [r7, #20]
 1981 01d4 042B     		cmp	r3, #4
 1982 01d6 03D1     		bne	.L92
 500:.\main.c      ****                     {
 501:.\main.c      ****                         green[3][3] =1;
 1983              		.loc 1 501 0
ARM GAS  C:\Users\pfautley\AppData\Local\Temp\ccRphpHf.s 			page 45


 1984 01d8 574B     		ldr	r3, .L100+12
 1985 01da 0122     		movs	r2, #1
 1986 01dc 83F83320 		strb	r2, [r3, #51]
 1987              	.L92:
 502:.\main.c      ****                     }
 503:.\main.c      ****                     if(red[i-1][j]==1)//vertical check
 1988              		.loc 1 503 0
 1989 01e0 524B     		ldr	r3, .L100
 1990 01e2 1B68     		ldr	r3, [r3]
 1991 01e4 591E     		subs	r1, r3, #1
 1992 01e6 524B     		ldr	r3, .L100+4
 1993 01e8 1B68     		ldr	r3, [r3]
 1994 01ea 524A     		ldr	r2, .L100+8
 1995 01ec 0901     		lsls	r1, r1, #4
 1996 01ee 0B44     		add	r3, r3, r1
 1997 01f0 1344     		add	r3, r3, r2
 1998 01f2 1B78     		ldrb	r3, [r3]	@ zero_extendqisi2
 1999 01f4 012B     		cmp	r3, #1
 2000 01f6 1ED1     		bne	.L93
 504:.\main.c      ****                     {
 505:.\main.c      ****                         if(red[i-2][j]==1&&red[i-3][j]==1)
 2001              		.loc 1 505 0
 2002 01f8 4C4B     		ldr	r3, .L100
 2003 01fa 1B68     		ldr	r3, [r3]
 2004 01fc 991E     		subs	r1, r3, #2
 2005 01fe 4C4B     		ldr	r3, .L100+4
 2006 0200 1B68     		ldr	r3, [r3]
 2007 0202 4C4A     		ldr	r2, .L100+8
 2008 0204 0901     		lsls	r1, r1, #4
 2009 0206 0B44     		add	r3, r3, r1
 2010 0208 1344     		add	r3, r3, r2
 2011 020a 1B78     		ldrb	r3, [r3]	@ zero_extendqisi2
 2012 020c 012B     		cmp	r3, #1
 2013 020e 12D1     		bne	.L93
 2014              		.loc 1 505 0 is_stmt 0 discriminator 1
 2015 0210 464B     		ldr	r3, .L100
 2016 0212 1B68     		ldr	r3, [r3]
 2017 0214 D91E     		subs	r1, r3, #3
 2018 0216 464B     		ldr	r3, .L100+4
 2019 0218 1B68     		ldr	r3, [r3]
 2020 021a 464A     		ldr	r2, .L100+8
 2021 021c 0901     		lsls	r1, r1, #4
 2022 021e 0B44     		add	r3, r3, r1
 2023 0220 1344     		add	r3, r3, r2
 2024 0222 1B78     		ldrb	r3, [r3]	@ zero_extendqisi2
 2025 0224 012B     		cmp	r3, #1
 2026 0226 06D1     		bne	.L93
 506:.\main.c      ****                         {
 507:.\main.c      ****                             countpieceV++;
 2027              		.loc 1 507 0 is_stmt 1
 2028 0228 3B69     		ldr	r3, [r7, #16]
 2029 022a 0133     		adds	r3, r3, #1
 2030 022c 3B61     		str	r3, [r7, #16]
 508:.\main.c      ****                             green[4][4]=1;
 2031              		.loc 1 508 0
 2032 022e 424B     		ldr	r3, .L100+12
 2033 0230 0122     		movs	r2, #1
ARM GAS  C:\Users\pfautley\AppData\Local\Temp\ccRphpHf.s 			page 46


 2034 0232 83F84420 		strb	r2, [r3, #68]
 2035              	.L93:
 509:.\main.c      ****                         }
 510:.\main.c      ****                     }
 511:.\main.c      ****                     if(red[i-1][j-1]==1)//vertical/horizontal check
 2036              		.loc 1 511 0
 2037 0236 3D4B     		ldr	r3, .L100
 2038 0238 1B68     		ldr	r3, [r3]
 2039 023a 591E     		subs	r1, r3, #1
 2040 023c 3C4B     		ldr	r3, .L100+4
 2041 023e 1B68     		ldr	r3, [r3]
 2042 0240 013B     		subs	r3, r3, #1
 2043 0242 3C4A     		ldr	r2, .L100+8
 2044 0244 0901     		lsls	r1, r1, #4
 2045 0246 0B44     		add	r3, r3, r1
 2046 0248 1344     		add	r3, r3, r2
 2047 024a 1B78     		ldrb	r3, [r3]	@ zero_extendqisi2
 2048 024c 012B     		cmp	r3, #1
 2049 024e 20D1     		bne	.L94
 512:.\main.c      ****                     {
 513:.\main.c      ****                         if(red[i-2][j-2]==1&&red[i-3][j-3]==1)
 2050              		.loc 1 513 0
 2051 0250 364B     		ldr	r3, .L100
 2052 0252 1B68     		ldr	r3, [r3]
 2053 0254 991E     		subs	r1, r3, #2
 2054 0256 364B     		ldr	r3, .L100+4
 2055 0258 1B68     		ldr	r3, [r3]
 2056 025a 023B     		subs	r3, r3, #2
 2057 025c 354A     		ldr	r2, .L100+8
 2058 025e 0901     		lsls	r1, r1, #4
 2059 0260 0B44     		add	r3, r3, r1
 2060 0262 1344     		add	r3, r3, r2
 2061 0264 1B78     		ldrb	r3, [r3]	@ zero_extendqisi2
 2062 0266 012B     		cmp	r3, #1
 2063 0268 13D1     		bne	.L94
 2064              		.loc 1 513 0 is_stmt 0 discriminator 1
 2065 026a 304B     		ldr	r3, .L100
 2066 026c 1B68     		ldr	r3, [r3]
 2067 026e D91E     		subs	r1, r3, #3
 2068 0270 2F4B     		ldr	r3, .L100+4
 2069 0272 1B68     		ldr	r3, [r3]
 2070 0274 033B     		subs	r3, r3, #3
 2071 0276 2F4A     		ldr	r2, .L100+8
 2072 0278 0901     		lsls	r1, r1, #4
 2073 027a 0B44     		add	r3, r3, r1
 2074 027c 1344     		add	r3, r3, r2
 2075 027e 1B78     		ldrb	r3, [r3]	@ zero_extendqisi2
 2076 0280 012B     		cmp	r3, #1
 2077 0282 06D1     		bne	.L94
 514:.\main.c      ****                         {
 515:.\main.c      ****                             countpieceV++;
 2078              		.loc 1 515 0 is_stmt 1
 2079 0284 3B69     		ldr	r3, [r7, #16]
 2080 0286 0133     		adds	r3, r3, #1
 2081 0288 3B61     		str	r3, [r7, #16]
 516:.\main.c      ****                             green[5][4]=1;
 2082              		.loc 1 516 0
ARM GAS  C:\Users\pfautley\AppData\Local\Temp\ccRphpHf.s 			page 47


 2083 028a 2B4B     		ldr	r3, .L100+12
 2084 028c 0122     		movs	r2, #1
 2085 028e 83F85420 		strb	r2, [r3, #84]
 2086              	.L94:
 517:.\main.c      ****                         }
 518:.\main.c      ****                     }
 519:.\main.c      ****                     if(red[i-1][j+1]==1)//vertical/horizontal check
 2087              		.loc 1 519 0
 2088 0292 264B     		ldr	r3, .L100
 2089 0294 1B68     		ldr	r3, [r3]
 2090 0296 591E     		subs	r1, r3, #1
 2091 0298 254B     		ldr	r3, .L100+4
 2092 029a 1B68     		ldr	r3, [r3]
 2093 029c 0133     		adds	r3, r3, #1
 2094 029e 254A     		ldr	r2, .L100+8
 2095 02a0 0901     		lsls	r1, r1, #4
 2096 02a2 0B44     		add	r3, r3, r1
 2097 02a4 1344     		add	r3, r3, r2
 2098 02a6 1B78     		ldrb	r3, [r3]	@ zero_extendqisi2
 2099 02a8 012B     		cmp	r3, #1
 2100 02aa 23D1     		bne	.L90
 520:.\main.c      ****                     {
 521:.\main.c      ****                         if(red[i-2][j+2]==1&&red[i-3][j+3]==1)
 2101              		.loc 1 521 0
 2102 02ac 1F4B     		ldr	r3, .L100
 2103 02ae 1B68     		ldr	r3, [r3]
 2104 02b0 991E     		subs	r1, r3, #2
 2105 02b2 1F4B     		ldr	r3, .L100+4
 2106 02b4 1B68     		ldr	r3, [r3]
 2107 02b6 0233     		adds	r3, r3, #2
 2108 02b8 1E4A     		ldr	r2, .L100+8
 2109 02ba 0901     		lsls	r1, r1, #4
 2110 02bc 0B44     		add	r3, r3, r1
 2111 02be 1344     		add	r3, r3, r2
 2112 02c0 1B78     		ldrb	r3, [r3]	@ zero_extendqisi2
 2113 02c2 012B     		cmp	r3, #1
 2114 02c4 16D1     		bne	.L90
 2115              		.loc 1 521 0 is_stmt 0 discriminator 1
 2116 02c6 194B     		ldr	r3, .L100
 2117 02c8 1B68     		ldr	r3, [r3]
 2118 02ca D91E     		subs	r1, r3, #3
 2119 02cc 184B     		ldr	r3, .L100+4
 2120 02ce 1B68     		ldr	r3, [r3]
 2121 02d0 0333     		adds	r3, r3, #3
 2122 02d2 184A     		ldr	r2, .L100+8
 2123 02d4 0901     		lsls	r1, r1, #4
 2124 02d6 0B44     		add	r3, r3, r1
 2125 02d8 1344     		add	r3, r3, r2
 2126 02da 1B78     		ldrb	r3, [r3]	@ zero_extendqisi2
 2127 02dc 012B     		cmp	r3, #1
 2128 02de 09D1     		bne	.L90
 522:.\main.c      ****                         {
 523:.\main.c      ****                             countpieceV++;
 2129              		.loc 1 523 0 is_stmt 1
 2130 02e0 3B69     		ldr	r3, [r7, #16]
 2131 02e2 0133     		adds	r3, r3, #1
 2132 02e4 3B61     		str	r3, [r7, #16]
ARM GAS  C:\Users\pfautley\AppData\Local\Temp\ccRphpHf.s 			page 48


 524:.\main.c      ****                             green[4][3]=1;
 2133              		.loc 1 524 0
 2134 02e6 144B     		ldr	r3, .L100+12
 2135 02e8 0122     		movs	r2, #1
 2136 02ea 83F84320 		strb	r2, [r3, #67]
 2137 02ee 01E0     		b	.L90
 2138              	.L91:
 525:.\main.c      ****                         }
 526:.\main.c      ****                     }
 527:.\main.c      ****                 } else{
 528:.\main.c      ****                 countpiece = 0;
 2139              		.loc 1 528 0
 2140 02f0 0023     		movs	r3, #0
 2141 02f2 7B61     		str	r3, [r7, #20]
 2142              	.L90:
 451:.\main.c      ****         for(j=width-4;j<(colnow+4);j++)//(width-4)
 2143              		.loc 1 451 0
 2144 02f4 0E4B     		ldr	r3, .L100+4
 2145 02f6 1B68     		ldr	r3, [r3]
 2146 02f8 5A1C     		adds	r2, r3, #1
 2147 02fa 0D4B     		ldr	r3, .L100+4
 2148 02fc 1A60     		str	r2, [r3]
 2149              	.L81:
 451:.\main.c      ****         for(j=width-4;j<(colnow+4);j++)//(width-4)
 2150              		.loc 1 451 0 is_stmt 0 discriminator 1
 2151 02fe 0F4B     		ldr	r3, .L100+16
 2152 0300 1B68     		ldr	r3, [r3]
 2153 0302 1A1D     		adds	r2, r3, #4
 2154 0304 0A4B     		ldr	r3, .L100+4
 2155 0306 1B68     		ldr	r3, [r3]
 2156 0308 9A42     		cmp	r2, r3
 2157 030a 3FF794AE 		bgt	.L96
 448:.\main.c      ****     for(i= rownow-4;i<(16);i++)
 2158              		.loc 1 448 0 is_stmt 1
 2159 030e 074B     		ldr	r3, .L100
 2160 0310 1B68     		ldr	r3, [r3]
 2161 0312 5A1C     		adds	r2, r3, #1
 2162 0314 054B     		ldr	r3, .L100
 2163 0316 1A60     		str	r2, [r3]
 2164              	.L80:
 448:.\main.c      ****     for(i= rownow-4;i<(16);i++)
 2165              		.loc 1 448 0 is_stmt 0 discriminator 1
 2166 0318 044B     		ldr	r3, .L100
 2167 031a 1B68     		ldr	r3, [r3]
 2168 031c 0F2B     		cmp	r3, #15
 2169 031e 7FF785AE 		ble	.L97
 529:.\main.c      ****                 }
 530:.\main.c      **** 
 531:.\main.c      ****             }
 532:.\main.c      **** 
 533:.\main.c      ****         }
 534:.\main.c      ****         
 535:.\main.c      ****     }
 536:.\main.c      ****         
 537:.\main.c      **** }
 2170              		.loc 1 537 0 is_stmt 1
 2171 0322 1C37     		adds	r7, r7, #28
ARM GAS  C:\Users\pfautley\AppData\Local\Temp\ccRphpHf.s 			page 49


 2172 0324 BD46     		mov	sp, r7
 2173              		@ sp needed
 2174 0326 5DF8047B 		ldr	r7, [sp], #4
 2175 032a 7047     		bx	lr
 2176              	.L101:
 2177              		.align	2
 2178              	.L100:
 2179 032c 00000000 		.word	i
 2180 0330 00000000 		.word	j
 2181 0334 00000000 		.word	red
 2182 0338 00000000 		.word	green
 2183 033c 00000000 		.word	colnow
 2184              		.cfi_endproc
 2185              	.LFE62:
 2186              		.size	wincheck, .-wincheck
 2187              		.text
 2188              	.Letext0:
 2189              		.file 2 "c:\\program files\\cypress\\psoc creator\\3.1\\psoc creator\\import\\gnu_cs\\arm\\4.8.4\\
 2190              		.file 3 "c:\\program files\\cypress\\psoc creator\\3.1\\psoc creator\\import\\gnu_cs\\arm\\4.8.4\\
 2191              		.file 4 ".\\Generated_Source\\PSoC5/cytypes.h"
 2192              		.file 5 ".\\Generated_Source\\PSoC5/core_cm3.h"
 2193              		.section	.debug_info,"",%progbits
 2194              	.Ldebug_info0:
 2195 0000 1B040000 		.4byte	0x41b
 2196 0004 0400     		.2byte	0x4
 2197 0006 00000000 		.4byte	.Ldebug_abbrev0
 2198 000a 04       		.byte	0x4
 2199 000b 01       		.uleb128 0x1
 2200 000c 88010000 		.4byte	.LASF51
 2201 0010 01       		.byte	0x1
 2202 0011 60020000 		.4byte	.LASF52
 2203 0015 3F000000 		.4byte	.LASF53
 2204 0019 00000000 		.4byte	.Ldebug_ranges0+0
 2205 001d 00000000 		.4byte	0
 2206 0021 00000000 		.4byte	.Ldebug_line0
 2207 0025 02       		.uleb128 0x2
 2208 0026 01       		.byte	0x1
 2209 0027 06       		.byte	0x6
 2210 0028 9E000000 		.4byte	.LASF0
 2211 002c 02       		.uleb128 0x2
 2212 002d 01       		.byte	0x1
 2213 002e 08       		.byte	0x8
 2214 002f FE000000 		.4byte	.LASF1
 2215 0033 02       		.uleb128 0x2
 2216 0034 02       		.byte	0x2
 2217 0035 05       		.byte	0x5
 2218 0036 4E020000 		.4byte	.LASF2
 2219 003a 02       		.uleb128 0x2
 2220 003b 02       		.byte	0x2
 2221 003c 07       		.byte	0x7
 2222 003d D9000000 		.4byte	.LASF3
 2223 0041 03       		.uleb128 0x3
 2224 0042 25000000 		.4byte	.LASF9
 2225 0046 02       		.byte	0x2
 2226 0047 37       		.byte	0x37
 2227 0048 4C000000 		.4byte	0x4c
 2228 004c 02       		.uleb128 0x2
ARM GAS  C:\Users\pfautley\AppData\Local\Temp\ccRphpHf.s 			page 50


 2229 004d 04       		.byte	0x4
 2230 004e 05       		.byte	0x5
 2231 004f 69020000 		.4byte	.LASF4
 2232 0053 02       		.uleb128 0x2
 2233 0054 04       		.byte	0x4
 2234 0055 07       		.byte	0x7
 2235 0056 C7000000 		.4byte	.LASF5
 2236 005a 02       		.uleb128 0x2
 2237 005b 08       		.byte	0x8
 2238 005c 05       		.byte	0x5
 2239 005d 1B020000 		.4byte	.LASF6
 2240 0061 02       		.uleb128 0x2
 2241 0062 08       		.byte	0x8
 2242 0063 07       		.byte	0x7
 2243 0064 4E010000 		.4byte	.LASF7
 2244 0068 04       		.uleb128 0x4
 2245 0069 04       		.byte	0x4
 2246 006a 05       		.byte	0x5
 2247 006b 696E7400 		.ascii	"int\000"
 2248 006f 02       		.uleb128 0x2
 2249 0070 04       		.byte	0x4
 2250 0071 07       		.byte	0x7
 2251 0072 36010000 		.4byte	.LASF8
 2252 0076 03       		.uleb128 0x3
 2253 0077 04020000 		.4byte	.LASF10
 2254 007b 03       		.byte	0x3
 2255 007c 41       		.byte	0x41
 2256 007d 41000000 		.4byte	0x41
 2257 0081 03       		.uleb128 0x3
 2258 0082 13010000 		.4byte	.LASF11
 2259 0086 04       		.byte	0x4
 2260 0087 A1       		.byte	0xa1
 2261 0088 2C000000 		.4byte	0x2c
 2262 008c 03       		.uleb128 0x3
 2263 008d 2A010000 		.4byte	.LASF12
 2264 0091 04       		.byte	0x4
 2265 0092 A2       		.byte	0xa2
 2266 0093 3A000000 		.4byte	0x3a
 2267 0097 02       		.uleb128 0x2
 2268 0098 04       		.byte	0x4
 2269 0099 04       		.byte	0x4
 2270 009a 98000000 		.4byte	.LASF13
 2271 009e 02       		.uleb128 0x2
 2272 009f 08       		.byte	0x8
 2273 00a0 04       		.byte	0x4
 2274 00a1 0C010000 		.4byte	.LASF14
 2275 00a5 03       		.uleb128 0x3
 2276 00a6 15020000 		.4byte	.LASF15
 2277 00aa 04       		.byte	0x4
 2278 00ab B2       		.byte	0xb2
 2279 00ac B0000000 		.4byte	0xb0
 2280 00b0 02       		.uleb128 0x2
 2281 00b1 01       		.byte	0x1
 2282 00b2 08       		.byte	0x8
 2283 00b3 36020000 		.4byte	.LASF16
 2284 00b7 05       		.uleb128 0x5
 2285 00b8 B9000000 		.4byte	.LASF17
ARM GAS  C:\Users\pfautley\AppData\Local\Temp\ccRphpHf.s 			page 51


 2286 00bc 04       		.byte	0x4
 2287 00bd 4B01     		.2byte	0x14b
 2288 00bf C3000000 		.4byte	0xc3
 2289 00c3 06       		.uleb128 0x6
 2290 00c4 81000000 		.4byte	0x81
 2291 00c8 02       		.uleb128 0x2
 2292 00c9 04       		.byte	0x4
 2293 00ca 07       		.byte	0x7
 2294 00cb 0C020000 		.4byte	.LASF18
 2295 00cf 07       		.uleb128 0x7
 2296 00d0 65010000 		.4byte	.LASF19
 2297 00d4 01       		.byte	0x1
 2298 00d5 46       		.byte	0x46
 2299 00d6 00000000 		.4byte	.LFB56
 2300 00da 04030000 		.4byte	.LFE56-.LFB56
 2301 00de 01       		.uleb128 0x1
 2302 00df 9C       		.byte	0x9c
 2303 00e0 08       		.uleb128 0x8
 2304 00e1 76010000 		.4byte	.LASF21
 2305 00e5 01       		.byte	0x1
 2306 00e6 AA       		.byte	0xaa
 2307 00e7 00000000 		.4byte	.LFB57
 2308 00eb 9C000000 		.4byte	.LFE57-.LFB57
 2309 00ef 01       		.uleb128 0x1
 2310 00f0 9C       		.byte	0x9c
 2311 00f1 04010000 		.4byte	0x104
 2312 00f5 09       		.uleb128 0x9
 2313 00f6 19010000 		.4byte	.LASF23
 2314 00fa 01       		.byte	0x1
 2315 00fb AB       		.byte	0xab
 2316 00fc 81000000 		.4byte	0x81
 2317 0100 02       		.uleb128 0x2
 2318 0101 91       		.byte	0x91
 2319 0102 6F       		.sleb128 -17
 2320 0103 00       		.byte	0
 2321 0104 0A       		.uleb128 0xa
 2322 0105 AF000000 		.4byte	.LASF20
 2323 0109 01       		.byte	0x1
 2324 010a C7       		.byte	0xc7
 2325 010b 00000000 		.4byte	.LFB58
 2326 010f 0C000000 		.4byte	.LFE58-.LFB58
 2327 0113 01       		.uleb128 0x1
 2328 0114 9C       		.byte	0x9c
 2329 0115 0B       		.uleb128 0xb
 2330 0116 31010000 		.4byte	.LASF22
 2331 011a 01       		.byte	0x1
 2332 011b CB       		.byte	0xcb
 2333 011c 68000000 		.4byte	0x68
 2334 0120 00000000 		.4byte	.LFB59
 2335 0124 E8000000 		.4byte	.LFE59-.LFB59
 2336 0128 01       		.uleb128 0x1
 2337 0129 9C       		.byte	0x9c
 2338 012a 83010000 		.4byte	0x183
 2339 012e 09       		.uleb128 0x9
 2340 012f 48020000 		.4byte	.LASF24
 2341 0133 01       		.byte	0x1
 2342 0134 DA       		.byte	0xda
ARM GAS  C:\Users\pfautley\AppData\Local\Temp\ccRphpHf.s 			page 52


 2343 0135 8C000000 		.4byte	0x8c
 2344 0139 02       		.uleb128 0x2
 2345 013a 91       		.byte	0x91
 2346 013b 76       		.sleb128 -10
 2347 013c 09       		.uleb128 0x9
 2348 013d 3B020000 		.4byte	.LASF25
 2349 0141 01       		.byte	0x1
 2350 0142 DB       		.byte	0xdb
 2351 0143 8C000000 		.4byte	0x8c
 2352 0147 02       		.uleb128 0x2
 2353 0148 91       		.byte	0x91
 2354 0149 74       		.sleb128 -12
 2355 014a 09       		.uleb128 0x9
 2356 014b 87020000 		.4byte	.LASF26
 2357 014f 01       		.byte	0x1
 2358 0150 DC       		.byte	0xdc
 2359 0151 8C000000 		.4byte	0x8c
 2360 0155 02       		.uleb128 0x2
 2361 0156 91       		.byte	0x91
 2362 0157 72       		.sleb128 -14
 2363 0158 09       		.uleb128 0x9
 2364 0159 84000000 		.4byte	.LASF27
 2365 015d 01       		.byte	0x1
 2366 015e DF       		.byte	0xdf
 2367 015f 83010000 		.4byte	0x183
 2368 0163 02       		.uleb128 0x2
 2369 0164 91       		.byte	0x91
 2370 0165 70       		.sleb128 -16
 2371 0166 09       		.uleb128 0x9
 2372 0167 8E000000 		.4byte	.LASF28
 2373 016b 01       		.byte	0x1
 2374 016c E0       		.byte	0xe0
 2375 016d 83010000 		.4byte	0x183
 2376 0171 02       		.uleb128 0x2
 2377 0172 91       		.byte	0x91
 2378 0173 6C       		.sleb128 -20
 2379 0174 09       		.uleb128 0x9
 2380 0175 AA000000 		.4byte	.LASF29
 2381 0179 01       		.byte	0x1
 2382 017a E1       		.byte	0xe1
 2383 017b 81000000 		.4byte	0x81
 2384 017f 02       		.uleb128 0x2
 2385 0180 91       		.byte	0x91
 2386 0181 71       		.sleb128 -15
 2387 0182 00       		.byte	0
 2388 0183 0C       		.uleb128 0xc
 2389 0184 81000000 		.4byte	0x81
 2390 0188 93010000 		.4byte	0x193
 2391 018c 0D       		.uleb128 0xd
 2392 018d C8000000 		.4byte	0xc8
 2393 0191 00       		.byte	0
 2394 0192 00       		.byte	0
 2395 0193 0E       		.uleb128 0xe
 2396 0194 58020000 		.4byte	.LASF54
 2397 0198 01       		.byte	0x1
 2398 0199 0D01     		.2byte	0x10d
 2399 019b 00000000 		.4byte	.LFB60
ARM GAS  C:\Users\pfautley\AppData\Local\Temp\ccRphpHf.s 			page 53


 2400 019f F4010000 		.4byte	.LFE60-.LFB60
 2401 01a3 01       		.uleb128 0x1
 2402 01a4 9C       		.byte	0x9c
 2403 01a5 0F       		.uleb128 0xf
 2404 01a6 2F000000 		.4byte	.LASF30
 2405 01aa 01       		.byte	0x1
 2406 01ab 5901     		.2byte	0x159
 2407 01ad 00000000 		.4byte	.LFB61
 2408 01b1 44030000 		.4byte	.LFE61-.LFB61
 2409 01b5 01       		.uleb128 0x1
 2410 01b6 9C       		.byte	0x9c
 2411 01b7 CB010000 		.4byte	0x1cb
 2412 01bb 10       		.uleb128 0x10
 2413 01bc 72020000 		.4byte	.LASF32
 2414 01c0 01       		.byte	0x1
 2415 01c1 5901     		.2byte	0x159
 2416 01c3 8C000000 		.4byte	0x8c
 2417 01c7 02       		.uleb128 0x2
 2418 01c8 91       		.byte	0x91
 2419 01c9 76       		.sleb128 -10
 2420 01ca 00       		.byte	0
 2421 01cb 11       		.uleb128 0x11
 2422 01cc BE000000 		.4byte	.LASF31
 2423 01d0 01       		.byte	0x1
 2424 01d1 B701     		.2byte	0x1b7
 2425 01d3 00000000 		.4byte	.LFB62
 2426 01d7 40030000 		.4byte	.LFE62-.LFB62
 2427 01db 01       		.uleb128 0x1
 2428 01dc 9C       		.byte	0x9c
 2429 01dd 2D020000 		.4byte	0x22d
 2430 01e1 10       		.uleb128 0x10
 2431 01e2 9C020000 		.4byte	.LASF33
 2432 01e6 01       		.byte	0x1
 2433 01e7 B701     		.2byte	0x1b7
 2434 01e9 68000000 		.4byte	0x68
 2435 01ed 02       		.uleb128 0x2
 2436 01ee 91       		.byte	0x91
 2437 01ef 64       		.sleb128 -28
 2438 01f0 10       		.uleb128 0x10
 2439 01f1 42020000 		.4byte	.LASF34
 2440 01f5 01       		.byte	0x1
 2441 01f6 B701     		.2byte	0x1b7
 2442 01f8 68000000 		.4byte	0x68
 2443 01fc 02       		.uleb128 0x2
 2444 01fd 91       		.byte	0x91
 2445 01fe 60       		.sleb128 -32
 2446 01ff 12       		.uleb128 0x12
 2447 0200 1F000000 		.4byte	.LASF35
 2448 0204 01       		.byte	0x1
 2449 0205 B901     		.2byte	0x1b9
 2450 0207 68000000 		.4byte	0x68
 2451 020b 02       		.uleb128 0x2
 2452 020c 91       		.byte	0x91
 2453 020d 6C       		.sleb128 -20
 2454 020e 12       		.uleb128 0x12
 2455 020f 43010000 		.4byte	.LASF36
 2456 0213 01       		.byte	0x1
ARM GAS  C:\Users\pfautley\AppData\Local\Temp\ccRphpHf.s 			page 54


 2457 0214 BE01     		.2byte	0x1be
 2458 0216 68000000 		.4byte	0x68
 2459 021a 02       		.uleb128 0x2
 2460 021b 91       		.byte	0x91
 2461 021c 74       		.sleb128 -12
 2462 021d 12       		.uleb128 0x12
 2463 021e 7B020000 		.4byte	.LASF37
 2464 0222 01       		.byte	0x1
 2465 0223 BF01     		.2byte	0x1bf
 2466 0225 68000000 		.4byte	0x68
 2467 0229 02       		.uleb128 0x2
 2468 022a 91       		.byte	0x91
 2469 022b 70       		.sleb128 -16
 2470 022c 00       		.byte	0
 2471 022d 13       		.uleb128 0x13
 2472 022e F1000000 		.4byte	.LASF38
 2473 0232 05       		.byte	0x5
 2474 0233 1606     		.2byte	0x616
 2475 0235 39020000 		.4byte	0x239
 2476 0239 06       		.uleb128 0x6
 2477 023a 76000000 		.4byte	0x76
 2478 023e 14       		.uleb128 0x14
 2479 023f 6900     		.ascii	"i\000"
 2480 0241 01       		.byte	0x1
 2481 0242 11       		.byte	0x11
 2482 0243 68000000 		.4byte	0x68
 2483 0247 05       		.uleb128 0x5
 2484 0248 03       		.byte	0x3
 2485 0249 00000000 		.4byte	i
 2486 024d 14       		.uleb128 0x14
 2487 024e 6A00     		.ascii	"j\000"
 2488 0250 01       		.byte	0x1
 2489 0251 12       		.byte	0x12
 2490 0252 68000000 		.4byte	0x68
 2491 0256 05       		.uleb128 0x5
 2492 0257 03       		.byte	0x3
 2493 0258 00000000 		.4byte	j
 2494 025c 14       		.uleb128 0x14
 2495 025d 436F6C00 		.ascii	"Col\000"
 2496 0261 01       		.byte	0x1
 2497 0262 13       		.byte	0x13
 2498 0263 68000000 		.4byte	0x68
 2499 0267 05       		.uleb128 0x5
 2500 0268 03       		.byte	0x3
 2501 0269 00000000 		.4byte	Col
 2502 026d 14       		.uleb128 0x14
 2503 026e 526F7700 		.ascii	"Row\000"
 2504 0272 01       		.byte	0x1
 2505 0273 14       		.byte	0x14
 2506 0274 68000000 		.4byte	0x68
 2507 0278 05       		.uleb128 0x5
 2508 0279 03       		.byte	0x3
 2509 027a 00000000 		.4byte	Row
 2510 027e 15       		.uleb128 0x15
 2511 027f 11000000 		.4byte	.LASF39
 2512 0283 01       		.byte	0x1
 2513 0284 15       		.byte	0x15
ARM GAS  C:\Users\pfautley\AppData\Local\Temp\ccRphpHf.s 			page 55


 2514 0285 68000000 		.4byte	0x68
 2515 0289 05       		.uleb128 0x5
 2516 028a 03       		.byte	0x3
 2517 028b 00000000 		.4byte	colnow
 2518 028f 15       		.uleb128 0x15
 2519 0290 18000000 		.4byte	.LASF40
 2520 0294 01       		.byte	0x1
 2521 0295 16       		.byte	0x16
 2522 0296 68000000 		.4byte	0x68
 2523 029a 05       		.uleb128 0x5
 2524 029b 03       		.byte	0x3
 2525 029c 00000000 		.4byte	rownow
 2526 02a0 14       		.uleb128 0x14
 2527 02a1 68726900 		.ascii	"hri\000"
 2528 02a5 01       		.byte	0x1
 2529 02a6 17       		.byte	0x17
 2530 02a7 68000000 		.4byte	0x68
 2531 02ab 05       		.uleb128 0x5
 2532 02ac 03       		.byte	0x3
 2533 02ad 00000000 		.4byte	hri
 2534 02b1 15       		.uleb128 0x15
 2535 02b2 00000000 		.4byte	.LASF41
 2536 02b6 01       		.byte	0x1
 2537 02b7 18       		.byte	0x18
 2538 02b8 68000000 		.4byte	0x68
 2539 02bc 05       		.uleb128 0x5
 2540 02bd 03       		.byte	0x3
 2541 02be 00000000 		.4byte	right
 2542 02c2 15       		.uleb128 0x15
 2543 02c3 34000000 		.4byte	.LASF42
 2544 02c7 01       		.byte	0x1
 2545 02c8 19       		.byte	0x19
 2546 02c9 68000000 		.4byte	0x68
 2547 02cd 05       		.uleb128 0x5
 2548 02ce 03       		.byte	0x3
 2549 02cf 00000000 		.4byte	left
 2550 02d3 15       		.uleb128 0x15
 2551 02d4 06000000 		.4byte	.LASF43
 2552 02d8 01       		.byte	0x1
 2553 02d9 1A       		.byte	0x1a
 2554 02da 68000000 		.4byte	0x68
 2555 02de 05       		.uleb128 0x5
 2556 02df 03       		.byte	0x3
 2557 02e0 00000000 		.4byte	playerturn
 2558 02e4 0C       		.uleb128 0xc
 2559 02e5 81000000 		.4byte	0x81
 2560 02e9 FA020000 		.4byte	0x2fa
 2561 02ed 0D       		.uleb128 0xd
 2562 02ee C8000000 		.4byte	0xc8
 2563 02f2 0F       		.byte	0xf
 2564 02f3 0D       		.uleb128 0xd
 2565 02f4 C8000000 		.4byte	0xc8
 2566 02f8 0F       		.byte	0xf
 2567 02f9 00       		.byte	0
 2568 02fa 14       		.uleb128 0x14
 2569 02fb 72656400 		.ascii	"red\000"
 2570 02ff 01       		.byte	0x1
ARM GAS  C:\Users\pfautley\AppData\Local\Temp\ccRphpHf.s 			page 56


 2571 0300 1B       		.byte	0x1b
 2572 0301 E4020000 		.4byte	0x2e4
 2573 0305 05       		.uleb128 0x5
 2574 0306 03       		.byte	0x3
 2575 0307 00000000 		.4byte	red
 2576 030b 15       		.uleb128 0x15
 2577 030c 39000000 		.4byte	.LASF44
 2578 0310 01       		.byte	0x1
 2579 0311 1C       		.byte	0x1c
 2580 0312 E4020000 		.4byte	0x2e4
 2581 0316 05       		.uleb128 0x5
 2582 0317 03       		.byte	0x3
 2583 0318 00000000 		.4byte	green
 2584 031c 15       		.uleb128 0x15
 2585 031d 7F000000 		.4byte	.LASF45
 2586 0321 01       		.byte	0x1
 2587 0322 1D       		.byte	0x1d
 2588 0323 E4020000 		.4byte	0x2e4
 2589 0327 05       		.uleb128 0x5
 2590 0328 03       		.byte	0x3
 2591 0329 00000000 		.4byte	blue
 2592 032d 0C       		.uleb128 0xc
 2593 032e 3D030000 		.4byte	0x33d
 2594 0332 3D030000 		.4byte	0x33d
 2595 0336 0D       		.uleb128 0xd
 2596 0337 C8000000 		.4byte	0xc8
 2597 033b 04       		.byte	0x4
 2598 033c 00       		.byte	0
 2599 033d 16       		.uleb128 0x16
 2600 033e 04       		.byte	0x4
 2601 033f A5000000 		.4byte	0xa5
 2602 0343 15       		.uleb128 0x15
 2603 0344 95020000 		.4byte	.LASF46
 2604 0348 01       		.byte	0x1
 2605 0349 2E       		.byte	0x2e
 2606 034a 2D030000 		.4byte	0x32d
 2607 034e 05       		.uleb128 0x5
 2608 034f 03       		.byte	0x3
 2609 0350 00000000 		.4byte	parity
 2610 0354 0C       		.uleb128 0xc
 2611 0355 3D030000 		.4byte	0x33d
 2612 0359 64030000 		.4byte	0x364
 2613 035d 0D       		.uleb128 0xd
 2614 035e C8000000 		.4byte	0xc8
 2615 0362 02       		.byte	0x2
 2616 0363 00       		.byte	0
 2617 0364 15       		.uleb128 0x15
 2618 0365 EC000000 		.4byte	.LASF47
 2619 0369 01       		.byte	0x1
 2620 036a 2F       		.byte	0x2f
 2621 036b 54030000 		.4byte	0x354
 2622 036f 05       		.uleb128 0x5
 2623 0370 03       		.byte	0x3
 2624 0371 00000000 		.4byte	stop
 2625 0375 15       		.uleb128 0x15
 2626 0376 48020000 		.4byte	.LASF24
 2627 037a 01       		.byte	0x1
ARM GAS  C:\Users\pfautley\AppData\Local\Temp\ccRphpHf.s 			page 57


 2628 037b 30       		.byte	0x30
 2629 037c 8C000000 		.4byte	0x8c
 2630 0380 05       		.uleb128 0x5
 2631 0381 03       		.byte	0x3
 2632 0382 00000000 		.4byte	count
 2633 0386 15       		.uleb128 0x15
 2634 0387 3B020000 		.4byte	.LASF25
 2635 038b 01       		.byte	0x1
 2636 038c 31       		.byte	0x31
 2637 038d 8C000000 		.4byte	0x8c
 2638 0391 05       		.uleb128 0x5
 2639 0392 03       		.byte	0x3
 2640 0393 00000000 		.4byte	count1
 2641 0397 15       		.uleb128 0x15
 2642 0398 87020000 		.4byte	.LASF26
 2643 039c 01       		.byte	0x1
 2644 039d 32       		.byte	0x32
 2645 039e 8C000000 		.4byte	0x8c
 2646 03a2 05       		.uleb128 0x5
 2647 03a3 03       		.byte	0x3
 2648 03a4 00000000 		.4byte	bytesReceived
 2649 03a8 0C       		.uleb128 0xc
 2650 03a9 A5000000 		.4byte	0xa5
 2651 03ad B8030000 		.4byte	0x3b8
 2652 03b1 0D       		.uleb128 0xd
 2653 03b2 C8000000 		.4byte	0xc8
 2654 03b6 3F       		.byte	0x3f
 2655 03b7 00       		.byte	0
 2656 03b8 15       		.uleb128 0x15
 2657 03b9 29020000 		.4byte	.LASF48
 2658 03bd 01       		.byte	0x1
 2659 03be 34       		.byte	0x34
 2660 03bf A8030000 		.4byte	0x3a8
 2661 03c3 05       		.uleb128 0x5
 2662 03c4 03       		.byte	0x3
 2663 03c5 00000000 		.4byte	wifiRxBuffer
 2664 03c9 15       		.uleb128 0x15
 2665 03ca 80010000 		.4byte	.LASF49
 2666 03ce 01       		.byte	0x1
 2667 03cf 35       		.byte	0x35
 2668 03d0 A8030000 		.4byte	0x3a8
 2669 03d4 05       		.uleb128 0x5
 2670 03d5 03       		.byte	0x3
 2671 03d6 00000000 		.4byte	tempstr
 2672 03da 15       		.uleb128 0x15
 2673 03db 84000000 		.4byte	.LASF27
 2674 03df 01       		.byte	0x1
 2675 03e0 37       		.byte	0x37
 2676 03e1 83010000 		.4byte	0x183
 2677 03e5 05       		.uleb128 0x5
 2678 03e6 03       		.byte	0x3
 2679 03e7 00000000 		.4byte	RxBuffer0
 2680 03eb 15       		.uleb128 0x15
 2681 03ec 8E000000 		.4byte	.LASF28
 2682 03f0 01       		.byte	0x1
 2683 03f1 38       		.byte	0x38
 2684 03f2 83010000 		.4byte	0x183
ARM GAS  C:\Users\pfautley\AppData\Local\Temp\ccRphpHf.s 			page 58


 2685 03f6 05       		.uleb128 0x5
 2686 03f7 03       		.byte	0x3
 2687 03f8 00000000 		.4byte	RxBuffer1
 2688 03fc 15       		.uleb128 0x15
 2689 03fd AA000000 		.4byte	.LASF29
 2690 0401 01       		.byte	0x1
 2691 0402 39       		.byte	0x39
 2692 0403 81000000 		.4byte	0x81
 2693 0407 05       		.uleb128 0x5
 2694 0408 03       		.byte	0x3
 2695 0409 00000000 		.4byte	size
 2696 040d 15       		.uleb128 0x15
 2697 040e 22010000 		.4byte	.LASF50
 2698 0412 01       		.byte	0x1
 2699 0413 3A       		.byte	0x3a
 2700 0414 81000000 		.4byte	0x81
 2701 0418 05       		.uleb128 0x5
 2702 0419 03       		.byte	0x3
 2703 041a 00000000 		.4byte	rxCount
 2704 041e 00       		.byte	0
 2705              		.section	.debug_abbrev,"",%progbits
 2706              	.Ldebug_abbrev0:
 2707 0000 01       		.uleb128 0x1
 2708 0001 11       		.uleb128 0x11
 2709 0002 01       		.byte	0x1
 2710 0003 25       		.uleb128 0x25
 2711 0004 0E       		.uleb128 0xe
 2712 0005 13       		.uleb128 0x13
 2713 0006 0B       		.uleb128 0xb
 2714 0007 03       		.uleb128 0x3
 2715 0008 0E       		.uleb128 0xe
 2716 0009 1B       		.uleb128 0x1b
 2717 000a 0E       		.uleb128 0xe
 2718 000b 55       		.uleb128 0x55
 2719 000c 17       		.uleb128 0x17
 2720 000d 11       		.uleb128 0x11
 2721 000e 01       		.uleb128 0x1
 2722 000f 10       		.uleb128 0x10
 2723 0010 17       		.uleb128 0x17
 2724 0011 00       		.byte	0
 2725 0012 00       		.byte	0
 2726 0013 02       		.uleb128 0x2
 2727 0014 24       		.uleb128 0x24
 2728 0015 00       		.byte	0
 2729 0016 0B       		.uleb128 0xb
 2730 0017 0B       		.uleb128 0xb
 2731 0018 3E       		.uleb128 0x3e
 2732 0019 0B       		.uleb128 0xb
 2733 001a 03       		.uleb128 0x3
 2734 001b 0E       		.uleb128 0xe
 2735 001c 00       		.byte	0
 2736 001d 00       		.byte	0
 2737 001e 03       		.uleb128 0x3
 2738 001f 16       		.uleb128 0x16
 2739 0020 00       		.byte	0
 2740 0021 03       		.uleb128 0x3
 2741 0022 0E       		.uleb128 0xe
ARM GAS  C:\Users\pfautley\AppData\Local\Temp\ccRphpHf.s 			page 59


 2742 0023 3A       		.uleb128 0x3a
 2743 0024 0B       		.uleb128 0xb
 2744 0025 3B       		.uleb128 0x3b
 2745 0026 0B       		.uleb128 0xb
 2746 0027 49       		.uleb128 0x49
 2747 0028 13       		.uleb128 0x13
 2748 0029 00       		.byte	0
 2749 002a 00       		.byte	0
 2750 002b 04       		.uleb128 0x4
 2751 002c 24       		.uleb128 0x24
 2752 002d 00       		.byte	0
 2753 002e 0B       		.uleb128 0xb
 2754 002f 0B       		.uleb128 0xb
 2755 0030 3E       		.uleb128 0x3e
 2756 0031 0B       		.uleb128 0xb
 2757 0032 03       		.uleb128 0x3
 2758 0033 08       		.uleb128 0x8
 2759 0034 00       		.byte	0
 2760 0035 00       		.byte	0
 2761 0036 05       		.uleb128 0x5
 2762 0037 16       		.uleb128 0x16
 2763 0038 00       		.byte	0
 2764 0039 03       		.uleb128 0x3
 2765 003a 0E       		.uleb128 0xe
 2766 003b 3A       		.uleb128 0x3a
 2767 003c 0B       		.uleb128 0xb
 2768 003d 3B       		.uleb128 0x3b
 2769 003e 05       		.uleb128 0x5
 2770 003f 49       		.uleb128 0x49
 2771 0040 13       		.uleb128 0x13
 2772 0041 00       		.byte	0
 2773 0042 00       		.byte	0
 2774 0043 06       		.uleb128 0x6
 2775 0044 35       		.uleb128 0x35
 2776 0045 00       		.byte	0
 2777 0046 49       		.uleb128 0x49
 2778 0047 13       		.uleb128 0x13
 2779 0048 00       		.byte	0
 2780 0049 00       		.byte	0
 2781 004a 07       		.uleb128 0x7
 2782 004b 2E       		.uleb128 0x2e
 2783 004c 00       		.byte	0
 2784 004d 3F       		.uleb128 0x3f
 2785 004e 19       		.uleb128 0x19
 2786 004f 03       		.uleb128 0x3
 2787 0050 0E       		.uleb128 0xe
 2788 0051 3A       		.uleb128 0x3a
 2789 0052 0B       		.uleb128 0xb
 2790 0053 3B       		.uleb128 0x3b
 2791 0054 0B       		.uleb128 0xb
 2792 0055 27       		.uleb128 0x27
 2793 0056 19       		.uleb128 0x19
 2794 0057 11       		.uleb128 0x11
 2795 0058 01       		.uleb128 0x1
 2796 0059 12       		.uleb128 0x12
 2797 005a 06       		.uleb128 0x6
 2798 005b 40       		.uleb128 0x40
ARM GAS  C:\Users\pfautley\AppData\Local\Temp\ccRphpHf.s 			page 60


 2799 005c 18       		.uleb128 0x18
 2800 005d 9642     		.uleb128 0x2116
 2801 005f 19       		.uleb128 0x19
 2802 0060 00       		.byte	0
 2803 0061 00       		.byte	0
 2804 0062 08       		.uleb128 0x8
 2805 0063 2E       		.uleb128 0x2e
 2806 0064 01       		.byte	0x1
 2807 0065 3F       		.uleb128 0x3f
 2808 0066 19       		.uleb128 0x19
 2809 0067 03       		.uleb128 0x3
 2810 0068 0E       		.uleb128 0xe
 2811 0069 3A       		.uleb128 0x3a
 2812 006a 0B       		.uleb128 0xb
 2813 006b 3B       		.uleb128 0x3b
 2814 006c 0B       		.uleb128 0xb
 2815 006d 27       		.uleb128 0x27
 2816 006e 19       		.uleb128 0x19
 2817 006f 11       		.uleb128 0x11
 2818 0070 01       		.uleb128 0x1
 2819 0071 12       		.uleb128 0x12
 2820 0072 06       		.uleb128 0x6
 2821 0073 40       		.uleb128 0x40
 2822 0074 18       		.uleb128 0x18
 2823 0075 9642     		.uleb128 0x2116
 2824 0077 19       		.uleb128 0x19
 2825 0078 01       		.uleb128 0x1
 2826 0079 13       		.uleb128 0x13
 2827 007a 00       		.byte	0
 2828 007b 00       		.byte	0
 2829 007c 09       		.uleb128 0x9
 2830 007d 34       		.uleb128 0x34
 2831 007e 00       		.byte	0
 2832 007f 03       		.uleb128 0x3
 2833 0080 0E       		.uleb128 0xe
 2834 0081 3A       		.uleb128 0x3a
 2835 0082 0B       		.uleb128 0xb
 2836 0083 3B       		.uleb128 0x3b
 2837 0084 0B       		.uleb128 0xb
 2838 0085 49       		.uleb128 0x49
 2839 0086 13       		.uleb128 0x13
 2840 0087 02       		.uleb128 0x2
 2841 0088 18       		.uleb128 0x18
 2842 0089 00       		.byte	0
 2843 008a 00       		.byte	0
 2844 008b 0A       		.uleb128 0xa
 2845 008c 2E       		.uleb128 0x2e
 2846 008d 00       		.byte	0
 2847 008e 3F       		.uleb128 0x3f
 2848 008f 19       		.uleb128 0x19
 2849 0090 03       		.uleb128 0x3
 2850 0091 0E       		.uleb128 0xe
 2851 0092 3A       		.uleb128 0x3a
 2852 0093 0B       		.uleb128 0xb
 2853 0094 3B       		.uleb128 0x3b
 2854 0095 0B       		.uleb128 0xb
 2855 0096 27       		.uleb128 0x27
ARM GAS  C:\Users\pfautley\AppData\Local\Temp\ccRphpHf.s 			page 61


 2856 0097 19       		.uleb128 0x19
 2857 0098 11       		.uleb128 0x11
 2858 0099 01       		.uleb128 0x1
 2859 009a 12       		.uleb128 0x12
 2860 009b 06       		.uleb128 0x6
 2861 009c 40       		.uleb128 0x40
 2862 009d 18       		.uleb128 0x18
 2863 009e 9742     		.uleb128 0x2117
 2864 00a0 19       		.uleb128 0x19
 2865 00a1 00       		.byte	0
 2866 00a2 00       		.byte	0
 2867 00a3 0B       		.uleb128 0xb
 2868 00a4 2E       		.uleb128 0x2e
 2869 00a5 01       		.byte	0x1
 2870 00a6 3F       		.uleb128 0x3f
 2871 00a7 19       		.uleb128 0x19
 2872 00a8 03       		.uleb128 0x3
 2873 00a9 0E       		.uleb128 0xe
 2874 00aa 3A       		.uleb128 0x3a
 2875 00ab 0B       		.uleb128 0xb
 2876 00ac 3B       		.uleb128 0x3b
 2877 00ad 0B       		.uleb128 0xb
 2878 00ae 49       		.uleb128 0x49
 2879 00af 13       		.uleb128 0x13
 2880 00b0 11       		.uleb128 0x11
 2881 00b1 01       		.uleb128 0x1
 2882 00b2 12       		.uleb128 0x12
 2883 00b3 06       		.uleb128 0x6
 2884 00b4 40       		.uleb128 0x40
 2885 00b5 18       		.uleb128 0x18
 2886 00b6 9642     		.uleb128 0x2116
 2887 00b8 19       		.uleb128 0x19
 2888 00b9 01       		.uleb128 0x1
 2889 00ba 13       		.uleb128 0x13
 2890 00bb 00       		.byte	0
 2891 00bc 00       		.byte	0
 2892 00bd 0C       		.uleb128 0xc
 2893 00be 01       		.uleb128 0x1
 2894 00bf 01       		.byte	0x1
 2895 00c0 49       		.uleb128 0x49
 2896 00c1 13       		.uleb128 0x13
 2897 00c2 01       		.uleb128 0x1
 2898 00c3 13       		.uleb128 0x13
 2899 00c4 00       		.byte	0
 2900 00c5 00       		.byte	0
 2901 00c6 0D       		.uleb128 0xd
 2902 00c7 21       		.uleb128 0x21
 2903 00c8 00       		.byte	0
 2904 00c9 49       		.uleb128 0x49
 2905 00ca 13       		.uleb128 0x13
 2906 00cb 2F       		.uleb128 0x2f
 2907 00cc 0B       		.uleb128 0xb
 2908 00cd 00       		.byte	0
 2909 00ce 00       		.byte	0
 2910 00cf 0E       		.uleb128 0xe
 2911 00d0 2E       		.uleb128 0x2e
 2912 00d1 00       		.byte	0
ARM GAS  C:\Users\pfautley\AppData\Local\Temp\ccRphpHf.s 			page 62


 2913 00d2 3F       		.uleb128 0x3f
 2914 00d3 19       		.uleb128 0x19
 2915 00d4 03       		.uleb128 0x3
 2916 00d5 0E       		.uleb128 0xe
 2917 00d6 3A       		.uleb128 0x3a
 2918 00d7 0B       		.uleb128 0xb
 2919 00d8 3B       		.uleb128 0x3b
 2920 00d9 05       		.uleb128 0x5
 2921 00da 11       		.uleb128 0x11
 2922 00db 01       		.uleb128 0x1
 2923 00dc 12       		.uleb128 0x12
 2924 00dd 06       		.uleb128 0x6
 2925 00de 40       		.uleb128 0x40
 2926 00df 18       		.uleb128 0x18
 2927 00e0 9642     		.uleb128 0x2116
 2928 00e2 19       		.uleb128 0x19
 2929 00e3 00       		.byte	0
 2930 00e4 00       		.byte	0
 2931 00e5 0F       		.uleb128 0xf
 2932 00e6 2E       		.uleb128 0x2e
 2933 00e7 01       		.byte	0x1
 2934 00e8 3F       		.uleb128 0x3f
 2935 00e9 19       		.uleb128 0x19
 2936 00ea 03       		.uleb128 0x3
 2937 00eb 0E       		.uleb128 0xe
 2938 00ec 3A       		.uleb128 0x3a
 2939 00ed 0B       		.uleb128 0xb
 2940 00ee 3B       		.uleb128 0x3b
 2941 00ef 05       		.uleb128 0x5
 2942 00f0 27       		.uleb128 0x27
 2943 00f1 19       		.uleb128 0x19
 2944 00f2 11       		.uleb128 0x11
 2945 00f3 01       		.uleb128 0x1
 2946 00f4 12       		.uleb128 0x12
 2947 00f5 06       		.uleb128 0x6
 2948 00f6 40       		.uleb128 0x40
 2949 00f7 18       		.uleb128 0x18
 2950 00f8 9642     		.uleb128 0x2116
 2951 00fa 19       		.uleb128 0x19
 2952 00fb 01       		.uleb128 0x1
 2953 00fc 13       		.uleb128 0x13
 2954 00fd 00       		.byte	0
 2955 00fe 00       		.byte	0
 2956 00ff 10       		.uleb128 0x10
 2957 0100 05       		.uleb128 0x5
 2958 0101 00       		.byte	0
 2959 0102 03       		.uleb128 0x3
 2960 0103 0E       		.uleb128 0xe
 2961 0104 3A       		.uleb128 0x3a
 2962 0105 0B       		.uleb128 0xb
 2963 0106 3B       		.uleb128 0x3b
 2964 0107 05       		.uleb128 0x5
 2965 0108 49       		.uleb128 0x49
 2966 0109 13       		.uleb128 0x13
 2967 010a 02       		.uleb128 0x2
 2968 010b 18       		.uleb128 0x18
 2969 010c 00       		.byte	0
ARM GAS  C:\Users\pfautley\AppData\Local\Temp\ccRphpHf.s 			page 63


 2970 010d 00       		.byte	0
 2971 010e 11       		.uleb128 0x11
 2972 010f 2E       		.uleb128 0x2e
 2973 0110 01       		.byte	0x1
 2974 0111 3F       		.uleb128 0x3f
 2975 0112 19       		.uleb128 0x19
 2976 0113 03       		.uleb128 0x3
 2977 0114 0E       		.uleb128 0xe
 2978 0115 3A       		.uleb128 0x3a
 2979 0116 0B       		.uleb128 0xb
 2980 0117 3B       		.uleb128 0x3b
 2981 0118 05       		.uleb128 0x5
 2982 0119 27       		.uleb128 0x27
 2983 011a 19       		.uleb128 0x19
 2984 011b 11       		.uleb128 0x11
 2985 011c 01       		.uleb128 0x1
 2986 011d 12       		.uleb128 0x12
 2987 011e 06       		.uleb128 0x6
 2988 011f 40       		.uleb128 0x40
 2989 0120 18       		.uleb128 0x18
 2990 0121 9742     		.uleb128 0x2117
 2991 0123 19       		.uleb128 0x19
 2992 0124 01       		.uleb128 0x1
 2993 0125 13       		.uleb128 0x13
 2994 0126 00       		.byte	0
 2995 0127 00       		.byte	0
 2996 0128 12       		.uleb128 0x12
 2997 0129 34       		.uleb128 0x34
 2998 012a 00       		.byte	0
 2999 012b 03       		.uleb128 0x3
 3000 012c 0E       		.uleb128 0xe
 3001 012d 3A       		.uleb128 0x3a
 3002 012e 0B       		.uleb128 0xb
 3003 012f 3B       		.uleb128 0x3b
 3004 0130 05       		.uleb128 0x5
 3005 0131 49       		.uleb128 0x49
 3006 0132 13       		.uleb128 0x13
 3007 0133 02       		.uleb128 0x2
 3008 0134 18       		.uleb128 0x18
 3009 0135 00       		.byte	0
 3010 0136 00       		.byte	0
 3011 0137 13       		.uleb128 0x13
 3012 0138 34       		.uleb128 0x34
 3013 0139 00       		.byte	0
 3014 013a 03       		.uleb128 0x3
 3015 013b 0E       		.uleb128 0xe
 3016 013c 3A       		.uleb128 0x3a
 3017 013d 0B       		.uleb128 0xb
 3018 013e 3B       		.uleb128 0x3b
 3019 013f 05       		.uleb128 0x5
 3020 0140 49       		.uleb128 0x49
 3021 0141 13       		.uleb128 0x13
 3022 0142 3F       		.uleb128 0x3f
 3023 0143 19       		.uleb128 0x19
 3024 0144 3C       		.uleb128 0x3c
 3025 0145 19       		.uleb128 0x19
 3026 0146 00       		.byte	0
ARM GAS  C:\Users\pfautley\AppData\Local\Temp\ccRphpHf.s 			page 64


 3027 0147 00       		.byte	0
 3028 0148 14       		.uleb128 0x14
 3029 0149 34       		.uleb128 0x34
 3030 014a 00       		.byte	0
 3031 014b 03       		.uleb128 0x3
 3032 014c 08       		.uleb128 0x8
 3033 014d 3A       		.uleb128 0x3a
 3034 014e 0B       		.uleb128 0xb
 3035 014f 3B       		.uleb128 0x3b
 3036 0150 0B       		.uleb128 0xb
 3037 0151 49       		.uleb128 0x49
 3038 0152 13       		.uleb128 0x13
 3039 0153 3F       		.uleb128 0x3f
 3040 0154 19       		.uleb128 0x19
 3041 0155 02       		.uleb128 0x2
 3042 0156 18       		.uleb128 0x18
 3043 0157 00       		.byte	0
 3044 0158 00       		.byte	0
 3045 0159 15       		.uleb128 0x15
 3046 015a 34       		.uleb128 0x34
 3047 015b 00       		.byte	0
 3048 015c 03       		.uleb128 0x3
 3049 015d 0E       		.uleb128 0xe
 3050 015e 3A       		.uleb128 0x3a
 3051 015f 0B       		.uleb128 0xb
 3052 0160 3B       		.uleb128 0x3b
 3053 0161 0B       		.uleb128 0xb
 3054 0162 49       		.uleb128 0x49
 3055 0163 13       		.uleb128 0x13
 3056 0164 3F       		.uleb128 0x3f
 3057 0165 19       		.uleb128 0x19
 3058 0166 02       		.uleb128 0x2
 3059 0167 18       		.uleb128 0x18
 3060 0168 00       		.byte	0
 3061 0169 00       		.byte	0
 3062 016a 16       		.uleb128 0x16
 3063 016b 0F       		.uleb128 0xf
 3064 016c 00       		.byte	0
 3065 016d 0B       		.uleb128 0xb
 3066 016e 0B       		.uleb128 0xb
 3067 016f 49       		.uleb128 0x49
 3068 0170 13       		.uleb128 0x13
 3069 0171 00       		.byte	0
 3070 0172 00       		.byte	0
 3071 0173 00       		.byte	0
 3072              		.section	.debug_aranges,"",%progbits
 3073 0000 4C000000 		.4byte	0x4c
 3074 0004 0200     		.2byte	0x2
 3075 0006 00000000 		.4byte	.Ldebug_info0
 3076 000a 04       		.byte	0x4
 3077 000b 00       		.byte	0
 3078 000c 0000     		.2byte	0
 3079 000e 0000     		.2byte	0
 3080 0010 00000000 		.4byte	.LFB56
 3081 0014 04030000 		.4byte	.LFE56-.LFB56
 3082 0018 00000000 		.4byte	.LFB57
 3083 001c 9C000000 		.4byte	.LFE57-.LFB57
ARM GAS  C:\Users\pfautley\AppData\Local\Temp\ccRphpHf.s 			page 65


 3084 0020 00000000 		.4byte	.LFB58
 3085 0024 0C000000 		.4byte	.LFE58-.LFB58
 3086 0028 00000000 		.4byte	.LFB59
 3087 002c E8000000 		.4byte	.LFE59-.LFB59
 3088 0030 00000000 		.4byte	.LFB60
 3089 0034 F4010000 		.4byte	.LFE60-.LFB60
 3090 0038 00000000 		.4byte	.LFB61
 3091 003c 44030000 		.4byte	.LFE61-.LFB61
 3092 0040 00000000 		.4byte	.LFB62
 3093 0044 40030000 		.4byte	.LFE62-.LFB62
 3094 0048 00000000 		.4byte	0
 3095 004c 00000000 		.4byte	0
 3096              		.section	.debug_ranges,"",%progbits
 3097              	.Ldebug_ranges0:
 3098 0000 00000000 		.4byte	.LFB56
 3099 0004 04030000 		.4byte	.LFE56
 3100 0008 00000000 		.4byte	.LFB57
 3101 000c 9C000000 		.4byte	.LFE57
 3102 0010 00000000 		.4byte	.LFB58
 3103 0014 0C000000 		.4byte	.LFE58
 3104 0018 00000000 		.4byte	.LFB59
 3105 001c E8000000 		.4byte	.LFE59
 3106 0020 00000000 		.4byte	.LFB60
 3107 0024 F4010000 		.4byte	.LFE60
 3108 0028 00000000 		.4byte	.LFB61
 3109 002c 44030000 		.4byte	.LFE61
 3110 0030 00000000 		.4byte	.LFB62
 3111 0034 40030000 		.4byte	.LFE62
 3112 0038 00000000 		.4byte	0
 3113 003c 00000000 		.4byte	0
 3114              		.section	.debug_line,"",%progbits
 3115              	.Ldebug_line0:
 3116 0000 72030000 		.section	.debug_str,"MS",%progbits,1
 3116      02004501 
 3116      00000201 
 3116      FB0E0D00 
 3116      01010101 
 3117              	.LASF41:
 3118 0000 72696768 		.ascii	"right\000"
 3118      7400
 3119              	.LASF43:
 3120 0006 706C6179 		.ascii	"playerturn\000"
 3120      65727475 
 3120      726E00
 3121              	.LASF39:
 3122 0011 636F6C6E 		.ascii	"colnow\000"
 3122      6F7700
 3123              	.LASF40:
 3124 0018 726F776E 		.ascii	"rownow\000"
 3124      6F7700
 3125              	.LASF35:
 3126 001f 76616C75 		.ascii	"value\000"
 3126      6500
 3127              	.LASF9:
 3128 0025 5F5F696E 		.ascii	"__int32_t\000"
 3128      7433325F 
 3128      7400
ARM GAS  C:\Users\pfautley\AppData\Local\Temp\ccRphpHf.s 			page 66


 3129              	.LASF30:
 3130 002f 6D6F7665 		.ascii	"move\000"
 3130      00
 3131              	.LASF42:
 3132 0034 6C656674 		.ascii	"left\000"
 3132      00
 3133              	.LASF44:
 3134 0039 67726565 		.ascii	"green\000"
 3134      6E00
 3135              	.LASF53:
 3136 003f 433A5C55 		.ascii	"C:\\Users\\pfautley\\Desktop\\finalproject.cydsn\\f"
 3136      73657273 
 3136      5C706661 
 3136      75746C65 
 3136      795C4465 
 3137 006d 696E616C 		.ascii	"inalproject.cydsn\000"
 3137      70726F6A 
 3137      6563742E 
 3137      63796473 
 3137      6E00
 3138              	.LASF45:
 3139 007f 626C7565 		.ascii	"blue\000"
 3139      00
 3140              	.LASF27:
 3141 0084 52784275 		.ascii	"RxBuffer0\000"
 3141      66666572 
 3141      3000
 3142              	.LASF28:
 3143 008e 52784275 		.ascii	"RxBuffer1\000"
 3143      66666572 
 3143      3100
 3144              	.LASF13:
 3145 0098 666C6F61 		.ascii	"float\000"
 3145      7400
 3146              	.LASF0:
 3147 009e 7369676E 		.ascii	"signed char\000"
 3147      65642063 
 3147      68617200 
 3148              	.LASF29:
 3149 00aa 73697A65 		.ascii	"size\000"
 3149      00
 3150              	.LASF20:
 3151 00af 54784861 		.ascii	"TxHandler\000"
 3151      6E646C65 
 3151      7200
 3152              	.LASF17:
 3153 00b9 72656738 		.ascii	"reg8\000"
 3153      00
 3154              	.LASF31:
 3155 00be 77696E63 		.ascii	"wincheck\000"
 3155      6865636B 
 3155      00
 3156              	.LASF5:
 3157 00c7 6C6F6E67 		.ascii	"long unsigned int\000"
 3157      20756E73 
 3157      69676E65 
 3157      6420696E 
ARM GAS  C:\Users\pfautley\AppData\Local\Temp\ccRphpHf.s 			page 67


 3157      7400
 3158              	.LASF3:
 3159 00d9 73686F72 		.ascii	"short unsigned int\000"
 3159      7420756E 
 3159      7369676E 
 3159      65642069 
 3159      6E7400
 3160              	.LASF47:
 3161 00ec 73746F70 		.ascii	"stop\000"
 3161      00
 3162              	.LASF38:
 3163 00f1 49544D5F 		.ascii	"ITM_RxBuffer\000"
 3163      52784275 
 3163      66666572 
 3163      00
 3164              	.LASF1:
 3165 00fe 756E7369 		.ascii	"unsigned char\000"
 3165      676E6564 
 3165      20636861 
 3165      7200
 3166              	.LASF14:
 3167 010c 646F7562 		.ascii	"double\000"
 3167      6C6500
 3168              	.LASF11:
 3169 0113 75696E74 		.ascii	"uint8\000"
 3169      3800
 3170              	.LASF23:
 3171 0119 72785374 		.ascii	"rxStatus\000"
 3171      61747573 
 3171      00
 3172              	.LASF50:
 3173 0122 7278436F 		.ascii	"rxCount\000"
 3173      756E7400 
 3174              	.LASF12:
 3175 012a 75696E74 		.ascii	"uint16\000"
 3175      313600
 3176              	.LASF22:
 3177 0131 6D61696E 		.ascii	"main\000"
 3177      00
 3178              	.LASF8:
 3179 0136 756E7369 		.ascii	"unsigned int\000"
 3179      676E6564 
 3179      20696E74 
 3179      00
 3180              	.LASF36:
 3181 0143 636F756E 		.ascii	"countpiece\000"
 3181      74706965 
 3181      636500
 3182              	.LASF7:
 3183 014e 6C6F6E67 		.ascii	"long long unsigned int\000"
 3183      206C6F6E 
 3183      6720756E 
 3183      7369676E 
 3183      65642069 
 3184              	.LASF19:
 3185 0165 496E7465 		.ascii	"InterruptHandler\000"
 3185      72727570 
ARM GAS  C:\Users\pfautley\AppData\Local\Temp\ccRphpHf.s 			page 68


 3185      7448616E 
 3185      646C6572 
 3185      00
 3186              	.LASF21:
 3187 0176 52784861 		.ascii	"RxHandler\000"
 3187      6E646C65 
 3187      7200
 3188              	.LASF49:
 3189 0180 74656D70 		.ascii	"tempstr\000"
 3189      73747200 
 3190              	.LASF51:
 3191 0188 474E5520 		.ascii	"GNU C 4.8.4 20140526 (release) [ARM/embedded-4_8-br"
 3191      4320342E 
 3191      382E3420 
 3191      32303134 
 3191      30353236 
 3192 01bb 616E6368 		.ascii	"anch revision 211358] -mcpu=cortex-m3 -mthumb -g -O"
 3192      20726576 
 3192      6973696F 
 3192      6E203231 
 3192      31333538 
 3193 01ee 30202D66 		.ascii	"0 -ffunction-sections\000"
 3193      66756E63 
 3193      74696F6E 
 3193      2D736563 
 3193      74696F6E 
 3194              	.LASF10:
 3195 0204 696E7433 		.ascii	"int32_t\000"
 3195      325F7400 
 3196              	.LASF18:
 3197 020c 73697A65 		.ascii	"sizetype\000"
 3197      74797065 
 3197      00
 3198              	.LASF15:
 3199 0215 63686172 		.ascii	"char8\000"
 3199      3800
 3200              	.LASF6:
 3201 021b 6C6F6E67 		.ascii	"long long int\000"
 3201      206C6F6E 
 3201      6720696E 
 3201      7400
 3202              	.LASF48:
 3203 0229 77696669 		.ascii	"wifiRxBuffer\000"
 3203      52784275 
 3203      66666572 
 3203      00
 3204              	.LASF16:
 3205 0236 63686172 		.ascii	"char\000"
 3205      00
 3206              	.LASF25:
 3207 023b 636F756E 		.ascii	"count1\000"
 3207      743100
 3208              	.LASF34:
 3209 0242 77696474 		.ascii	"width\000"
 3209      6800
 3210              	.LASF24:
 3211 0248 636F756E 		.ascii	"count\000"
ARM GAS  C:\Users\pfautley\AppData\Local\Temp\ccRphpHf.s 			page 69


 3211      7400
 3212              	.LASF2:
 3213 024e 73686F72 		.ascii	"short int\000"
 3213      7420696E 
 3213      7400
 3214              	.LASF54:
 3215 0258 55534277 		.ascii	"USBwork\000"
 3215      6F726B00 
 3216              	.LASF52:
 3217 0260 2E5C6D61 		.ascii	".\\main.c\000"
 3217      696E2E63 
 3217      00
 3218              	.LASF4:
 3219 0269 6C6F6E67 		.ascii	"long int\000"
 3219      20696E74 
 3219      00
 3220              	.LASF32:
 3221 0272 6D6F7665 		.ascii	"movement\000"
 3221      6D656E74 
 3221      00
 3222              	.LASF37:
 3223 027b 636F756E 		.ascii	"countpieceV\000"
 3223      74706965 
 3223      63655600 
 3224              	.LASF26:
 3225 0287 62797465 		.ascii	"bytesReceived\000"
 3225      73526563 
 3225      65697665 
 3225      6400
 3226              	.LASF46:
 3227 0295 70617269 		.ascii	"parity\000"
 3227      747900
 3228              	.LASF33:
 3229 029c 6C656E67 		.ascii	"length\000"
 3229      746800
 3230              		.ident	"GCC: (GNU Tools for ARM Embedded Processors) 4.8.4 20140526 (release) [ARM/embedded-4_8-br
