ARM GAS  C:\Users\pfautley\AppData\Local\Temp\ccTPF43f.s 			page 1


   1              		.syntax unified
   2              		.cpu cortex-m3
   3              		.fpu softvfp
   4              		.eabi_attribute 20, 1
   5              		.eabi_attribute 21, 1
   6              		.eabi_attribute 23, 3
   7              		.eabi_attribute 24, 1
   8              		.eabi_attribute 25, 1
   9              		.eabi_attribute 26, 1
  10              		.eabi_attribute 30, 6
  11              		.eabi_attribute 34, 1
  12              		.eabi_attribute 18, 4
  13              		.thumb
  14              		.file	"USBUART_1.c"
  15              		.text
  16              	.Ltext0:
  17              		.cfi_sections	.debug_frame
  18              		.global	USBUART_1_initVar
  19              		.bss
  20              		.type	USBUART_1_initVar, %object
  21              		.size	USBUART_1_initVar, 1
  22              	USBUART_1_initVar:
  23 0000 00       		.space	1
  24              		.comm	USBUART_1_DmaChan,9,4
  25              		.comm	USBUART_1_DmaTd,9,4
  26              		.section	.text.USBUART_1_Start,"ax",%progbits
  27              		.align	2
  28              		.global	USBUART_1_Start
  29              		.thumb
  30              		.thumb_func
  31              		.type	USBUART_1_Start, %function
  32              	USBUART_1_Start:
  33              	.LFB0:
  34              		.file 1 ".\\Generated_Source\\PSoC5\\USBUART_1.c"
   1:.\Generated_Source\PSoC5/USBUART_1.c **** /*******************************************************************************
   2:.\Generated_Source\PSoC5/USBUART_1.c **** * File Name: USBUART_1.c
   3:.\Generated_Source\PSoC5/USBUART_1.c **** * Version 2.80
   4:.\Generated_Source\PSoC5/USBUART_1.c **** *
   5:.\Generated_Source\PSoC5/USBUART_1.c **** * Description:
   6:.\Generated_Source\PSoC5/USBUART_1.c **** *  API for USBFS Component.
   7:.\Generated_Source\PSoC5/USBUART_1.c **** *
   8:.\Generated_Source\PSoC5/USBUART_1.c **** * Note:
   9:.\Generated_Source\PSoC5/USBUART_1.c **** *  Many of the functions use endpoint number.  RAM arrays are sized with 9
  10:.\Generated_Source\PSoC5/USBUART_1.c **** *  elements so they are indexed directly by epNumber.  The SIE and ARB
  11:.\Generated_Source\PSoC5/USBUART_1.c **** *  registers are indexed by variations of epNumber - 1.
  12:.\Generated_Source\PSoC5/USBUART_1.c **** *
  13:.\Generated_Source\PSoC5/USBUART_1.c **** ********************************************************************************
  14:.\Generated_Source\PSoC5/USBUART_1.c **** * Copyright 2008-2014, Cypress Semiconductor Corporation.  All rights reserved.
  15:.\Generated_Source\PSoC5/USBUART_1.c **** * You may use this file only in accordance with the license, terms, conditions,
  16:.\Generated_Source\PSoC5/USBUART_1.c **** * disclaimers, and limitations in the end user license agreement accompanying
  17:.\Generated_Source\PSoC5/USBUART_1.c **** * the software package with which this file was provided.
  18:.\Generated_Source\PSoC5/USBUART_1.c **** *******************************************************************************/
  19:.\Generated_Source\PSoC5/USBUART_1.c **** 
  20:.\Generated_Source\PSoC5/USBUART_1.c **** #include <CyDmac.h>
  21:.\Generated_Source\PSoC5/USBUART_1.c **** #include "USBUART_1.h"
  22:.\Generated_Source\PSoC5/USBUART_1.c **** #include "USBUART_1_pvt.h"
  23:.\Generated_Source\PSoC5/USBUART_1.c **** #include "USBUART_1_hid.h"
ARM GAS  C:\Users\pfautley\AppData\Local\Temp\ccTPF43f.s 			page 2


  24:.\Generated_Source\PSoC5/USBUART_1.c **** #if(USBUART_1_DMA1_REMOVE == 0u)
  25:.\Generated_Source\PSoC5/USBUART_1.c ****     #include "USBUART_1_ep1_dma.h"
  26:.\Generated_Source\PSoC5/USBUART_1.c **** #endif   /*  USBUART_1_DMA1_REMOVE */
  27:.\Generated_Source\PSoC5/USBUART_1.c **** #if(USBUART_1_DMA2_REMOVE == 0u)
  28:.\Generated_Source\PSoC5/USBUART_1.c ****     #include "USBUART_1_ep2_dma.h"
  29:.\Generated_Source\PSoC5/USBUART_1.c **** #endif   /*  USBUART_1_DMA2_REMOVE */
  30:.\Generated_Source\PSoC5/USBUART_1.c **** #if(USBUART_1_DMA3_REMOVE == 0u)
  31:.\Generated_Source\PSoC5/USBUART_1.c ****     #include "USBUART_1_ep3_dma.h"
  32:.\Generated_Source\PSoC5/USBUART_1.c **** #endif   /*  USBUART_1_DMA3_REMOVE */
  33:.\Generated_Source\PSoC5/USBUART_1.c **** #if(USBUART_1_DMA4_REMOVE == 0u)
  34:.\Generated_Source\PSoC5/USBUART_1.c ****     #include "USBUART_1_ep4_dma.h"
  35:.\Generated_Source\PSoC5/USBUART_1.c **** #endif   /*  USBUART_1_DMA4_REMOVE */
  36:.\Generated_Source\PSoC5/USBUART_1.c **** #if(USBUART_1_DMA5_REMOVE == 0u)
  37:.\Generated_Source\PSoC5/USBUART_1.c ****     #include "USBUART_1_ep5_dma.h"
  38:.\Generated_Source\PSoC5/USBUART_1.c **** #endif   /*  USBUART_1_DMA5_REMOVE */
  39:.\Generated_Source\PSoC5/USBUART_1.c **** #if(USBUART_1_DMA6_REMOVE == 0u)
  40:.\Generated_Source\PSoC5/USBUART_1.c ****     #include "USBUART_1_ep6_dma.h"
  41:.\Generated_Source\PSoC5/USBUART_1.c **** #endif   /*  USBUART_1_DMA6_REMOVE */
  42:.\Generated_Source\PSoC5/USBUART_1.c **** #if(USBUART_1_DMA7_REMOVE == 0u)
  43:.\Generated_Source\PSoC5/USBUART_1.c ****     #include "USBUART_1_ep7_dma.h"
  44:.\Generated_Source\PSoC5/USBUART_1.c **** #endif   /*  USBUART_1_DMA7_REMOVE */
  45:.\Generated_Source\PSoC5/USBUART_1.c **** #if(USBUART_1_DMA8_REMOVE == 0u)
  46:.\Generated_Source\PSoC5/USBUART_1.c ****     #include "USBUART_1_ep8_dma.h"
  47:.\Generated_Source\PSoC5/USBUART_1.c **** #endif   /*  USBUART_1_DMA8_REMOVE */
  48:.\Generated_Source\PSoC5/USBUART_1.c **** #if((USBUART_1_EP_MM == USBUART_1__EP_DMAAUTO) && (USBUART_1_EP_DMA_AUTO_OPT == 0u))
  49:.\Generated_Source\PSoC5/USBUART_1.c ****     #include "USBUART_1_EP_DMA_Done_isr.h"
  50:.\Generated_Source\PSoC5/USBUART_1.c ****     #include "USBUART_1_EP8_DMA_Done_SR.h"
  51:.\Generated_Source\PSoC5/USBUART_1.c ****     #include "USBUART_1_EP17_DMA_Done_SR.h"
  52:.\Generated_Source\PSoC5/USBUART_1.c **** #endif /* ((USBUART_1_EP_MM == USBUART_1__EP_DMAAUTO) && (USBUART_1_EP_DMA_AUTO_OPT == 0u)) */
  53:.\Generated_Source\PSoC5/USBUART_1.c **** 
  54:.\Generated_Source\PSoC5/USBUART_1.c **** 
  55:.\Generated_Source\PSoC5/USBUART_1.c **** /***************************************
  56:.\Generated_Source\PSoC5/USBUART_1.c **** * Global data allocation
  57:.\Generated_Source\PSoC5/USBUART_1.c **** ***************************************/
  58:.\Generated_Source\PSoC5/USBUART_1.c **** 
  59:.\Generated_Source\PSoC5/USBUART_1.c **** uint8 USBUART_1_initVar = 0u;
  60:.\Generated_Source\PSoC5/USBUART_1.c **** #if(USBUART_1_EP_MM != USBUART_1__EP_MANUAL)
  61:.\Generated_Source\PSoC5/USBUART_1.c ****     uint8 USBUART_1_DmaChan[USBUART_1_MAX_EP];
  62:.\Generated_Source\PSoC5/USBUART_1.c ****     uint8 USBUART_1_DmaTd[USBUART_1_MAX_EP];
  63:.\Generated_Source\PSoC5/USBUART_1.c **** #endif /*  USBUART_1_EP_MM */
  64:.\Generated_Source\PSoC5/USBUART_1.c **** #if((USBUART_1_EP_MM == USBUART_1__EP_DMAAUTO) && (USBUART_1_EP_DMA_AUTO_OPT == 0u))
  65:.\Generated_Source\PSoC5/USBUART_1.c ****     static uint8 clearInDataRdyStatus = USBUART_1_ARB_EPX_CFG_DEFAULT;
  66:.\Generated_Source\PSoC5/USBUART_1.c ****     uint8 USBUART_1_DmaNextTd[USBUART_1_MAX_EP];
  67:.\Generated_Source\PSoC5/USBUART_1.c ****     const uint8 USBUART_1_epX_TD_TERMOUT_EN[USBUART_1_MAX_EP] =
  68:.\Generated_Source\PSoC5/USBUART_1.c ****     {   0u,
  69:.\Generated_Source\PSoC5/USBUART_1.c ****         USBUART_1_ep1_TD_TERMOUT_EN,
  70:.\Generated_Source\PSoC5/USBUART_1.c ****         USBUART_1_ep2_TD_TERMOUT_EN,
  71:.\Generated_Source\PSoC5/USBUART_1.c ****         USBUART_1_ep3_TD_TERMOUT_EN,
  72:.\Generated_Source\PSoC5/USBUART_1.c ****         USBUART_1_ep4_TD_TERMOUT_EN,
  73:.\Generated_Source\PSoC5/USBUART_1.c ****         USBUART_1_ep5_TD_TERMOUT_EN,
  74:.\Generated_Source\PSoC5/USBUART_1.c ****         USBUART_1_ep6_TD_TERMOUT_EN,
  75:.\Generated_Source\PSoC5/USBUART_1.c ****         USBUART_1_ep7_TD_TERMOUT_EN,
  76:.\Generated_Source\PSoC5/USBUART_1.c ****         USBUART_1_ep8_TD_TERMOUT_EN
  77:.\Generated_Source\PSoC5/USBUART_1.c ****     };
  78:.\Generated_Source\PSoC5/USBUART_1.c ****     volatile uint16 USBUART_1_inLength[USBUART_1_MAX_EP];
  79:.\Generated_Source\PSoC5/USBUART_1.c ****     const uint8 *USBUART_1_inDataPointer[USBUART_1_MAX_EP];
  80:.\Generated_Source\PSoC5/USBUART_1.c ****     volatile uint8 USBUART_1_inBufFull[USBUART_1_MAX_EP];
ARM GAS  C:\Users\pfautley\AppData\Local\Temp\ccTPF43f.s 			page 3


  81:.\Generated_Source\PSoC5/USBUART_1.c **** #endif /* ((USBUART_1_EP_MM == USBUART_1__EP_DMAAUTO) && (USBUART_1_EP_DMA_AUTO_OPT == 0u)) */
  82:.\Generated_Source\PSoC5/USBUART_1.c **** 
  83:.\Generated_Source\PSoC5/USBUART_1.c **** 
  84:.\Generated_Source\PSoC5/USBUART_1.c **** /*******************************************************************************
  85:.\Generated_Source\PSoC5/USBUART_1.c **** * Function Name: USBUART_1_Start
  86:.\Generated_Source\PSoC5/USBUART_1.c **** ********************************************************************************
  87:.\Generated_Source\PSoC5/USBUART_1.c **** *
  88:.\Generated_Source\PSoC5/USBUART_1.c **** * Summary:
  89:.\Generated_Source\PSoC5/USBUART_1.c **** *  This function initialize the USB SIE, arbiter and the
  90:.\Generated_Source\PSoC5/USBUART_1.c **** *  endpoint APIs, including setting the D+ Pullup
  91:.\Generated_Source\PSoC5/USBUART_1.c **** *
  92:.\Generated_Source\PSoC5/USBUART_1.c **** * Parameters:
  93:.\Generated_Source\PSoC5/USBUART_1.c **** *  device: Contains the device number of the desired device descriptor.
  94:.\Generated_Source\PSoC5/USBUART_1.c **** *          The device number can be found in the Device Descriptor Tab of
  95:.\Generated_Source\PSoC5/USBUART_1.c **** *          "Configure" dialog, under the settings of desired Device Descriptor,
  96:.\Generated_Source\PSoC5/USBUART_1.c **** *          in the "Device Number" field.
  97:.\Generated_Source\PSoC5/USBUART_1.c **** *  mode: The operating voltage. This determines whether the voltage regulator
  98:.\Generated_Source\PSoC5/USBUART_1.c **** *        is enabled for 5V operation or if pass through mode is used for 3.3V
  99:.\Generated_Source\PSoC5/USBUART_1.c **** *        operation. Symbolic names and their associated values are given in the
 100:.\Generated_Source\PSoC5/USBUART_1.c **** *        following table.
 101:.\Generated_Source\PSoC5/USBUART_1.c **** *       USBUART_1_3V_OPERATION - Disable voltage regulator and pass-thru
 102:.\Generated_Source\PSoC5/USBUART_1.c **** *                                       Vcc for pull-up
 103:.\Generated_Source\PSoC5/USBUART_1.c **** *       USBUART_1_5V_OPERATION - Enable voltage regulator and use
 104:.\Generated_Source\PSoC5/USBUART_1.c **** *                                       regulator for pull-up
 105:.\Generated_Source\PSoC5/USBUART_1.c **** *       USBUART_1_DWR_VDDD_OPERATION - Enable or Disable voltage
 106:.\Generated_Source\PSoC5/USBUART_1.c **** *                         regulator depend on Vddd Voltage configuration in DWR.
 107:.\Generated_Source\PSoC5/USBUART_1.c **** *
 108:.\Generated_Source\PSoC5/USBUART_1.c **** * Return:
 109:.\Generated_Source\PSoC5/USBUART_1.c **** *   None.
 110:.\Generated_Source\PSoC5/USBUART_1.c **** *
 111:.\Generated_Source\PSoC5/USBUART_1.c **** * Global variables:
 112:.\Generated_Source\PSoC5/USBUART_1.c **** *  The USBUART_1_intiVar variable is used to indicate initial
 113:.\Generated_Source\PSoC5/USBUART_1.c **** *  configuration of this component. The variable is initialized to zero (0u)
 114:.\Generated_Source\PSoC5/USBUART_1.c **** *  and set to one (1u) the first time USBUART_1_Start() is called.
 115:.\Generated_Source\PSoC5/USBUART_1.c **** *  This allows for component Re-Start without unnecessary re-initialization
 116:.\Generated_Source\PSoC5/USBUART_1.c **** *  in all subsequent calls to the USBUART_1_Start() routine.
 117:.\Generated_Source\PSoC5/USBUART_1.c **** *  If re-initialization of the component is required the variable should be set
 118:.\Generated_Source\PSoC5/USBUART_1.c **** *  to zero before call of UART_Start() routine, or the user may call
 119:.\Generated_Source\PSoC5/USBUART_1.c **** *  USBUART_1_Init() and USBUART_1_InitComponent() as done
 120:.\Generated_Source\PSoC5/USBUART_1.c **** *  in the USBUART_1_Start() routine.
 121:.\Generated_Source\PSoC5/USBUART_1.c **** *
 122:.\Generated_Source\PSoC5/USBUART_1.c **** * Side Effects:
 123:.\Generated_Source\PSoC5/USBUART_1.c **** *   This function will reset all communication states to default.
 124:.\Generated_Source\PSoC5/USBUART_1.c **** *
 125:.\Generated_Source\PSoC5/USBUART_1.c **** * Reentrant:
 126:.\Generated_Source\PSoC5/USBUART_1.c **** *  No.
 127:.\Generated_Source\PSoC5/USBUART_1.c **** *
 128:.\Generated_Source\PSoC5/USBUART_1.c **** *******************************************************************************/
 129:.\Generated_Source\PSoC5/USBUART_1.c **** void USBUART_1_Start(uint8 device, uint8 mode) 
 130:.\Generated_Source\PSoC5/USBUART_1.c **** {
  35              		.loc 1 130 0
  36              		.cfi_startproc
  37              		@ args = 0, pretend = 0, frame = 8
  38              		@ frame_needed = 1, uses_anonymous_args = 0
  39 0000 80B5     		push	{r7, lr}
  40              		.cfi_def_cfa_offset 8
  41              		.cfi_offset 7, -8
ARM GAS  C:\Users\pfautley\AppData\Local\Temp\ccTPF43f.s 			page 4


  42              		.cfi_offset 14, -4
  43 0002 82B0     		sub	sp, sp, #8
  44              		.cfi_def_cfa_offset 16
  45 0004 00AF     		add	r7, sp, #0
  46              		.cfi_def_cfa_register 7
  47 0006 0246     		mov	r2, r0
  48 0008 0B46     		mov	r3, r1
  49 000a FA71     		strb	r2, [r7, #7]
  50 000c BB71     		strb	r3, [r7, #6]
 131:.\Generated_Source\PSoC5/USBUART_1.c ****     /* If not Initialized then initialize all required hardware and software */
 132:.\Generated_Source\PSoC5/USBUART_1.c ****     if(USBUART_1_initVar == 0u)
  51              		.loc 1 132 0
  52 000e 094B     		ldr	r3, .L3
  53 0010 1B78     		ldrb	r3, [r3]	@ zero_extendqisi2
  54 0012 002B     		cmp	r3, #0
  55 0014 04D1     		bne	.L2
 133:.\Generated_Source\PSoC5/USBUART_1.c ****     {
 134:.\Generated_Source\PSoC5/USBUART_1.c ****         USBUART_1_Init();
  56              		.loc 1 134 0
  57 0016 FFF7FEFF 		bl	USBUART_1_Init
 135:.\Generated_Source\PSoC5/USBUART_1.c ****         USBUART_1_initVar = 1u;
  58              		.loc 1 135 0
  59 001a 064B     		ldr	r3, .L3
  60 001c 0122     		movs	r2, #1
  61 001e 1A70     		strb	r2, [r3]
  62              	.L2:
 136:.\Generated_Source\PSoC5/USBUART_1.c ****     }
 137:.\Generated_Source\PSoC5/USBUART_1.c ****     USBUART_1_InitComponent(device, mode);
  63              		.loc 1 137 0
  64 0020 FA79     		ldrb	r2, [r7, #7]	@ zero_extendqisi2
  65 0022 BB79     		ldrb	r3, [r7, #6]	@ zero_extendqisi2
  66 0024 1046     		mov	r0, r2
  67 0026 1946     		mov	r1, r3
  68 0028 FFF7FEFF 		bl	USBUART_1_InitComponent
 138:.\Generated_Source\PSoC5/USBUART_1.c **** }
  69              		.loc 1 138 0
  70 002c 0837     		adds	r7, r7, #8
  71 002e BD46     		mov	sp, r7
  72              		@ sp needed
  73 0030 80BD     		pop	{r7, pc}
  74              	.L4:
  75 0032 00BF     		.align	2
  76              	.L3:
  77 0034 00000000 		.word	USBUART_1_initVar
  78              		.cfi_endproc
  79              	.LFE0:
  80              		.size	USBUART_1_Start, .-USBUART_1_Start
  81              		.section	.text.USBUART_1_Init,"ax",%progbits
  82              		.align	2
  83              		.global	USBUART_1_Init
  84              		.thumb
  85              		.thumb_func
  86              		.type	USBUART_1_Init, %function
  87              	USBUART_1_Init:
  88              	.LFB1:
 139:.\Generated_Source\PSoC5/USBUART_1.c **** 
 140:.\Generated_Source\PSoC5/USBUART_1.c **** 
ARM GAS  C:\Users\pfautley\AppData\Local\Temp\ccTPF43f.s 			page 5


 141:.\Generated_Source\PSoC5/USBUART_1.c **** /*******************************************************************************
 142:.\Generated_Source\PSoC5/USBUART_1.c **** * Function Name: USBUART_1_Init
 143:.\Generated_Source\PSoC5/USBUART_1.c **** ********************************************************************************
 144:.\Generated_Source\PSoC5/USBUART_1.c **** *
 145:.\Generated_Source\PSoC5/USBUART_1.c **** * Summary:
 146:.\Generated_Source\PSoC5/USBUART_1.c **** *  Initialize component's hardware. Usually called in USBUART_1_Start().
 147:.\Generated_Source\PSoC5/USBUART_1.c **** *
 148:.\Generated_Source\PSoC5/USBUART_1.c **** * Parameters:
 149:.\Generated_Source\PSoC5/USBUART_1.c **** *  None.
 150:.\Generated_Source\PSoC5/USBUART_1.c **** *
 151:.\Generated_Source\PSoC5/USBUART_1.c **** * Return:
 152:.\Generated_Source\PSoC5/USBUART_1.c **** *  None.
 153:.\Generated_Source\PSoC5/USBUART_1.c **** *
 154:.\Generated_Source\PSoC5/USBUART_1.c **** * Reentrant:
 155:.\Generated_Source\PSoC5/USBUART_1.c **** *  No.
 156:.\Generated_Source\PSoC5/USBUART_1.c **** *
 157:.\Generated_Source\PSoC5/USBUART_1.c **** *******************************************************************************/
 158:.\Generated_Source\PSoC5/USBUART_1.c **** void USBUART_1_Init(void) 
 159:.\Generated_Source\PSoC5/USBUART_1.c **** {
  89              		.loc 1 159 0
  90              		.cfi_startproc
  91              		@ args = 0, pretend = 0, frame = 8
  92              		@ frame_needed = 1, uses_anonymous_args = 0
  93 0000 80B5     		push	{r7, lr}
  94              		.cfi_def_cfa_offset 8
  95              		.cfi_offset 7, -8
  96              		.cfi_offset 14, -4
  97 0002 82B0     		sub	sp, sp, #8
  98              		.cfi_def_cfa_offset 16
  99 0004 00AF     		add	r7, sp, #0
 100              		.cfi_def_cfa_register 7
 160:.\Generated_Source\PSoC5/USBUART_1.c ****     uint8 enableInterrupts;
 161:.\Generated_Source\PSoC5/USBUART_1.c ****     #if(USBUART_1_EP_MM != USBUART_1__EP_MANUAL)
 162:.\Generated_Source\PSoC5/USBUART_1.c ****         uint16 i;
 163:.\Generated_Source\PSoC5/USBUART_1.c ****     #endif   /*  USBUART_1_EP_MM != USBUART_1__EP_MANUAL */
 164:.\Generated_Source\PSoC5/USBUART_1.c **** 
 165:.\Generated_Source\PSoC5/USBUART_1.c ****     enableInterrupts = CyEnterCriticalSection();
 101              		.loc 1 165 0
 102 0006 FFF7FEFF 		bl	CyEnterCriticalSection
 103 000a 0346     		mov	r3, r0
 104 000c 7B71     		strb	r3, [r7, #5]
 166:.\Generated_Source\PSoC5/USBUART_1.c **** 
 167:.\Generated_Source\PSoC5/USBUART_1.c ****     /* Enable USB block  */
 168:.\Generated_Source\PSoC5/USBUART_1.c ****     USBUART_1_PM_ACT_CFG_REG |= USBUART_1_PM_ACT_EN_FSUSB;
 105              		.loc 1 168 0
 106 000e 5A4B     		ldr	r3, .L8
 107 0010 594A     		ldr	r2, .L8
 108 0012 1278     		ldrb	r2, [r2]
 109 0014 D2B2     		uxtb	r2, r2
 110 0016 42F00102 		orr	r2, r2, #1
 111 001a D2B2     		uxtb	r2, r2
 112 001c 1A70     		strb	r2, [r3]
 169:.\Generated_Source\PSoC5/USBUART_1.c ****     /* Enable USB block for Standby Power Mode */
 170:.\Generated_Source\PSoC5/USBUART_1.c ****     USBUART_1_PM_STBY_CFG_REG |= USBUART_1_PM_STBY_EN_FSUSB;
 113              		.loc 1 170 0
 114 001e 574B     		ldr	r3, .L8+4
 115 0020 564A     		ldr	r2, .L8+4
ARM GAS  C:\Users\pfautley\AppData\Local\Temp\ccTPF43f.s 			page 6


 116 0022 1278     		ldrb	r2, [r2]
 117 0024 D2B2     		uxtb	r2, r2
 118 0026 42F00102 		orr	r2, r2, #1
 119 002a D2B2     		uxtb	r2, r2
 120 002c 1A70     		strb	r2, [r3]
 171:.\Generated_Source\PSoC5/USBUART_1.c **** 
 172:.\Generated_Source\PSoC5/USBUART_1.c ****     /* Enable core clock */
 173:.\Generated_Source\PSoC5/USBUART_1.c ****     USBUART_1_USB_CLK_EN_REG = USBUART_1_USB_CLK_ENABLE;
 121              		.loc 1 173 0
 122 002e 544B     		ldr	r3, .L8+8
 123 0030 0122     		movs	r2, #1
 124 0032 1A70     		strb	r2, [r3]
 174:.\Generated_Source\PSoC5/USBUART_1.c **** 
 175:.\Generated_Source\PSoC5/USBUART_1.c ****     USBUART_1_CR1_REG = USBUART_1_CR1_ENABLE_LOCK;
 125              		.loc 1 175 0
 126 0034 534B     		ldr	r3, .L8+12
 127 0036 0222     		movs	r2, #2
 128 0038 1A70     		strb	r2, [r3]
 176:.\Generated_Source\PSoC5/USBUART_1.c **** 
 177:.\Generated_Source\PSoC5/USBUART_1.c ****     /* ENABLING USBIO PADS IN USB MODE FROM I/O MODE */
 178:.\Generated_Source\PSoC5/USBUART_1.c ****     /* Ensure USB transmit enable is low (USB_USBIO_CR0.ten). - Manual Transmission - Disabled */
 179:.\Generated_Source\PSoC5/USBUART_1.c ****     USBUART_1_USBIO_CR0_REG &= ((uint8)(~USBUART_1_USBIO_CR0_TEN));
 129              		.loc 1 179 0
 130 003a 534B     		ldr	r3, .L8+16
 131 003c 524A     		ldr	r2, .L8+16
 132 003e 1278     		ldrb	r2, [r2]
 133 0040 D2B2     		uxtb	r2, r2
 134 0042 02F07F02 		and	r2, r2, #127
 135 0046 D2B2     		uxtb	r2, r2
 136 0048 1A70     		strb	r2, [r3]
 180:.\Generated_Source\PSoC5/USBUART_1.c ****     CyDelayUs(0u);  /*~50ns delay */
 137              		.loc 1 180 0
 138 004a 0020     		movs	r0, #0
 139 004c FFF7FEFF 		bl	CyDelayUs
 181:.\Generated_Source\PSoC5/USBUART_1.c ****     /* Disable the USBIO by asserting PM.USB_CR0.fsusbio_pd_n(Inverted)
 182:.\Generated_Source\PSoC5/USBUART_1.c ****     *  high. This will have been set low by the power manger out of reset.
 183:.\Generated_Source\PSoC5/USBUART_1.c ****     *  Also confirm USBIO pull-up disabled
 184:.\Generated_Source\PSoC5/USBUART_1.c ****     */
 185:.\Generated_Source\PSoC5/USBUART_1.c ****     USBUART_1_PM_USB_CR0_REG &= ((uint8)(~(USBUART_1_PM_USB_CR0_PD_N |
 140              		.loc 1 185 0
 141 0050 4E4B     		ldr	r3, .L8+20
 142 0052 4E4A     		ldr	r2, .L8+20
 143 0054 1278     		ldrb	r2, [r2]
 144 0056 D2B2     		uxtb	r2, r2
 145 0058 22F00602 		bic	r2, r2, #6
 146 005c D2B2     		uxtb	r2, r2
 147 005e 1A70     		strb	r2, [r3]
 186:.\Generated_Source\PSoC5/USBUART_1.c ****                                                   USBUART_1_PM_USB_CR0_PD_PULLUP_N)));
 187:.\Generated_Source\PSoC5/USBUART_1.c **** 
 188:.\Generated_Source\PSoC5/USBUART_1.c ****     /* Select iomode to USB mode*/
 189:.\Generated_Source\PSoC5/USBUART_1.c ****     USBUART_1_USBIO_CR1_REG &= ((uint8)(~USBUART_1_USBIO_CR1_IOMODE));
 148              		.loc 1 189 0
 149 0060 4B4B     		ldr	r3, .L8+24
 150 0062 4B4A     		ldr	r2, .L8+24
 151 0064 1278     		ldrb	r2, [r2]
 152 0066 D2B2     		uxtb	r2, r2
 153 0068 22F02002 		bic	r2, r2, #32
ARM GAS  C:\Users\pfautley\AppData\Local\Temp\ccTPF43f.s 			page 7


 154 006c D2B2     		uxtb	r2, r2
 155 006e 1A70     		strb	r2, [r3]
 190:.\Generated_Source\PSoC5/USBUART_1.c **** 
 191:.\Generated_Source\PSoC5/USBUART_1.c ****     /* Enable the USBIO reference by setting PM.USB_CR0.fsusbio_ref_en.*/
 192:.\Generated_Source\PSoC5/USBUART_1.c ****     USBUART_1_PM_USB_CR0_REG |= USBUART_1_PM_USB_CR0_REF_EN;
 156              		.loc 1 192 0
 157 0070 464B     		ldr	r3, .L8+20
 158 0072 464A     		ldr	r2, .L8+20
 159 0074 1278     		ldrb	r2, [r2]
 160 0076 D2B2     		uxtb	r2, r2
 161 0078 42F00102 		orr	r2, r2, #1
 162 007c D2B2     		uxtb	r2, r2
 163 007e 1A70     		strb	r2, [r3]
 193:.\Generated_Source\PSoC5/USBUART_1.c ****     /* The reference will be available 1 us after the regulator is enabled */
 194:.\Generated_Source\PSoC5/USBUART_1.c ****     CyDelayUs(1u);
 164              		.loc 1 194 0
 165 0080 0120     		movs	r0, #1
 166 0082 FFF7FEFF 		bl	CyDelayUs
 195:.\Generated_Source\PSoC5/USBUART_1.c ****     /* OR 40us after power restored */
 196:.\Generated_Source\PSoC5/USBUART_1.c ****     CyDelayUs(40u);
 167              		.loc 1 196 0
 168 0086 2820     		movs	r0, #40
 169 0088 FFF7FEFF 		bl	CyDelayUs
 197:.\Generated_Source\PSoC5/USBUART_1.c ****     /* Ensure the single ended disable bits are low (PRT15.INP_DIS[7:6])(input receiver enabled). *
 198:.\Generated_Source\PSoC5/USBUART_1.c ****     USBUART_1_DM_INP_DIS_REG &= ((uint8)(~USBUART_1_DM_MASK));
 170              		.loc 1 198 0
 171 008c 414B     		ldr	r3, .L8+28
 172 008e 414A     		ldr	r2, .L8+28
 173 0090 1278     		ldrb	r2, [r2]
 174 0092 D2B2     		uxtb	r2, r2
 175 0094 02F07F02 		and	r2, r2, #127
 176 0098 D2B2     		uxtb	r2, r2
 177 009a 1A70     		strb	r2, [r3]
 199:.\Generated_Source\PSoC5/USBUART_1.c ****     USBUART_1_DP_INP_DIS_REG &= ((uint8)(~USBUART_1_DP_MASK));
 178              		.loc 1 199 0
 179 009c 3D4B     		ldr	r3, .L8+28
 180 009e 3D4A     		ldr	r2, .L8+28
 181 00a0 1278     		ldrb	r2, [r2]
 182 00a2 D2B2     		uxtb	r2, r2
 183 00a4 22F04002 		bic	r2, r2, #64
 184 00a8 D2B2     		uxtb	r2, r2
 185 00aa 1A70     		strb	r2, [r3]
 200:.\Generated_Source\PSoC5/USBUART_1.c **** 
 201:.\Generated_Source\PSoC5/USBUART_1.c ****     /* Enable USBIO */
 202:.\Generated_Source\PSoC5/USBUART_1.c ****     USBUART_1_PM_USB_CR0_REG |= USBUART_1_PM_USB_CR0_PD_N;
 186              		.loc 1 202 0
 187 00ac 374B     		ldr	r3, .L8+20
 188 00ae 374A     		ldr	r2, .L8+20
 189 00b0 1278     		ldrb	r2, [r2]
 190 00b2 D2B2     		uxtb	r2, r2
 191 00b4 42F00202 		orr	r2, r2, #2
 192 00b8 D2B2     		uxtb	r2, r2
 193 00ba 1A70     		strb	r2, [r3]
 203:.\Generated_Source\PSoC5/USBUART_1.c ****     CyDelayUs(2u);
 194              		.loc 1 203 0
 195 00bc 0220     		movs	r0, #2
 196 00be FFF7FEFF 		bl	CyDelayUs
ARM GAS  C:\Users\pfautley\AppData\Local\Temp\ccTPF43f.s 			page 8


 204:.\Generated_Source\PSoC5/USBUART_1.c ****     /* Set the USBIO pull-up enable */
 205:.\Generated_Source\PSoC5/USBUART_1.c ****     USBUART_1_PM_USB_CR0_REG |= USBUART_1_PM_USB_CR0_PD_PULLUP_N;
 197              		.loc 1 205 0
 198 00c2 324B     		ldr	r3, .L8+20
 199 00c4 314A     		ldr	r2, .L8+20
 200 00c6 1278     		ldrb	r2, [r2]
 201 00c8 D2B2     		uxtb	r2, r2
 202 00ca 42F00402 		orr	r2, r2, #4
 203 00ce D2B2     		uxtb	r2, r2
 204 00d0 1A70     		strb	r2, [r3]
 206:.\Generated_Source\PSoC5/USBUART_1.c **** 
 207:.\Generated_Source\PSoC5/USBUART_1.c ****     /* Write WAx */
 208:.\Generated_Source\PSoC5/USBUART_1.c ****     CY_SET_REG8(USBUART_1_ARB_RW1_WA_PTR,     0u);
 205              		.loc 1 208 0
 206 00d2 314B     		ldr	r3, .L8+32
 207 00d4 0022     		movs	r2, #0
 208 00d6 1A70     		strb	r2, [r3]
 209:.\Generated_Source\PSoC5/USBUART_1.c ****     CY_SET_REG8(USBUART_1_ARB_RW1_WA_MSB_PTR, 0u);
 209              		.loc 1 209 0
 210 00d8 304B     		ldr	r3, .L8+36
 211 00da 0022     		movs	r2, #0
 212 00dc 1A70     		strb	r2, [r3]
 210:.\Generated_Source\PSoC5/USBUART_1.c **** 
 211:.\Generated_Source\PSoC5/USBUART_1.c ****     #if(USBUART_1_EP_MM != USBUART_1__EP_MANUAL)
 212:.\Generated_Source\PSoC5/USBUART_1.c ****         /* Init transfer descriptor. This will be used to detect the DMA state - initialized or not
 213:.\Generated_Source\PSoC5/USBUART_1.c ****         for (i = 0u; i < USBUART_1_MAX_EP; i++)
 213              		.loc 1 213 0
 214 00de 0023     		movs	r3, #0
 215 00e0 FB80     		strh	r3, [r7, #6]	@ movhi
 216 00e2 06E0     		b	.L6
 217              	.L7:
 214:.\Generated_Source\PSoC5/USBUART_1.c ****         {
 215:.\Generated_Source\PSoC5/USBUART_1.c ****             USBUART_1_DmaTd[i] = DMA_INVALID_TD;
 218              		.loc 1 215 0 discriminator 2
 219 00e4 FB88     		ldrh	r3, [r7, #6]
 220 00e6 2E4A     		ldr	r2, .L8+40
 221 00e8 FF21     		movs	r1, #255
 222 00ea D154     		strb	r1, [r2, r3]
 213:.\Generated_Source\PSoC5/USBUART_1.c ****         for (i = 0u; i < USBUART_1_MAX_EP; i++)
 223              		.loc 1 213 0 discriminator 2
 224 00ec FB88     		ldrh	r3, [r7, #6]
 225 00ee 0133     		adds	r3, r3, #1
 226 00f0 FB80     		strh	r3, [r7, #6]	@ movhi
 227              	.L6:
 213:.\Generated_Source\PSoC5/USBUART_1.c ****         for (i = 0u; i < USBUART_1_MAX_EP; i++)
 228              		.loc 1 213 0 is_stmt 0 discriminator 1
 229 00f2 FB88     		ldrh	r3, [r7, #6]
 230 00f4 082B     		cmp	r3, #8
 231 00f6 F5D9     		bls	.L7
 216:.\Generated_Source\PSoC5/USBUART_1.c ****             #if ((USBUART_1_EP_MM == USBUART_1__EP_DMAAUTO) && (USBUART_1_EP_DMA_AUTO_OPT == 0u))
 217:.\Generated_Source\PSoC5/USBUART_1.c ****                 USBUART_1_DmaNextTd[i] = DMA_INVALID_TD;
 218:.\Generated_Source\PSoC5/USBUART_1.c ****             #endif /* ((USBUART_1_EP_MM == USBUART_1__EP_DMAAUTO) && (USBUART_1_EP_DMA_AUTO_OPT == 
 219:.\Generated_Source\PSoC5/USBUART_1.c ****         }
 220:.\Generated_Source\PSoC5/USBUART_1.c ****     #endif   /*  USBUART_1_EP_MM != USBUART_1__EP_MANUAL */
 221:.\Generated_Source\PSoC5/USBUART_1.c **** 
 222:.\Generated_Source\PSoC5/USBUART_1.c ****     CyExitCriticalSection(enableInterrupts);
 232              		.loc 1 222 0 is_stmt 1
ARM GAS  C:\Users\pfautley\AppData\Local\Temp\ccTPF43f.s 			page 9


 233 00f8 7B79     		ldrb	r3, [r7, #5]	@ zero_extendqisi2
 234 00fa 1846     		mov	r0, r3
 235 00fc FFF7FEFF 		bl	CyExitCriticalSection
 223:.\Generated_Source\PSoC5/USBUART_1.c **** 
 224:.\Generated_Source\PSoC5/USBUART_1.c **** 
 225:.\Generated_Source\PSoC5/USBUART_1.c ****     /* Set the bus reset Interrupt. */
 226:.\Generated_Source\PSoC5/USBUART_1.c ****     (void) CyIntSetVector(USBUART_1_BUS_RESET_VECT_NUM,   &USBUART_1_BUS_RESET_ISR);
 236              		.loc 1 226 0
 237 0100 1720     		movs	r0, #23
 238 0102 2849     		ldr	r1, .L8+44
 239 0104 FFF7FEFF 		bl	CyIntSetVector
 227:.\Generated_Source\PSoC5/USBUART_1.c ****     CyIntSetPriority(USBUART_1_BUS_RESET_VECT_NUM, USBUART_1_BUS_RESET_PRIOR);
 240              		.loc 1 227 0
 241 0108 1720     		movs	r0, #23
 242 010a 0721     		movs	r1, #7
 243 010c FFF7FEFF 		bl	CyIntSetPriority
 228:.\Generated_Source\PSoC5/USBUART_1.c **** 
 229:.\Generated_Source\PSoC5/USBUART_1.c ****     /* Set the SOF Interrupt. */
 230:.\Generated_Source\PSoC5/USBUART_1.c ****     #if(USBUART_1_SOF_ISR_REMOVE == 0u)
 231:.\Generated_Source\PSoC5/USBUART_1.c ****         (void) CyIntSetVector(USBUART_1_SOF_VECT_NUM,   &USBUART_1_SOF_ISR);
 244              		.loc 1 231 0
 245 0110 1520     		movs	r0, #21
 246 0112 2549     		ldr	r1, .L8+48
 247 0114 FFF7FEFF 		bl	CyIntSetVector
 232:.\Generated_Source\PSoC5/USBUART_1.c ****         CyIntSetPriority(USBUART_1_SOF_VECT_NUM, USBUART_1_SOF_PRIOR);
 248              		.loc 1 232 0
 249 0118 1520     		movs	r0, #21
 250 011a 0721     		movs	r1, #7
 251 011c FFF7FEFF 		bl	CyIntSetPriority
 233:.\Generated_Source\PSoC5/USBUART_1.c ****     #endif   /*  USBUART_1_SOF_ISR_REMOVE */
 234:.\Generated_Source\PSoC5/USBUART_1.c **** 
 235:.\Generated_Source\PSoC5/USBUART_1.c ****     /* Set the Control Endpoint Interrupt. */
 236:.\Generated_Source\PSoC5/USBUART_1.c ****     (void) CyIntSetVector(USBUART_1_EP_0_VECT_NUM,   &USBUART_1_EP_0_ISR);
 252              		.loc 1 236 0
 253 0120 1820     		movs	r0, #24
 254 0122 2249     		ldr	r1, .L8+52
 255 0124 FFF7FEFF 		bl	CyIntSetVector
 237:.\Generated_Source\PSoC5/USBUART_1.c ****     CyIntSetPriority(USBUART_1_EP_0_VECT_NUM, USBUART_1_EP_0_PRIOR);
 256              		.loc 1 237 0
 257 0128 1820     		movs	r0, #24
 258 012a 0721     		movs	r1, #7
 259 012c FFF7FEFF 		bl	CyIntSetPriority
 238:.\Generated_Source\PSoC5/USBUART_1.c **** 
 239:.\Generated_Source\PSoC5/USBUART_1.c ****     /* Set the Data Endpoint 1 Interrupt. */
 240:.\Generated_Source\PSoC5/USBUART_1.c ****     #if(USBUART_1_EP1_ISR_REMOVE == 0u)
 241:.\Generated_Source\PSoC5/USBUART_1.c ****         (void) CyIntSetVector(USBUART_1_EP_1_VECT_NUM,   &USBUART_1_EP_1_ISR);
 260              		.loc 1 241 0
 261 0130 0020     		movs	r0, #0
 262 0132 1F49     		ldr	r1, .L8+56
 263 0134 FFF7FEFF 		bl	CyIntSetVector
 242:.\Generated_Source\PSoC5/USBUART_1.c ****         CyIntSetPriority(USBUART_1_EP_1_VECT_NUM, USBUART_1_EP_1_PRIOR);
 264              		.loc 1 242 0
 265 0138 0020     		movs	r0, #0
 266 013a 0721     		movs	r1, #7
 267 013c FFF7FEFF 		bl	CyIntSetPriority
 243:.\Generated_Source\PSoC5/USBUART_1.c ****     #endif   /*  USBUART_1_EP1_ISR_REMOVE */
 244:.\Generated_Source\PSoC5/USBUART_1.c **** 
ARM GAS  C:\Users\pfautley\AppData\Local\Temp\ccTPF43f.s 			page 10


 245:.\Generated_Source\PSoC5/USBUART_1.c ****     /* Set the Data Endpoint 2 Interrupt. */
 246:.\Generated_Source\PSoC5/USBUART_1.c ****     #if(USBUART_1_EP2_ISR_REMOVE == 0u)
 247:.\Generated_Source\PSoC5/USBUART_1.c ****         (void) CyIntSetVector(USBUART_1_EP_2_VECT_NUM,   &USBUART_1_EP_2_ISR);
 268              		.loc 1 247 0
 269 0140 0120     		movs	r0, #1
 270 0142 1C49     		ldr	r1, .L8+60
 271 0144 FFF7FEFF 		bl	CyIntSetVector
 248:.\Generated_Source\PSoC5/USBUART_1.c ****         CyIntSetPriority(USBUART_1_EP_2_VECT_NUM, USBUART_1_EP_2_PRIOR);
 272              		.loc 1 248 0
 273 0148 0120     		movs	r0, #1
 274 014a 0721     		movs	r1, #7
 275 014c FFF7FEFF 		bl	CyIntSetPriority
 249:.\Generated_Source\PSoC5/USBUART_1.c ****     #endif   /*  USBUART_1_EP2_ISR_REMOVE */
 250:.\Generated_Source\PSoC5/USBUART_1.c **** 
 251:.\Generated_Source\PSoC5/USBUART_1.c ****     /* Set the Data Endpoint 3 Interrupt. */
 252:.\Generated_Source\PSoC5/USBUART_1.c ****     #if(USBUART_1_EP3_ISR_REMOVE == 0u)
 253:.\Generated_Source\PSoC5/USBUART_1.c ****         (void) CyIntSetVector(USBUART_1_EP_3_VECT_NUM,   &USBUART_1_EP_3_ISR);
 276              		.loc 1 253 0
 277 0150 0220     		movs	r0, #2
 278 0152 1949     		ldr	r1, .L8+64
 279 0154 FFF7FEFF 		bl	CyIntSetVector
 254:.\Generated_Source\PSoC5/USBUART_1.c ****         CyIntSetPriority(USBUART_1_EP_3_VECT_NUM, USBUART_1_EP_3_PRIOR);
 280              		.loc 1 254 0
 281 0158 0220     		movs	r0, #2
 282 015a 0721     		movs	r1, #7
 283 015c FFF7FEFF 		bl	CyIntSetPriority
 255:.\Generated_Source\PSoC5/USBUART_1.c ****     #endif   /*  USBUART_1_EP3_ISR_REMOVE */
 256:.\Generated_Source\PSoC5/USBUART_1.c **** 
 257:.\Generated_Source\PSoC5/USBUART_1.c ****     /* Set the Data Endpoint 4 Interrupt. */
 258:.\Generated_Source\PSoC5/USBUART_1.c ****     #if(USBUART_1_EP4_ISR_REMOVE == 0u)
 259:.\Generated_Source\PSoC5/USBUART_1.c ****         (void) CyIntSetVector(USBUART_1_EP_4_VECT_NUM,   &USBUART_1_EP_4_ISR);
 260:.\Generated_Source\PSoC5/USBUART_1.c ****         CyIntSetPriority(USBUART_1_EP_4_VECT_NUM, USBUART_1_EP_4_PRIOR);
 261:.\Generated_Source\PSoC5/USBUART_1.c ****     #endif   /*  USBUART_1_EP4_ISR_REMOVE */
 262:.\Generated_Source\PSoC5/USBUART_1.c **** 
 263:.\Generated_Source\PSoC5/USBUART_1.c ****     /* Set the Data Endpoint 5 Interrupt. */
 264:.\Generated_Source\PSoC5/USBUART_1.c ****     #if(USBUART_1_EP5_ISR_REMOVE == 0u)
 265:.\Generated_Source\PSoC5/USBUART_1.c ****         (void) CyIntSetVector(USBUART_1_EP_5_VECT_NUM,   &USBUART_1_EP_5_ISR);
 266:.\Generated_Source\PSoC5/USBUART_1.c ****         CyIntSetPriority(USBUART_1_EP_5_VECT_NUM, USBUART_1_EP_5_PRIOR);
 267:.\Generated_Source\PSoC5/USBUART_1.c ****     #endif   /*  USBUART_1_EP5_ISR_REMOVE */
 268:.\Generated_Source\PSoC5/USBUART_1.c **** 
 269:.\Generated_Source\PSoC5/USBUART_1.c ****     /* Set the Data Endpoint 6 Interrupt. */
 270:.\Generated_Source\PSoC5/USBUART_1.c ****     #if(USBUART_1_EP6_ISR_REMOVE == 0u)
 271:.\Generated_Source\PSoC5/USBUART_1.c ****         (void) CyIntSetVector(USBUART_1_EP_6_VECT_NUM,   &USBUART_1_EP_6_ISR);
 272:.\Generated_Source\PSoC5/USBUART_1.c ****         CyIntSetPriority(USBUART_1_EP_6_VECT_NUM, USBUART_1_EP_6_PRIOR);
 273:.\Generated_Source\PSoC5/USBUART_1.c ****     #endif   /*  USBUART_1_EP6_ISR_REMOVE */
 274:.\Generated_Source\PSoC5/USBUART_1.c **** 
 275:.\Generated_Source\PSoC5/USBUART_1.c ****      /* Set the Data Endpoint 7 Interrupt. */
 276:.\Generated_Source\PSoC5/USBUART_1.c ****     #if(USBUART_1_EP7_ISR_REMOVE == 0u)
 277:.\Generated_Source\PSoC5/USBUART_1.c ****         (void) CyIntSetVector(USBUART_1_EP_7_VECT_NUM,   &USBUART_1_EP_7_ISR);
 278:.\Generated_Source\PSoC5/USBUART_1.c ****         CyIntSetPriority(USBUART_1_EP_7_VECT_NUM, USBUART_1_EP_7_PRIOR);
 279:.\Generated_Source\PSoC5/USBUART_1.c ****     #endif   /*  USBUART_1_EP7_ISR_REMOVE */
 280:.\Generated_Source\PSoC5/USBUART_1.c **** 
 281:.\Generated_Source\PSoC5/USBUART_1.c ****     /* Set the Data Endpoint 8 Interrupt. */
 282:.\Generated_Source\PSoC5/USBUART_1.c ****     #if(USBUART_1_EP8_ISR_REMOVE == 0u)
 283:.\Generated_Source\PSoC5/USBUART_1.c ****         (void) CyIntSetVector(USBUART_1_EP_8_VECT_NUM,   &USBUART_1_EP_8_ISR);
 284:.\Generated_Source\PSoC5/USBUART_1.c ****         CyIntSetPriority(USBUART_1_EP_8_VECT_NUM, USBUART_1_EP_8_PRIOR);
 285:.\Generated_Source\PSoC5/USBUART_1.c ****     #endif   /*  USBUART_1_EP8_ISR_REMOVE */
ARM GAS  C:\Users\pfautley\AppData\Local\Temp\ccTPF43f.s 			page 11


 286:.\Generated_Source\PSoC5/USBUART_1.c **** 
 287:.\Generated_Source\PSoC5/USBUART_1.c ****     #if((USBUART_1_EP_MM != USBUART_1__EP_MANUAL) && (USBUART_1_ARB_ISR_REMOVE == 0u))
 288:.\Generated_Source\PSoC5/USBUART_1.c ****         /* Set the ARB Interrupt. */
 289:.\Generated_Source\PSoC5/USBUART_1.c ****         (void) CyIntSetVector(USBUART_1_ARB_VECT_NUM,   &USBUART_1_ARB_ISR);
 284              		.loc 1 289 0
 285 0160 1620     		movs	r0, #22
 286 0162 1649     		ldr	r1, .L8+68
 287 0164 FFF7FEFF 		bl	CyIntSetVector
 290:.\Generated_Source\PSoC5/USBUART_1.c ****         CyIntSetPriority(USBUART_1_ARB_VECT_NUM, USBUART_1_ARB_PRIOR);
 288              		.loc 1 290 0
 289 0168 1620     		movs	r0, #22
 290 016a 0021     		movs	r1, #0
 291 016c FFF7FEFF 		bl	CyIntSetPriority
 291:.\Generated_Source\PSoC5/USBUART_1.c ****     #endif   /*  USBUART_1_EP_MM != USBUART_1__EP_MANUAL */
 292:.\Generated_Source\PSoC5/USBUART_1.c **** 
 293:.\Generated_Source\PSoC5/USBUART_1.c **** }
 292              		.loc 1 293 0
 293 0170 0837     		adds	r7, r7, #8
 294 0172 BD46     		mov	sp, r7
 295              		@ sp needed
 296 0174 80BD     		pop	{r7, pc}
 297              	.L9:
 298 0176 00BF     		.align	2
 299              	.L8:
 300 0178 A5430040 		.word	1073759141
 301 017c B5430040 		.word	1073759157
 302 0180 9D600040 		.word	1073766557
 303 0184 09600040 		.word	1073766409
 304 0188 10600040 		.word	1073766416
 305 018c 94430040 		.word	1073759124
 306 0190 12600040 		.word	1073766418
 307 0194 F8510040 		.word	1073762808
 308 0198 84600040 		.word	1073766532
 309 019c 85600040 		.word	1073766533
 310 01a0 00000000 		.word	USBUART_1_DmaTd
 311 01a4 00000000 		.word	USBUART_1_BUS_RESET_ISR
 312 01a8 00000000 		.word	USBUART_1_SOF_ISR
 313 01ac 00000000 		.word	USBUART_1_EP_0_ISR
 314 01b0 00000000 		.word	USBUART_1_EP_1_ISR
 315 01b4 00000000 		.word	USBUART_1_EP_2_ISR
 316 01b8 00000000 		.word	USBUART_1_EP_3_ISR
 317 01bc 00000000 		.word	USBUART_1_ARB_ISR
 318              		.cfi_endproc
 319              	.LFE1:
 320              		.size	USBUART_1_Init, .-USBUART_1_Init
 321              		.section	.text.USBUART_1_InitComponent,"ax",%progbits
 322              		.align	2
 323              		.global	USBUART_1_InitComponent
 324              		.thumb
 325              		.thumb_func
 326              		.type	USBUART_1_InitComponent, %function
 327              	USBUART_1_InitComponent:
 328              	.LFB2:
 294:.\Generated_Source\PSoC5/USBUART_1.c **** 
 295:.\Generated_Source\PSoC5/USBUART_1.c **** 
 296:.\Generated_Source\PSoC5/USBUART_1.c **** /*******************************************************************************
 297:.\Generated_Source\PSoC5/USBUART_1.c **** * Function Name: USBUART_1_InitComponent
ARM GAS  C:\Users\pfautley\AppData\Local\Temp\ccTPF43f.s 			page 12


 298:.\Generated_Source\PSoC5/USBUART_1.c **** ********************************************************************************
 299:.\Generated_Source\PSoC5/USBUART_1.c **** *
 300:.\Generated_Source\PSoC5/USBUART_1.c **** * Summary:
 301:.\Generated_Source\PSoC5/USBUART_1.c **** *  Initialize the component, except for the HW which is done one time in
 302:.\Generated_Source\PSoC5/USBUART_1.c **** *  the Start function.  This function pulls up D+.
 303:.\Generated_Source\PSoC5/USBUART_1.c **** *
 304:.\Generated_Source\PSoC5/USBUART_1.c **** * Parameters:
 305:.\Generated_Source\PSoC5/USBUART_1.c **** *  device: Contains the device number of the desired device descriptor.
 306:.\Generated_Source\PSoC5/USBUART_1.c **** *          The device number can be found in the Device Descriptor Tab of
 307:.\Generated_Source\PSoC5/USBUART_1.c **** *          "Configure" dialog, under the settings of desired Device Descriptor,
 308:.\Generated_Source\PSoC5/USBUART_1.c **** *          in the "Device Number" field.
 309:.\Generated_Source\PSoC5/USBUART_1.c **** *  mode: The operating voltage. This determines whether the voltage regulator
 310:.\Generated_Source\PSoC5/USBUART_1.c **** *        is enabled for 5V operation or if pass through mode is used for 3.3V
 311:.\Generated_Source\PSoC5/USBUART_1.c **** *        operation. Symbolic names and their associated values are given in the
 312:.\Generated_Source\PSoC5/USBUART_1.c **** *        following table.
 313:.\Generated_Source\PSoC5/USBUART_1.c **** *       USBUART_1_3V_OPERATION - Disable voltage regulator and pass-thru
 314:.\Generated_Source\PSoC5/USBUART_1.c **** *                                       Vcc for pull-up
 315:.\Generated_Source\PSoC5/USBUART_1.c **** *       USBUART_1_5V_OPERATION - Enable voltage regulator and use
 316:.\Generated_Source\PSoC5/USBUART_1.c **** *                                       regulator for pull-up
 317:.\Generated_Source\PSoC5/USBUART_1.c **** *       USBUART_1_DWR_VDDD_OPERATION - Enable or Disable voltage
 318:.\Generated_Source\PSoC5/USBUART_1.c **** *                         regulator depend on Vddd Voltage configuration in DWR.
 319:.\Generated_Source\PSoC5/USBUART_1.c **** *
 320:.\Generated_Source\PSoC5/USBUART_1.c **** * Return:
 321:.\Generated_Source\PSoC5/USBUART_1.c **** *   None.
 322:.\Generated_Source\PSoC5/USBUART_1.c **** *
 323:.\Generated_Source\PSoC5/USBUART_1.c **** * Global variables:
 324:.\Generated_Source\PSoC5/USBUART_1.c **** *   USBUART_1_device: Contains the device number of the desired device
 325:.\Generated_Source\PSoC5/USBUART_1.c **** *       descriptor. The device number can be found in the Device Descriptor Tab
 326:.\Generated_Source\PSoC5/USBUART_1.c **** *       of "Configure" dialog, under the settings of desired Device Descriptor,
 327:.\Generated_Source\PSoC5/USBUART_1.c **** *       in the "Device Number" field.
 328:.\Generated_Source\PSoC5/USBUART_1.c **** *   USBUART_1_transferState: This variable used by the communication
 329:.\Generated_Source\PSoC5/USBUART_1.c **** *       functions to handle current transfer state. Initialized to
 330:.\Generated_Source\PSoC5/USBUART_1.c **** *       TRANS_STATE_IDLE in this API.
 331:.\Generated_Source\PSoC5/USBUART_1.c **** *   USBUART_1_configuration: Contains current configuration number
 332:.\Generated_Source\PSoC5/USBUART_1.c **** *       which is set by the Host using SET_CONFIGURATION request.
 333:.\Generated_Source\PSoC5/USBUART_1.c **** *       Initialized to zero in this API.
 334:.\Generated_Source\PSoC5/USBUART_1.c **** *   USBUART_1_deviceAddress: Contains current device address. This
 335:.\Generated_Source\PSoC5/USBUART_1.c **** *       variable is initialized to zero in this API. Host starts to communicate
 336:.\Generated_Source\PSoC5/USBUART_1.c **** *      to device with address 0 and then set it to whatever value using
 337:.\Generated_Source\PSoC5/USBUART_1.c **** *      SET_ADDRESS request.
 338:.\Generated_Source\PSoC5/USBUART_1.c **** *   USBUART_1_deviceStatus: initialized to 0.
 339:.\Generated_Source\PSoC5/USBUART_1.c **** *       This is two bit variable which contain power status in first bit
 340:.\Generated_Source\PSoC5/USBUART_1.c **** *       (DEVICE_STATUS_BUS_POWERED or DEVICE_STATUS_SELF_POWERED) and remote
 341:.\Generated_Source\PSoC5/USBUART_1.c **** *       wakeup status (DEVICE_STATUS_REMOTE_WAKEUP) in second bit.
 342:.\Generated_Source\PSoC5/USBUART_1.c **** *   USBUART_1_lastPacketSize initialized to 0;
 343:.\Generated_Source\PSoC5/USBUART_1.c **** *
 344:.\Generated_Source\PSoC5/USBUART_1.c **** * Reentrant:
 345:.\Generated_Source\PSoC5/USBUART_1.c **** *  No.
 346:.\Generated_Source\PSoC5/USBUART_1.c **** *
 347:.\Generated_Source\PSoC5/USBUART_1.c **** *******************************************************************************/
 348:.\Generated_Source\PSoC5/USBUART_1.c **** void USBUART_1_InitComponent(uint8 device, uint8 mode) 
 349:.\Generated_Source\PSoC5/USBUART_1.c **** {
 329              		.loc 1 349 0
 330              		.cfi_startproc
 331              		@ args = 0, pretend = 0, frame = 8
 332              		@ frame_needed = 1, uses_anonymous_args = 0
 333 0000 80B5     		push	{r7, lr}
ARM GAS  C:\Users\pfautley\AppData\Local\Temp\ccTPF43f.s 			page 13


 334              		.cfi_def_cfa_offset 8
 335              		.cfi_offset 7, -8
 336              		.cfi_offset 14, -4
 337 0002 82B0     		sub	sp, sp, #8
 338              		.cfi_def_cfa_offset 16
 339 0004 00AF     		add	r7, sp, #0
 340              		.cfi_def_cfa_register 7
 341 0006 0246     		mov	r2, r0
 342 0008 0B46     		mov	r3, r1
 343 000a FA71     		strb	r2, [r7, #7]
 344 000c BB71     		strb	r3, [r7, #6]
 350:.\Generated_Source\PSoC5/USBUART_1.c ****     /* Initialize _hidProtocol variable to comply with
 351:.\Generated_Source\PSoC5/USBUART_1.c ****     *  HID 7.2.6 Set_Protocol Request:
 352:.\Generated_Source\PSoC5/USBUART_1.c ****     *  "When initialized, all devices default to report protocol."
 353:.\Generated_Source\PSoC5/USBUART_1.c ****     */
 354:.\Generated_Source\PSoC5/USBUART_1.c ****     #if defined(USBUART_1_ENABLE_HID_CLASS)
 355:.\Generated_Source\PSoC5/USBUART_1.c ****         uint8 i;
 356:.\Generated_Source\PSoC5/USBUART_1.c **** 
 357:.\Generated_Source\PSoC5/USBUART_1.c ****         for (i = 0u; i < USBUART_1_MAX_INTERFACES_NUMBER; i++)
 358:.\Generated_Source\PSoC5/USBUART_1.c ****         {
 359:.\Generated_Source\PSoC5/USBUART_1.c ****             USBUART_1_hidProtocol[i] = USBUART_1_PROTOCOL_REPORT;
 360:.\Generated_Source\PSoC5/USBUART_1.c ****         }
 361:.\Generated_Source\PSoC5/USBUART_1.c ****     #endif /* USBUART_1_ENABLE_HID_CLASS */
 362:.\Generated_Source\PSoC5/USBUART_1.c **** 
 363:.\Generated_Source\PSoC5/USBUART_1.c ****     /* Enable Interrupts. */
 364:.\Generated_Source\PSoC5/USBUART_1.c ****     CyIntEnable(USBUART_1_BUS_RESET_VECT_NUM);
 345              		.loc 1 364 0
 346 000e 2A4B     		ldr	r3, .L16
 347 0010 4FF40002 		mov	r2, #8388608
 348 0014 1A60     		str	r2, [r3]
 365:.\Generated_Source\PSoC5/USBUART_1.c ****     CyIntEnable(USBUART_1_EP_0_VECT_NUM);
 349              		.loc 1 365 0
 350 0016 284B     		ldr	r3, .L16
 351 0018 4FF08072 		mov	r2, #16777216
 352 001c 1A60     		str	r2, [r3]
 366:.\Generated_Source\PSoC5/USBUART_1.c ****     #if(USBUART_1_EP1_ISR_REMOVE == 0u)
 367:.\Generated_Source\PSoC5/USBUART_1.c ****         CyIntEnable(USBUART_1_EP_1_VECT_NUM);
 353              		.loc 1 367 0
 354 001e 264B     		ldr	r3, .L16
 355 0020 0122     		movs	r2, #1
 356 0022 1A60     		str	r2, [r3]
 368:.\Generated_Source\PSoC5/USBUART_1.c ****     #endif   /*  USBUART_1_EP1_ISR_REMOVE */
 369:.\Generated_Source\PSoC5/USBUART_1.c ****     #if(USBUART_1_EP2_ISR_REMOVE == 0u)
 370:.\Generated_Source\PSoC5/USBUART_1.c ****         CyIntEnable(USBUART_1_EP_2_VECT_NUM);
 357              		.loc 1 370 0
 358 0024 244B     		ldr	r3, .L16
 359 0026 0222     		movs	r2, #2
 360 0028 1A60     		str	r2, [r3]
 371:.\Generated_Source\PSoC5/USBUART_1.c ****     #endif   /*  USBUART_1_EP2_ISR_REMOVE */
 372:.\Generated_Source\PSoC5/USBUART_1.c ****     #if(USBUART_1_EP3_ISR_REMOVE == 0u)
 373:.\Generated_Source\PSoC5/USBUART_1.c ****         CyIntEnable(USBUART_1_EP_3_VECT_NUM);
 361              		.loc 1 373 0
 362 002a 234B     		ldr	r3, .L16
 363 002c 0422     		movs	r2, #4
 364 002e 1A60     		str	r2, [r3]
 374:.\Generated_Source\PSoC5/USBUART_1.c ****     #endif   /*  USBUART_1_EP3_ISR_REMOVE */
 375:.\Generated_Source\PSoC5/USBUART_1.c ****     #if(USBUART_1_EP4_ISR_REMOVE == 0u)
ARM GAS  C:\Users\pfautley\AppData\Local\Temp\ccTPF43f.s 			page 14


 376:.\Generated_Source\PSoC5/USBUART_1.c ****         CyIntEnable(USBUART_1_EP_4_VECT_NUM);
 377:.\Generated_Source\PSoC5/USBUART_1.c ****     #endif   /*  USBUART_1_EP4_ISR_REMOVE */
 378:.\Generated_Source\PSoC5/USBUART_1.c ****     #if(USBUART_1_EP5_ISR_REMOVE == 0u)
 379:.\Generated_Source\PSoC5/USBUART_1.c ****         CyIntEnable(USBUART_1_EP_5_VECT_NUM);
 380:.\Generated_Source\PSoC5/USBUART_1.c ****     #endif   /*  USBUART_1_EP5_ISR_REMOVE */
 381:.\Generated_Source\PSoC5/USBUART_1.c ****     #if(USBUART_1_EP6_ISR_REMOVE == 0u)
 382:.\Generated_Source\PSoC5/USBUART_1.c ****         CyIntEnable(USBUART_1_EP_6_VECT_NUM);
 383:.\Generated_Source\PSoC5/USBUART_1.c ****     #endif   /*  USBUART_1_EP6_ISR_REMOVE */
 384:.\Generated_Source\PSoC5/USBUART_1.c ****     #if(USBUART_1_EP7_ISR_REMOVE == 0u)
 385:.\Generated_Source\PSoC5/USBUART_1.c ****         CyIntEnable(USBUART_1_EP_7_VECT_NUM);
 386:.\Generated_Source\PSoC5/USBUART_1.c ****     #endif   /*  USBUART_1_EP7_ISR_REMOVE */
 387:.\Generated_Source\PSoC5/USBUART_1.c ****     #if(USBUART_1_EP8_ISR_REMOVE == 0u)
 388:.\Generated_Source\PSoC5/USBUART_1.c ****         CyIntEnable(USBUART_1_EP_8_VECT_NUM);
 389:.\Generated_Source\PSoC5/USBUART_1.c ****     #endif   /*  USBUART_1_EP8_ISR_REMOVE */
 390:.\Generated_Source\PSoC5/USBUART_1.c ****     #if((USBUART_1_EP_MM != USBUART_1__EP_MANUAL) && (USBUART_1_ARB_ISR_REMOVE == 0u))
 391:.\Generated_Source\PSoC5/USBUART_1.c ****         /* usb arb interrupt enable */
 392:.\Generated_Source\PSoC5/USBUART_1.c ****         USBUART_1_ARB_INT_EN_REG = USBUART_1_ARB_INT_MASK;
 365              		.loc 1 392 0
 366 0030 224B     		ldr	r3, .L16+4
 367 0032 0722     		movs	r2, #7
 368 0034 1A70     		strb	r2, [r3]
 393:.\Generated_Source\PSoC5/USBUART_1.c ****         CyIntEnable(USBUART_1_ARB_VECT_NUM);
 369              		.loc 1 393 0
 370 0036 204B     		ldr	r3, .L16
 371 0038 4FF48002 		mov	r2, #4194304
 372 003c 1A60     		str	r2, [r3]
 394:.\Generated_Source\PSoC5/USBUART_1.c ****     #endif   /*  USBUART_1_EP_MM != USBUART_1__EP_MANUAL */
 395:.\Generated_Source\PSoC5/USBUART_1.c **** 
 396:.\Generated_Source\PSoC5/USBUART_1.c ****     /* Arbiter configuration for DMA transfers */
 397:.\Generated_Source\PSoC5/USBUART_1.c ****     #if(USBUART_1_EP_MM != USBUART_1__EP_MANUAL)
 398:.\Generated_Source\PSoC5/USBUART_1.c ****         #if(USBUART_1_EP_MM == USBUART_1__EP_DMAMANUAL)
 399:.\Generated_Source\PSoC5/USBUART_1.c ****             USBUART_1_ARB_CFG_REG = USBUART_1_ARB_CFG_MANUAL_DMA;
 373              		.loc 1 399 0
 374 003e 204B     		ldr	r3, .L16+8
 375 0040 2022     		movs	r2, #32
 376 0042 1A70     		strb	r2, [r3]
 400:.\Generated_Source\PSoC5/USBUART_1.c ****         #endif   /*  USBUART_1_EP_MM == USBUART_1__EP_DMAMANUAL */
 401:.\Generated_Source\PSoC5/USBUART_1.c ****         #if(USBUART_1_EP_MM == USBUART_1__EP_DMAAUTO)
 402:.\Generated_Source\PSoC5/USBUART_1.c ****             /*Set cfg cmplt this rises DMA request when the full configuration is done */
 403:.\Generated_Source\PSoC5/USBUART_1.c ****             USBUART_1_ARB_CFG_REG = USBUART_1_ARB_CFG_AUTO_DMA | USBUART_1_ARB_CFG_AUTO_MEM;
 404:.\Generated_Source\PSoC5/USBUART_1.c ****             #if(USBUART_1_EP_DMA_AUTO_OPT == 0u)
 405:.\Generated_Source\PSoC5/USBUART_1.c ****                 /* Init interrupt which handles verification of the successful DMA transaction */
 406:.\Generated_Source\PSoC5/USBUART_1.c ****                 USBUART_1_EP_DMA_Done_isr_StartEx(&USBUART_1_EP_DMA_DONE_ISR);
 407:.\Generated_Source\PSoC5/USBUART_1.c ****                 USBUART_1_EP17_DMA_Done_SR_InterruptEnable();
 408:.\Generated_Source\PSoC5/USBUART_1.c ****                 USBUART_1_EP8_DMA_Done_SR_InterruptEnable();
 409:.\Generated_Source\PSoC5/USBUART_1.c ****             #endif /* USBUART_1_EP_DMA_AUTO_OPT == 0u */
 410:.\Generated_Source\PSoC5/USBUART_1.c ****         #endif   /*  USBUART_1_EP_MM == USBUART_1__EP_DMAAUTO */
 411:.\Generated_Source\PSoC5/USBUART_1.c ****     #endif   /*  USBUART_1_EP_MM != USBUART_1__EP_MANUAL */
 412:.\Generated_Source\PSoC5/USBUART_1.c **** 
 413:.\Generated_Source\PSoC5/USBUART_1.c ****     USBUART_1_transferState = USBUART_1_TRANS_STATE_IDLE;
 377              		.loc 1 413 0
 378 0044 1F4B     		ldr	r3, .L16+12
 379 0046 0022     		movs	r2, #0
 380 0048 1A70     		strb	r2, [r3]
 414:.\Generated_Source\PSoC5/USBUART_1.c **** 
 415:.\Generated_Source\PSoC5/USBUART_1.c ****     /* USB Locking: Enabled, VRegulator: depend on mode or DWR Voltage configuration*/
 416:.\Generated_Source\PSoC5/USBUART_1.c ****     switch(mode)
ARM GAS  C:\Users\pfautley\AppData\Local\Temp\ccTPF43f.s 			page 15


 381              		.loc 1 416 0
 382 004a BB79     		ldrb	r3, [r7, #6]	@ zero_extendqisi2
 383 004c 002B     		cmp	r3, #0
 384 004e 02D0     		beq	.L12
 385 0050 012B     		cmp	r3, #1
 386 0052 04D0     		beq	.L13
 387 0054 07E0     		b	.L15
 388              	.L12:
 417:.\Generated_Source\PSoC5/USBUART_1.c ****     {
 418:.\Generated_Source\PSoC5/USBUART_1.c ****         case USBUART_1_3V_OPERATION:
 419:.\Generated_Source\PSoC5/USBUART_1.c ****             USBUART_1_CR1_REG = USBUART_1_CR1_ENABLE_LOCK;
 389              		.loc 1 419 0
 390 0056 1C4B     		ldr	r3, .L16+16
 391 0058 0222     		movs	r2, #2
 392 005a 1A70     		strb	r2, [r3]
 420:.\Generated_Source\PSoC5/USBUART_1.c ****             break;
 393              		.loc 1 420 0
 394 005c 07E0     		b	.L14
 395              	.L13:
 421:.\Generated_Source\PSoC5/USBUART_1.c ****         case USBUART_1_5V_OPERATION:
 422:.\Generated_Source\PSoC5/USBUART_1.c ****             USBUART_1_CR1_REG = USBUART_1_CR1_ENABLE_LOCK | USBUART_1_CR1_REG_ENABLE;
 396              		.loc 1 422 0
 397 005e 1A4B     		ldr	r3, .L16+16
 398 0060 0322     		movs	r2, #3
 399 0062 1A70     		strb	r2, [r3]
 423:.\Generated_Source\PSoC5/USBUART_1.c ****             break;
 400              		.loc 1 423 0
 401 0064 03E0     		b	.L14
 402              	.L15:
 424:.\Generated_Source\PSoC5/USBUART_1.c ****         default:   /*USBUART_1_DWR_VDDD_OPERATION */
 425:.\Generated_Source\PSoC5/USBUART_1.c ****             #if(USBUART_1_VDDD_MV < USBUART_1_3500MV)
 426:.\Generated_Source\PSoC5/USBUART_1.c ****                 USBUART_1_CR1_REG = USBUART_1_CR1_ENABLE_LOCK;
 427:.\Generated_Source\PSoC5/USBUART_1.c ****             #else
 428:.\Generated_Source\PSoC5/USBUART_1.c ****                 USBUART_1_CR1_REG = USBUART_1_CR1_ENABLE_LOCK | USBUART_1_CR1_REG_ENABLE;
 403              		.loc 1 428 0
 404 0066 184B     		ldr	r3, .L16+16
 405 0068 0322     		movs	r2, #3
 406 006a 1A70     		strb	r2, [r3]
 429:.\Generated_Source\PSoC5/USBUART_1.c ****             #endif /*  USBUART_1_VDDD_MV < USBUART_1_3500MV */
 430:.\Generated_Source\PSoC5/USBUART_1.c ****             break;
 407              		.loc 1 430 0
 408 006c 00BF     		nop
 409              	.L14:
 431:.\Generated_Source\PSoC5/USBUART_1.c ****     }
 432:.\Generated_Source\PSoC5/USBUART_1.c **** 
 433:.\Generated_Source\PSoC5/USBUART_1.c ****     /* Record the descriptor selection */
 434:.\Generated_Source\PSoC5/USBUART_1.c ****     USBUART_1_device = device;
 410              		.loc 1 434 0
 411 006e 174B     		ldr	r3, .L16+20
 412 0070 FA79     		ldrb	r2, [r7, #7]
 413 0072 1A70     		strb	r2, [r3]
 435:.\Generated_Source\PSoC5/USBUART_1.c **** 
 436:.\Generated_Source\PSoC5/USBUART_1.c ****     /* Clear all of the component data */
 437:.\Generated_Source\PSoC5/USBUART_1.c ****     USBUART_1_configuration = 0u;
 414              		.loc 1 437 0
 415 0074 164B     		ldr	r3, .L16+24
 416 0076 0022     		movs	r2, #0
ARM GAS  C:\Users\pfautley\AppData\Local\Temp\ccTPF43f.s 			page 16


 417 0078 1A70     		strb	r2, [r3]
 438:.\Generated_Source\PSoC5/USBUART_1.c ****     USBUART_1_interfaceNumber = 0u;
 418              		.loc 1 438 0
 419 007a 164B     		ldr	r3, .L16+28
 420 007c 0022     		movs	r2, #0
 421 007e 1A70     		strb	r2, [r3]
 439:.\Generated_Source\PSoC5/USBUART_1.c ****     USBUART_1_configurationChanged = 0u;
 422              		.loc 1 439 0
 423 0080 154B     		ldr	r3, .L16+32
 424 0082 0022     		movs	r2, #0
 425 0084 1A70     		strb	r2, [r3]
 440:.\Generated_Source\PSoC5/USBUART_1.c ****     USBUART_1_deviceAddress  = 0u;
 426              		.loc 1 440 0
 427 0086 154B     		ldr	r3, .L16+36
 428 0088 0022     		movs	r2, #0
 429 008a 1A70     		strb	r2, [r3]
 441:.\Generated_Source\PSoC5/USBUART_1.c ****     USBUART_1_deviceStatus = 0u;
 430              		.loc 1 441 0
 431 008c 144B     		ldr	r3, .L16+40
 432 008e 0022     		movs	r2, #0
 433 0090 1A70     		strb	r2, [r3]
 442:.\Generated_Source\PSoC5/USBUART_1.c **** 
 443:.\Generated_Source\PSoC5/USBUART_1.c ****     USBUART_1_lastPacketSize = 0u;
 434              		.loc 1 443 0
 435 0092 144B     		ldr	r3, .L16+44
 436 0094 0022     		movs	r2, #0
 437 0096 1A70     		strb	r2, [r3]
 444:.\Generated_Source\PSoC5/USBUART_1.c **** 
 445:.\Generated_Source\PSoC5/USBUART_1.c ****     /*  ACK Setup, Stall IN/OUT */
 446:.\Generated_Source\PSoC5/USBUART_1.c ****     CY_SET_REG8(USBUART_1_EP0_CR_PTR, USBUART_1_MODE_STALL_IN_OUT);
 438              		.loc 1 446 0
 439 0098 134B     		ldr	r3, .L16+48
 440 009a 0322     		movs	r2, #3
 441 009c 1A70     		strb	r2, [r3]
 447:.\Generated_Source\PSoC5/USBUART_1.c **** 
 448:.\Generated_Source\PSoC5/USBUART_1.c ****     /* Enable the SIE with an address 0 */
 449:.\Generated_Source\PSoC5/USBUART_1.c ****     CY_SET_REG8(USBUART_1_CR0_PTR, USBUART_1_CR0_ENABLE);
 442              		.loc 1 449 0
 443 009e 134B     		ldr	r3, .L16+52
 444 00a0 8022     		movs	r2, #128
 445 00a2 1A70     		strb	r2, [r3]
 450:.\Generated_Source\PSoC5/USBUART_1.c **** 
 451:.\Generated_Source\PSoC5/USBUART_1.c ****     /* Workaround for PSOC5LP */
 452:.\Generated_Source\PSoC5/USBUART_1.c ****     CyDelayCycles(1u);
 446              		.loc 1 452 0
 447 00a4 0120     		movs	r0, #1
 448 00a6 FFF7FEFF 		bl	CyDelayCycles
 453:.\Generated_Source\PSoC5/USBUART_1.c **** 
 454:.\Generated_Source\PSoC5/USBUART_1.c ****     /* Finally, Enable d+ pullup and select iomode to USB mode*/
 455:.\Generated_Source\PSoC5/USBUART_1.c ****     CY_SET_REG8(USBUART_1_USBIO_CR1_PTR, USBUART_1_USBIO_CR1_USBPUEN);
 449              		.loc 1 455 0
 450 00aa 114B     		ldr	r3, .L16+56
 451 00ac 0422     		movs	r2, #4
 452 00ae 1A70     		strb	r2, [r3]
 456:.\Generated_Source\PSoC5/USBUART_1.c **** }
 453              		.loc 1 456 0
 454 00b0 0837     		adds	r7, r7, #8
ARM GAS  C:\Users\pfautley\AppData\Local\Temp\ccTPF43f.s 			page 17


 455 00b2 BD46     		mov	sp, r7
 456              		@ sp needed
 457 00b4 80BD     		pop	{r7, pc}
 458              	.L17:
 459 00b6 00BF     		.align	2
 460              	.L16:
 461 00b8 00E100E0 		.word	-536813312
 462 00bc 9E600040 		.word	1073766558
 463 00c0 9C600040 		.word	1073766556
 464 00c4 00000000 		.word	USBUART_1_transferState
 465 00c8 09600040 		.word	1073766409
 466 00cc 00000000 		.word	USBUART_1_device
 467 00d0 00000000 		.word	USBUART_1_configuration
 468 00d4 00000000 		.word	USBUART_1_interfaceNumber
 469 00d8 00000000 		.word	USBUART_1_configurationChanged
 470 00dc 00000000 		.word	USBUART_1_deviceAddress
 471 00e0 00000000 		.word	USBUART_1_deviceStatus
 472 00e4 00000000 		.word	USBUART_1_lastPacketSize
 473 00e8 28600040 		.word	1073766440
 474 00ec 08600040 		.word	1073766408
 475 00f0 12600040 		.word	1073766418
 476              		.cfi_endproc
 477              	.LFE2:
 478              		.size	USBUART_1_InitComponent, .-USBUART_1_InitComponent
 479              		.section	.text.USBUART_1_ReInitComponent,"ax",%progbits
 480              		.align	2
 481              		.global	USBUART_1_ReInitComponent
 482              		.thumb
 483              		.thumb_func
 484              		.type	USBUART_1_ReInitComponent, %function
 485              	USBUART_1_ReInitComponent:
 486              	.LFB3:
 457:.\Generated_Source\PSoC5/USBUART_1.c **** 
 458:.\Generated_Source\PSoC5/USBUART_1.c **** 
 459:.\Generated_Source\PSoC5/USBUART_1.c **** /*******************************************************************************
 460:.\Generated_Source\PSoC5/USBUART_1.c **** * Function Name: USBUART_1_ReInitComponent
 461:.\Generated_Source\PSoC5/USBUART_1.c **** ********************************************************************************
 462:.\Generated_Source\PSoC5/USBUART_1.c **** *
 463:.\Generated_Source\PSoC5/USBUART_1.c **** * Summary:
 464:.\Generated_Source\PSoC5/USBUART_1.c **** *  This function reinitialize the component configuration and is
 465:.\Generated_Source\PSoC5/USBUART_1.c **** *  intend to be called from the Reset interrupt.
 466:.\Generated_Source\PSoC5/USBUART_1.c **** *
 467:.\Generated_Source\PSoC5/USBUART_1.c **** * Parameters:
 468:.\Generated_Source\PSoC5/USBUART_1.c **** *  None.
 469:.\Generated_Source\PSoC5/USBUART_1.c **** *
 470:.\Generated_Source\PSoC5/USBUART_1.c **** * Return:
 471:.\Generated_Source\PSoC5/USBUART_1.c **** *   None.
 472:.\Generated_Source\PSoC5/USBUART_1.c **** *
 473:.\Generated_Source\PSoC5/USBUART_1.c **** * Global variables:
 474:.\Generated_Source\PSoC5/USBUART_1.c **** *   USBUART_1_device: Contains the device number of the desired device
 475:.\Generated_Source\PSoC5/USBUART_1.c **** *        descriptor. The device number can be found in the Device Descriptor Tab
 476:.\Generated_Source\PSoC5/USBUART_1.c **** *       of "Configure" dialog, under the settings of desired Device Descriptor,
 477:.\Generated_Source\PSoC5/USBUART_1.c **** *       in the "Device Number" field.
 478:.\Generated_Source\PSoC5/USBUART_1.c **** *   USBUART_1_transferState: This variable used by the communication
 479:.\Generated_Source\PSoC5/USBUART_1.c **** *       functions to handle current transfer state. Initialized to
 480:.\Generated_Source\PSoC5/USBUART_1.c **** *       TRANS_STATE_IDLE in this API.
 481:.\Generated_Source\PSoC5/USBUART_1.c **** *   USBUART_1_configuration: Contains current configuration number
ARM GAS  C:\Users\pfautley\AppData\Local\Temp\ccTPF43f.s 			page 18


 482:.\Generated_Source\PSoC5/USBUART_1.c **** *       which is set by the Host using SET_CONFIGURATION request.
 483:.\Generated_Source\PSoC5/USBUART_1.c **** *       Initialized to zero in this API.
 484:.\Generated_Source\PSoC5/USBUART_1.c **** *   USBUART_1_deviceAddress: Contains current device address. This
 485:.\Generated_Source\PSoC5/USBUART_1.c **** *       variable is initialized to zero in this API. Host starts to communicate
 486:.\Generated_Source\PSoC5/USBUART_1.c **** *      to device with address 0 and then set it to whatever value using
 487:.\Generated_Source\PSoC5/USBUART_1.c **** *      SET_ADDRESS request.
 488:.\Generated_Source\PSoC5/USBUART_1.c **** *   USBUART_1_deviceStatus: initialized to 0.
 489:.\Generated_Source\PSoC5/USBUART_1.c **** *       This is two bit variable which contain power status in first bit
 490:.\Generated_Source\PSoC5/USBUART_1.c **** *       (DEVICE_STATUS_BUS_POWERED or DEVICE_STATUS_SELF_POWERED) and remote
 491:.\Generated_Source\PSoC5/USBUART_1.c **** *       wakeup status (DEVICE_STATUS_REMOTE_WAKEUP) in second bit.
 492:.\Generated_Source\PSoC5/USBUART_1.c **** *   USBUART_1_lastPacketSize initialized to 0;
 493:.\Generated_Source\PSoC5/USBUART_1.c **** *
 494:.\Generated_Source\PSoC5/USBUART_1.c **** * Reentrant:
 495:.\Generated_Source\PSoC5/USBUART_1.c **** *  No.
 496:.\Generated_Source\PSoC5/USBUART_1.c **** *
 497:.\Generated_Source\PSoC5/USBUART_1.c **** *******************************************************************************/
 498:.\Generated_Source\PSoC5/USBUART_1.c **** void USBUART_1_ReInitComponent(void) 
 499:.\Generated_Source\PSoC5/USBUART_1.c **** {
 487              		.loc 1 499 0
 488              		.cfi_startproc
 489              		@ args = 0, pretend = 0, frame = 0
 490              		@ frame_needed = 1, uses_anonymous_args = 0
 491              		@ link register save eliminated.
 492 0000 80B4     		push	{r7}
 493              		.cfi_def_cfa_offset 4
 494              		.cfi_offset 7, -4
 495 0002 00AF     		add	r7, sp, #0
 496              		.cfi_def_cfa_register 7
 500:.\Generated_Source\PSoC5/USBUART_1.c ****     /* Initialize _hidProtocol variable to comply with HID 7.2.6 Set_Protocol
 501:.\Generated_Source\PSoC5/USBUART_1.c ****     *  Request: "When initialized, all devices default to report protocol."
 502:.\Generated_Source\PSoC5/USBUART_1.c ****     */
 503:.\Generated_Source\PSoC5/USBUART_1.c ****     #if defined(USBUART_1_ENABLE_HID_CLASS)
 504:.\Generated_Source\PSoC5/USBUART_1.c ****         uint8 i;
 505:.\Generated_Source\PSoC5/USBUART_1.c **** 
 506:.\Generated_Source\PSoC5/USBUART_1.c ****         for (i = 0u; i < USBUART_1_MAX_INTERFACES_NUMBER; i++)
 507:.\Generated_Source\PSoC5/USBUART_1.c ****         {
 508:.\Generated_Source\PSoC5/USBUART_1.c ****             USBUART_1_hidProtocol[i] = USBUART_1_PROTOCOL_REPORT;
 509:.\Generated_Source\PSoC5/USBUART_1.c ****         }
 510:.\Generated_Source\PSoC5/USBUART_1.c ****     #endif /* USBUART_1_ENABLE_HID_CLASS */
 511:.\Generated_Source\PSoC5/USBUART_1.c **** 
 512:.\Generated_Source\PSoC5/USBUART_1.c ****     USBUART_1_transferState = USBUART_1_TRANS_STATE_IDLE;
 497              		.loc 1 512 0
 498 0004 0F4B     		ldr	r3, .L19
 499 0006 0022     		movs	r2, #0
 500 0008 1A70     		strb	r2, [r3]
 513:.\Generated_Source\PSoC5/USBUART_1.c **** 
 514:.\Generated_Source\PSoC5/USBUART_1.c ****     /* Clear all of the component data */
 515:.\Generated_Source\PSoC5/USBUART_1.c ****     USBUART_1_configuration = 0u;
 501              		.loc 1 515 0
 502 000a 0F4B     		ldr	r3, .L19+4
 503 000c 0022     		movs	r2, #0
 504 000e 1A70     		strb	r2, [r3]
 516:.\Generated_Source\PSoC5/USBUART_1.c ****     USBUART_1_interfaceNumber = 0u;
 505              		.loc 1 516 0
 506 0010 0E4B     		ldr	r3, .L19+8
 507 0012 0022     		movs	r2, #0
 508 0014 1A70     		strb	r2, [r3]
ARM GAS  C:\Users\pfautley\AppData\Local\Temp\ccTPF43f.s 			page 19


 517:.\Generated_Source\PSoC5/USBUART_1.c ****     USBUART_1_configurationChanged = 0u;
 509              		.loc 1 517 0
 510 0016 0E4B     		ldr	r3, .L19+12
 511 0018 0022     		movs	r2, #0
 512 001a 1A70     		strb	r2, [r3]
 518:.\Generated_Source\PSoC5/USBUART_1.c ****     USBUART_1_deviceAddress  = 0u;
 513              		.loc 1 518 0
 514 001c 0D4B     		ldr	r3, .L19+16
 515 001e 0022     		movs	r2, #0
 516 0020 1A70     		strb	r2, [r3]
 519:.\Generated_Source\PSoC5/USBUART_1.c ****     USBUART_1_deviceStatus = 0u;
 517              		.loc 1 519 0
 518 0022 0D4B     		ldr	r3, .L19+20
 519 0024 0022     		movs	r2, #0
 520 0026 1A70     		strb	r2, [r3]
 520:.\Generated_Source\PSoC5/USBUART_1.c **** 
 521:.\Generated_Source\PSoC5/USBUART_1.c ****     USBUART_1_lastPacketSize = 0u;
 521              		.loc 1 521 0
 522 0028 0C4B     		ldr	r3, .L19+24
 523 002a 0022     		movs	r2, #0
 524 002c 1A70     		strb	r2, [r3]
 522:.\Generated_Source\PSoC5/USBUART_1.c **** 
 523:.\Generated_Source\PSoC5/USBUART_1.c **** 
 524:.\Generated_Source\PSoC5/USBUART_1.c ****     /*  ACK Setup, Stall IN/OUT */
 525:.\Generated_Source\PSoC5/USBUART_1.c ****     CY_SET_REG8(USBUART_1_EP0_CR_PTR, USBUART_1_MODE_STALL_IN_OUT);
 525              		.loc 1 525 0
 526 002e 0C4B     		ldr	r3, .L19+28
 527 0030 0322     		movs	r2, #3
 528 0032 1A70     		strb	r2, [r3]
 526:.\Generated_Source\PSoC5/USBUART_1.c **** 
 527:.\Generated_Source\PSoC5/USBUART_1.c ****     /* Enable the SIE with an address 0 */
 528:.\Generated_Source\PSoC5/USBUART_1.c ****     CY_SET_REG8(USBUART_1_CR0_PTR, USBUART_1_CR0_ENABLE);
 529              		.loc 1 528 0
 530 0034 0B4B     		ldr	r3, .L19+32
 531 0036 8022     		movs	r2, #128
 532 0038 1A70     		strb	r2, [r3]
 529:.\Generated_Source\PSoC5/USBUART_1.c **** 
 530:.\Generated_Source\PSoC5/USBUART_1.c **** }
 533              		.loc 1 530 0
 534 003a BD46     		mov	sp, r7
 535              		@ sp needed
 536 003c 5DF8047B 		ldr	r7, [sp], #4
 537 0040 7047     		bx	lr
 538              	.L20:
 539 0042 00BF     		.align	2
 540              	.L19:
 541 0044 00000000 		.word	USBUART_1_transferState
 542 0048 00000000 		.word	USBUART_1_configuration
 543 004c 00000000 		.word	USBUART_1_interfaceNumber
 544 0050 00000000 		.word	USBUART_1_configurationChanged
 545 0054 00000000 		.word	USBUART_1_deviceAddress
 546 0058 00000000 		.word	USBUART_1_deviceStatus
 547 005c 00000000 		.word	USBUART_1_lastPacketSize
 548 0060 28600040 		.word	1073766440
 549 0064 08600040 		.word	1073766408
 550              		.cfi_endproc
 551              	.LFE3:
ARM GAS  C:\Users\pfautley\AppData\Local\Temp\ccTPF43f.s 			page 20


 552              		.size	USBUART_1_ReInitComponent, .-USBUART_1_ReInitComponent
 553              		.section	.text.USBUART_1_Stop,"ax",%progbits
 554              		.align	2
 555              		.global	USBUART_1_Stop
 556              		.thumb
 557              		.thumb_func
 558              		.type	USBUART_1_Stop, %function
 559              	USBUART_1_Stop:
 560              	.LFB4:
 531:.\Generated_Source\PSoC5/USBUART_1.c **** 
 532:.\Generated_Source\PSoC5/USBUART_1.c **** 
 533:.\Generated_Source\PSoC5/USBUART_1.c **** /*******************************************************************************
 534:.\Generated_Source\PSoC5/USBUART_1.c **** * Function Name: USBUART_1_Stop
 535:.\Generated_Source\PSoC5/USBUART_1.c **** ********************************************************************************
 536:.\Generated_Source\PSoC5/USBUART_1.c **** *
 537:.\Generated_Source\PSoC5/USBUART_1.c **** * Summary:
 538:.\Generated_Source\PSoC5/USBUART_1.c **** *  This function shuts down the USB function including to release
 539:.\Generated_Source\PSoC5/USBUART_1.c **** *  the D+ Pullup and disabling the SIE.
 540:.\Generated_Source\PSoC5/USBUART_1.c **** *
 541:.\Generated_Source\PSoC5/USBUART_1.c **** * Parameters:
 542:.\Generated_Source\PSoC5/USBUART_1.c **** *  None.
 543:.\Generated_Source\PSoC5/USBUART_1.c **** *
 544:.\Generated_Source\PSoC5/USBUART_1.c **** * Return:
 545:.\Generated_Source\PSoC5/USBUART_1.c **** *  None.
 546:.\Generated_Source\PSoC5/USBUART_1.c **** *
 547:.\Generated_Source\PSoC5/USBUART_1.c **** * Global variables:
 548:.\Generated_Source\PSoC5/USBUART_1.c **** *   USBUART_1_configuration: Contains current configuration number
 549:.\Generated_Source\PSoC5/USBUART_1.c **** *       which is set by the Host using SET_CONFIGURATION request.
 550:.\Generated_Source\PSoC5/USBUART_1.c **** *       Initialized to zero in this API.
 551:.\Generated_Source\PSoC5/USBUART_1.c **** *   USBUART_1_deviceAddress: Contains current device address. This
 552:.\Generated_Source\PSoC5/USBUART_1.c **** *       variable is initialized to zero in this API. Host starts to communicate
 553:.\Generated_Source\PSoC5/USBUART_1.c **** *      to device with address 0 and then set it to whatever value using
 554:.\Generated_Source\PSoC5/USBUART_1.c **** *      SET_ADDRESS request.
 555:.\Generated_Source\PSoC5/USBUART_1.c **** *   USBUART_1_deviceStatus: initialized to 0.
 556:.\Generated_Source\PSoC5/USBUART_1.c **** *       This is two bit variable which contain power status in first bit
 557:.\Generated_Source\PSoC5/USBUART_1.c **** *       (DEVICE_STATUS_BUS_POWERED or DEVICE_STATUS_SELF_POWERED) and remote
 558:.\Generated_Source\PSoC5/USBUART_1.c **** *       wakeup status (DEVICE_STATUS_REMOTE_WAKEUP) in second bit.
 559:.\Generated_Source\PSoC5/USBUART_1.c **** *   USBUART_1_configurationChanged: This variable is set to one after
 560:.\Generated_Source\PSoC5/USBUART_1.c **** *       SET_CONFIGURATION request and cleared in this function.
 561:.\Generated_Source\PSoC5/USBUART_1.c **** *   USBUART_1_intiVar variable is set to zero
 562:.\Generated_Source\PSoC5/USBUART_1.c **** *
 563:.\Generated_Source\PSoC5/USBUART_1.c **** *******************************************************************************/
 564:.\Generated_Source\PSoC5/USBUART_1.c **** void USBUART_1_Stop(void) 
 565:.\Generated_Source\PSoC5/USBUART_1.c **** {
 561              		.loc 1 565 0
 562              		.cfi_startproc
 563              		@ args = 0, pretend = 0, frame = 0
 564              		@ frame_needed = 1, uses_anonymous_args = 0
 565 0000 80B5     		push	{r7, lr}
 566              		.cfi_def_cfa_offset 8
 567              		.cfi_offset 7, -8
 568              		.cfi_offset 14, -4
 569 0002 00AF     		add	r7, sp, #0
 570              		.cfi_def_cfa_register 7
 566:.\Generated_Source\PSoC5/USBUART_1.c **** 
 567:.\Generated_Source\PSoC5/USBUART_1.c ****     #if(USBUART_1_EP_MM != USBUART_1__EP_MANUAL)
 568:.\Generated_Source\PSoC5/USBUART_1.c ****         USBUART_1_Stop_DMA(USBUART_1_MAX_EP);     /* Stop all DMAs */
ARM GAS  C:\Users\pfautley\AppData\Local\Temp\ccTPF43f.s 			page 21


 571              		.loc 1 568 0
 572 0004 0920     		movs	r0, #9
 573 0006 FFF7FEFF 		bl	USBUART_1_Stop_DMA
 569:.\Generated_Source\PSoC5/USBUART_1.c ****     #endif   /*  USBUART_1_EP_MM != USBUART_1__EP_MANUAL */
 570:.\Generated_Source\PSoC5/USBUART_1.c **** 
 571:.\Generated_Source\PSoC5/USBUART_1.c ****     /* Disable the SIE */
 572:.\Generated_Source\PSoC5/USBUART_1.c ****     USBUART_1_CR0_REG &= (uint8)(~USBUART_1_CR0_ENABLE);
 574              		.loc 1 572 0
 575 000a 224B     		ldr	r3, .L22
 576 000c 214A     		ldr	r2, .L22
 577 000e 1278     		ldrb	r2, [r2]
 578 0010 D2B2     		uxtb	r2, r2
 579 0012 02F07F02 		and	r2, r2, #127
 580 0016 D2B2     		uxtb	r2, r2
 581 0018 1A70     		strb	r2, [r3]
 573:.\Generated_Source\PSoC5/USBUART_1.c ****     /* Disable the d+ pullup */
 574:.\Generated_Source\PSoC5/USBUART_1.c ****     USBUART_1_USBIO_CR1_REG &= (uint8)(~USBUART_1_USBIO_CR1_USBPUEN);
 582              		.loc 1 574 0
 583 001a 1F4B     		ldr	r3, .L22+4
 584 001c 1E4A     		ldr	r2, .L22+4
 585 001e 1278     		ldrb	r2, [r2]
 586 0020 D2B2     		uxtb	r2, r2
 587 0022 22F00402 		bic	r2, r2, #4
 588 0026 D2B2     		uxtb	r2, r2
 589 0028 1A70     		strb	r2, [r3]
 575:.\Generated_Source\PSoC5/USBUART_1.c ****     /* Disable USB in ACT PM */
 576:.\Generated_Source\PSoC5/USBUART_1.c ****     USBUART_1_PM_ACT_CFG_REG &= (uint8)(~USBUART_1_PM_ACT_EN_FSUSB);
 590              		.loc 1 576 0
 591 002a 1C4B     		ldr	r3, .L22+8
 592 002c 1B4A     		ldr	r2, .L22+8
 593 002e 1278     		ldrb	r2, [r2]
 594 0030 D2B2     		uxtb	r2, r2
 595 0032 22F00102 		bic	r2, r2, #1
 596 0036 D2B2     		uxtb	r2, r2
 597 0038 1A70     		strb	r2, [r3]
 577:.\Generated_Source\PSoC5/USBUART_1.c ****     /* Disable USB block for Standby Power Mode */
 578:.\Generated_Source\PSoC5/USBUART_1.c ****     USBUART_1_PM_STBY_CFG_REG &= (uint8)(~USBUART_1_PM_STBY_EN_FSUSB);
 598              		.loc 1 578 0
 599 003a 194B     		ldr	r3, .L22+12
 600 003c 184A     		ldr	r2, .L22+12
 601 003e 1278     		ldrb	r2, [r2]
 602 0040 D2B2     		uxtb	r2, r2
 603 0042 22F00102 		bic	r2, r2, #1
 604 0046 D2B2     		uxtb	r2, r2
 605 0048 1A70     		strb	r2, [r3]
 579:.\Generated_Source\PSoC5/USBUART_1.c **** 
 580:.\Generated_Source\PSoC5/USBUART_1.c ****     /* Disable the reset and EP interrupts */
 581:.\Generated_Source\PSoC5/USBUART_1.c ****     CyIntDisable(USBUART_1_BUS_RESET_VECT_NUM);
 606              		.loc 1 581 0
 607 004a 164B     		ldr	r3, .L22+16
 608 004c 4FF40002 		mov	r2, #8388608
 609 0050 1A60     		str	r2, [r3]
 582:.\Generated_Source\PSoC5/USBUART_1.c ****     CyIntDisable(USBUART_1_EP_0_VECT_NUM);
 610              		.loc 1 582 0
 611 0052 144B     		ldr	r3, .L22+16
 612 0054 4FF08072 		mov	r2, #16777216
 613 0058 1A60     		str	r2, [r3]
ARM GAS  C:\Users\pfautley\AppData\Local\Temp\ccTPF43f.s 			page 22


 583:.\Generated_Source\PSoC5/USBUART_1.c ****     #if(USBUART_1_EP1_ISR_REMOVE == 0u)
 584:.\Generated_Source\PSoC5/USBUART_1.c ****         CyIntDisable(USBUART_1_EP_1_VECT_NUM);
 614              		.loc 1 584 0
 615 005a 124B     		ldr	r3, .L22+16
 616 005c 0122     		movs	r2, #1
 617 005e 1A60     		str	r2, [r3]
 585:.\Generated_Source\PSoC5/USBUART_1.c ****     #endif   /*  USBUART_1_EP1_ISR_REMOVE */
 586:.\Generated_Source\PSoC5/USBUART_1.c ****     #if(USBUART_1_EP2_ISR_REMOVE == 0u)
 587:.\Generated_Source\PSoC5/USBUART_1.c ****         CyIntDisable(USBUART_1_EP_2_VECT_NUM);
 618              		.loc 1 587 0
 619 0060 104B     		ldr	r3, .L22+16
 620 0062 0222     		movs	r2, #2
 621 0064 1A60     		str	r2, [r3]
 588:.\Generated_Source\PSoC5/USBUART_1.c ****     #endif   /*  USBUART_1_EP2_ISR_REMOVE */
 589:.\Generated_Source\PSoC5/USBUART_1.c ****     #if(USBUART_1_EP3_ISR_REMOVE == 0u)
 590:.\Generated_Source\PSoC5/USBUART_1.c ****         CyIntDisable(USBUART_1_EP_3_VECT_NUM);
 622              		.loc 1 590 0
 623 0066 0F4B     		ldr	r3, .L22+16
 624 0068 0422     		movs	r2, #4
 625 006a 1A60     		str	r2, [r3]
 591:.\Generated_Source\PSoC5/USBUART_1.c ****     #endif   /*  USBUART_1_EP3_ISR_REMOVE */
 592:.\Generated_Source\PSoC5/USBUART_1.c ****     #if(USBUART_1_EP4_ISR_REMOVE == 0u)
 593:.\Generated_Source\PSoC5/USBUART_1.c ****         CyIntDisable(USBUART_1_EP_4_VECT_NUM);
 594:.\Generated_Source\PSoC5/USBUART_1.c ****     #endif   /*  USBUART_1_EP4_ISR_REMOVE */
 595:.\Generated_Source\PSoC5/USBUART_1.c ****     #if(USBUART_1_EP5_ISR_REMOVE == 0u)
 596:.\Generated_Source\PSoC5/USBUART_1.c ****         CyIntDisable(USBUART_1_EP_5_VECT_NUM);
 597:.\Generated_Source\PSoC5/USBUART_1.c ****     #endif   /*  USBUART_1_EP5_ISR_REMOVE */
 598:.\Generated_Source\PSoC5/USBUART_1.c ****     #if(USBUART_1_EP6_ISR_REMOVE == 0u)
 599:.\Generated_Source\PSoC5/USBUART_1.c ****         CyIntDisable(USBUART_1_EP_6_VECT_NUM);
 600:.\Generated_Source\PSoC5/USBUART_1.c ****     #endif   /*  USBUART_1_EP6_ISR_REMOVE */
 601:.\Generated_Source\PSoC5/USBUART_1.c ****     #if(USBUART_1_EP7_ISR_REMOVE == 0u)
 602:.\Generated_Source\PSoC5/USBUART_1.c ****         CyIntDisable(USBUART_1_EP_7_VECT_NUM);
 603:.\Generated_Source\PSoC5/USBUART_1.c ****     #endif   /*  USBUART_1_EP7_ISR_REMOVE */
 604:.\Generated_Source\PSoC5/USBUART_1.c ****     #if(USBUART_1_EP8_ISR_REMOVE == 0u)
 605:.\Generated_Source\PSoC5/USBUART_1.c ****         CyIntDisable(USBUART_1_EP_8_VECT_NUM);
 606:.\Generated_Source\PSoC5/USBUART_1.c ****     #endif   /*  USBUART_1_EP8_ISR_REMOVE */
 607:.\Generated_Source\PSoC5/USBUART_1.c **** 
 608:.\Generated_Source\PSoC5/USBUART_1.c ****     /* Clear all of the component data */
 609:.\Generated_Source\PSoC5/USBUART_1.c ****     USBUART_1_configuration = 0u;
 626              		.loc 1 609 0
 627 006c 0E4B     		ldr	r3, .L22+20
 628 006e 0022     		movs	r2, #0
 629 0070 1A70     		strb	r2, [r3]
 610:.\Generated_Source\PSoC5/USBUART_1.c ****     USBUART_1_interfaceNumber = 0u;
 630              		.loc 1 610 0
 631 0072 0E4B     		ldr	r3, .L22+24
 632 0074 0022     		movs	r2, #0
 633 0076 1A70     		strb	r2, [r3]
 611:.\Generated_Source\PSoC5/USBUART_1.c ****     USBUART_1_configurationChanged = 0u;
 634              		.loc 1 611 0
 635 0078 0D4B     		ldr	r3, .L22+28
 636 007a 0022     		movs	r2, #0
 637 007c 1A70     		strb	r2, [r3]
 612:.\Generated_Source\PSoC5/USBUART_1.c ****     USBUART_1_deviceAddress  = 0u;
 638              		.loc 1 612 0
 639 007e 0D4B     		ldr	r3, .L22+32
 640 0080 0022     		movs	r2, #0
ARM GAS  C:\Users\pfautley\AppData\Local\Temp\ccTPF43f.s 			page 23


 641 0082 1A70     		strb	r2, [r3]
 613:.\Generated_Source\PSoC5/USBUART_1.c ****     USBUART_1_deviceStatus = 0u;
 642              		.loc 1 613 0
 643 0084 0C4B     		ldr	r3, .L22+36
 644 0086 0022     		movs	r2, #0
 645 0088 1A70     		strb	r2, [r3]
 614:.\Generated_Source\PSoC5/USBUART_1.c ****     USBUART_1_initVar = 0u;
 646              		.loc 1 614 0
 647 008a 0C4B     		ldr	r3, .L22+40
 648 008c 0022     		movs	r2, #0
 649 008e 1A70     		strb	r2, [r3]
 615:.\Generated_Source\PSoC5/USBUART_1.c **** 
 616:.\Generated_Source\PSoC5/USBUART_1.c **** }
 650              		.loc 1 616 0
 651 0090 80BD     		pop	{r7, pc}
 652              	.L23:
 653 0092 00BF     		.align	2
 654              	.L22:
 655 0094 08600040 		.word	1073766408
 656 0098 12600040 		.word	1073766418
 657 009c A5430040 		.word	1073759141
 658 00a0 B5430040 		.word	1073759157
 659 00a4 80E100E0 		.word	-536813184
 660 00a8 00000000 		.word	USBUART_1_configuration
 661 00ac 00000000 		.word	USBUART_1_interfaceNumber
 662 00b0 00000000 		.word	USBUART_1_configurationChanged
 663 00b4 00000000 		.word	USBUART_1_deviceAddress
 664 00b8 00000000 		.word	USBUART_1_deviceStatus
 665 00bc 00000000 		.word	USBUART_1_initVar
 666              		.cfi_endproc
 667              	.LFE4:
 668              		.size	USBUART_1_Stop, .-USBUART_1_Stop
 669              		.section	.text.USBUART_1_CheckActivity,"ax",%progbits
 670              		.align	2
 671              		.global	USBUART_1_CheckActivity
 672              		.thumb
 673              		.thumb_func
 674              		.type	USBUART_1_CheckActivity, %function
 675              	USBUART_1_CheckActivity:
 676              	.LFB5:
 617:.\Generated_Source\PSoC5/USBUART_1.c **** 
 618:.\Generated_Source\PSoC5/USBUART_1.c **** 
 619:.\Generated_Source\PSoC5/USBUART_1.c **** /*******************************************************************************
 620:.\Generated_Source\PSoC5/USBUART_1.c **** * Function Name: USBUART_1_CheckActivity
 621:.\Generated_Source\PSoC5/USBUART_1.c **** ********************************************************************************
 622:.\Generated_Source\PSoC5/USBUART_1.c **** *
 623:.\Generated_Source\PSoC5/USBUART_1.c **** * Summary:
 624:.\Generated_Source\PSoC5/USBUART_1.c **** *  Returns the activity status of the bus.  Clears the status hardware to
 625:.\Generated_Source\PSoC5/USBUART_1.c **** *  provide fresh activity status on the next call of this routine.
 626:.\Generated_Source\PSoC5/USBUART_1.c **** *
 627:.\Generated_Source\PSoC5/USBUART_1.c **** * Parameters:
 628:.\Generated_Source\PSoC5/USBUART_1.c **** *  None.
 629:.\Generated_Source\PSoC5/USBUART_1.c **** *
 630:.\Generated_Source\PSoC5/USBUART_1.c **** * Return:
 631:.\Generated_Source\PSoC5/USBUART_1.c **** *  1 - If bus activity was detected since the last call to this function
 632:.\Generated_Source\PSoC5/USBUART_1.c **** *  0 - If bus activity not was detected since the last call to this function
 633:.\Generated_Source\PSoC5/USBUART_1.c **** *
ARM GAS  C:\Users\pfautley\AppData\Local\Temp\ccTPF43f.s 			page 24


 634:.\Generated_Source\PSoC5/USBUART_1.c **** *******************************************************************************/
 635:.\Generated_Source\PSoC5/USBUART_1.c **** uint8 USBUART_1_CheckActivity(void) 
 636:.\Generated_Source\PSoC5/USBUART_1.c **** {
 677              		.loc 1 636 0
 678              		.cfi_startproc
 679              		@ args = 0, pretend = 0, frame = 8
 680              		@ frame_needed = 1, uses_anonymous_args = 0
 681              		@ link register save eliminated.
 682 0000 80B4     		push	{r7}
 683              		.cfi_def_cfa_offset 4
 684              		.cfi_offset 7, -4
 685 0002 83B0     		sub	sp, sp, #12
 686              		.cfi_def_cfa_offset 16
 687 0004 00AF     		add	r7, sp, #0
 688              		.cfi_def_cfa_register 7
 637:.\Generated_Source\PSoC5/USBUART_1.c ****     uint8 r;
 638:.\Generated_Source\PSoC5/USBUART_1.c **** 
 639:.\Generated_Source\PSoC5/USBUART_1.c ****     r = CY_GET_REG8(USBUART_1_CR1_PTR);
 689              		.loc 1 639 0
 690 0006 0A4B     		ldr	r3, .L26
 691 0008 1B78     		ldrb	r3, [r3]
 692 000a FB71     		strb	r3, [r7, #7]
 640:.\Generated_Source\PSoC5/USBUART_1.c ****     CY_SET_REG8(USBUART_1_CR1_PTR, (r & ((uint8)(~USBUART_1_CR1_BUS_ACTIVITY))));
 693              		.loc 1 640 0
 694 000c 084B     		ldr	r3, .L26
 695 000e FA79     		ldrb	r2, [r7, #7]
 696 0010 22F00402 		bic	r2, r2, #4
 697 0014 D2B2     		uxtb	r2, r2
 698 0016 1A70     		strb	r2, [r3]
 641:.\Generated_Source\PSoC5/USBUART_1.c **** 
 642:.\Generated_Source\PSoC5/USBUART_1.c ****     return((r & USBUART_1_CR1_BUS_ACTIVITY) >> USBUART_1_CR1_BUS_ACTIVITY_SHIFT);
 699              		.loc 1 642 0
 700 0018 FB79     		ldrb	r3, [r7, #7]	@ zero_extendqisi2
 701 001a 03F00403 		and	r3, r3, #4
 702 001e 9B10     		asrs	r3, r3, #2
 703 0020 DBB2     		uxtb	r3, r3
 643:.\Generated_Source\PSoC5/USBUART_1.c **** }
 704              		.loc 1 643 0
 705 0022 1846     		mov	r0, r3
 706 0024 0C37     		adds	r7, r7, #12
 707 0026 BD46     		mov	sp, r7
 708              		@ sp needed
 709 0028 5DF8047B 		ldr	r7, [sp], #4
 710 002c 7047     		bx	lr
 711              	.L27:
 712 002e 00BF     		.align	2
 713              	.L26:
 714 0030 09600040 		.word	1073766409
 715              		.cfi_endproc
 716              	.LFE5:
 717              		.size	USBUART_1_CheckActivity, .-USBUART_1_CheckActivity
 718              		.section	.text.USBUART_1_GetConfiguration,"ax",%progbits
 719              		.align	2
 720              		.global	USBUART_1_GetConfiguration
 721              		.thumb
 722              		.thumb_func
 723              		.type	USBUART_1_GetConfiguration, %function
ARM GAS  C:\Users\pfautley\AppData\Local\Temp\ccTPF43f.s 			page 25


 724              	USBUART_1_GetConfiguration:
 725              	.LFB6:
 644:.\Generated_Source\PSoC5/USBUART_1.c **** 
 645:.\Generated_Source\PSoC5/USBUART_1.c **** 
 646:.\Generated_Source\PSoC5/USBUART_1.c **** /*******************************************************************************
 647:.\Generated_Source\PSoC5/USBUART_1.c **** * Function Name: USBUART_1_GetConfiguration
 648:.\Generated_Source\PSoC5/USBUART_1.c **** ********************************************************************************
 649:.\Generated_Source\PSoC5/USBUART_1.c **** *
 650:.\Generated_Source\PSoC5/USBUART_1.c **** * Summary:
 651:.\Generated_Source\PSoC5/USBUART_1.c **** *  Returns the current configuration setting
 652:.\Generated_Source\PSoC5/USBUART_1.c **** *
 653:.\Generated_Source\PSoC5/USBUART_1.c **** * Parameters:
 654:.\Generated_Source\PSoC5/USBUART_1.c **** *  None.
 655:.\Generated_Source\PSoC5/USBUART_1.c **** *
 656:.\Generated_Source\PSoC5/USBUART_1.c **** * Return:
 657:.\Generated_Source\PSoC5/USBUART_1.c **** *  configuration.
 658:.\Generated_Source\PSoC5/USBUART_1.c **** *
 659:.\Generated_Source\PSoC5/USBUART_1.c **** *******************************************************************************/
 660:.\Generated_Source\PSoC5/USBUART_1.c **** uint8 USBUART_1_GetConfiguration(void) 
 661:.\Generated_Source\PSoC5/USBUART_1.c **** {
 726              		.loc 1 661 0
 727              		.cfi_startproc
 728              		@ args = 0, pretend = 0, frame = 0
 729              		@ frame_needed = 1, uses_anonymous_args = 0
 730              		@ link register save eliminated.
 731 0000 80B4     		push	{r7}
 732              		.cfi_def_cfa_offset 4
 733              		.cfi_offset 7, -4
 734 0002 00AF     		add	r7, sp, #0
 735              		.cfi_def_cfa_register 7
 662:.\Generated_Source\PSoC5/USBUART_1.c ****     return(USBUART_1_configuration);
 736              		.loc 1 662 0
 737 0004 034B     		ldr	r3, .L30
 738 0006 1B78     		ldrb	r3, [r3]
 739 0008 DBB2     		uxtb	r3, r3
 663:.\Generated_Source\PSoC5/USBUART_1.c **** }
 740              		.loc 1 663 0
 741 000a 1846     		mov	r0, r3
 742 000c BD46     		mov	sp, r7
 743              		@ sp needed
 744 000e 5DF8047B 		ldr	r7, [sp], #4
 745 0012 7047     		bx	lr
 746              	.L31:
 747              		.align	2
 748              	.L30:
 749 0014 00000000 		.word	USBUART_1_configuration
 750              		.cfi_endproc
 751              	.LFE6:
 752              		.size	USBUART_1_GetConfiguration, .-USBUART_1_GetConfiguration
 753              		.section	.text.USBUART_1_IsConfigurationChanged,"ax",%progbits
 754              		.align	2
 755              		.global	USBUART_1_IsConfigurationChanged
 756              		.thumb
 757              		.thumb_func
 758              		.type	USBUART_1_IsConfigurationChanged, %function
 759              	USBUART_1_IsConfigurationChanged:
 760              	.LFB7:
ARM GAS  C:\Users\pfautley\AppData\Local\Temp\ccTPF43f.s 			page 26


 664:.\Generated_Source\PSoC5/USBUART_1.c **** 
 665:.\Generated_Source\PSoC5/USBUART_1.c **** 
 666:.\Generated_Source\PSoC5/USBUART_1.c **** /*******************************************************************************
 667:.\Generated_Source\PSoC5/USBUART_1.c **** * Function Name: USBUART_1_IsConfigurationChanged
 668:.\Generated_Source\PSoC5/USBUART_1.c **** ********************************************************************************
 669:.\Generated_Source\PSoC5/USBUART_1.c **** *
 670:.\Generated_Source\PSoC5/USBUART_1.c **** * Summary:
 671:.\Generated_Source\PSoC5/USBUART_1.c **** *  Returns the clear on read configuration state. It is usefull when PC send
 672:.\Generated_Source\PSoC5/USBUART_1.c **** *  double SET_CONFIGURATION request with same configuration number.
 673:.\Generated_Source\PSoC5/USBUART_1.c **** *
 674:.\Generated_Source\PSoC5/USBUART_1.c **** * Parameters:
 675:.\Generated_Source\PSoC5/USBUART_1.c **** *  None.
 676:.\Generated_Source\PSoC5/USBUART_1.c **** *
 677:.\Generated_Source\PSoC5/USBUART_1.c **** * Return:
 678:.\Generated_Source\PSoC5/USBUART_1.c **** *  Not zero value when new configuration has been changed, otherwise zero is
 679:.\Generated_Source\PSoC5/USBUART_1.c **** *  returned.
 680:.\Generated_Source\PSoC5/USBUART_1.c **** *
 681:.\Generated_Source\PSoC5/USBUART_1.c **** * Global variables:
 682:.\Generated_Source\PSoC5/USBUART_1.c **** *   USBUART_1_configurationChanged: This variable is set to one after
 683:.\Generated_Source\PSoC5/USBUART_1.c **** *       SET_CONFIGURATION request and cleared in this function.
 684:.\Generated_Source\PSoC5/USBUART_1.c **** *
 685:.\Generated_Source\PSoC5/USBUART_1.c **** *******************************************************************************/
 686:.\Generated_Source\PSoC5/USBUART_1.c **** uint8 USBUART_1_IsConfigurationChanged(void) 
 687:.\Generated_Source\PSoC5/USBUART_1.c **** {
 761              		.loc 1 687 0
 762              		.cfi_startproc
 763              		@ args = 0, pretend = 0, frame = 8
 764              		@ frame_needed = 1, uses_anonymous_args = 0
 765              		@ link register save eliminated.
 766 0000 80B4     		push	{r7}
 767              		.cfi_def_cfa_offset 4
 768              		.cfi_offset 7, -4
 769 0002 83B0     		sub	sp, sp, #12
 770              		.cfi_def_cfa_offset 16
 771 0004 00AF     		add	r7, sp, #0
 772              		.cfi_def_cfa_register 7
 688:.\Generated_Source\PSoC5/USBUART_1.c ****     uint8 res = 0u;
 773              		.loc 1 688 0
 774 0006 0023     		movs	r3, #0
 775 0008 FB71     		strb	r3, [r7, #7]
 689:.\Generated_Source\PSoC5/USBUART_1.c **** 
 690:.\Generated_Source\PSoC5/USBUART_1.c ****     if(USBUART_1_configurationChanged != 0u)
 776              		.loc 1 690 0
 777 000a 094B     		ldr	r3, .L35
 778 000c 1B78     		ldrb	r3, [r3]
 779 000e DBB2     		uxtb	r3, r3
 780 0010 002B     		cmp	r3, #0
 781 0012 05D0     		beq	.L33
 691:.\Generated_Source\PSoC5/USBUART_1.c ****     {
 692:.\Generated_Source\PSoC5/USBUART_1.c ****         res = USBUART_1_configurationChanged;
 782              		.loc 1 692 0
 783 0014 064B     		ldr	r3, .L35
 784 0016 1B78     		ldrb	r3, [r3]
 785 0018 FB71     		strb	r3, [r7, #7]
 693:.\Generated_Source\PSoC5/USBUART_1.c ****         USBUART_1_configurationChanged = 0u;
 786              		.loc 1 693 0
 787 001a 054B     		ldr	r3, .L35
ARM GAS  C:\Users\pfautley\AppData\Local\Temp\ccTPF43f.s 			page 27


 788 001c 0022     		movs	r2, #0
 789 001e 1A70     		strb	r2, [r3]
 790              	.L33:
 694:.\Generated_Source\PSoC5/USBUART_1.c ****     }
 695:.\Generated_Source\PSoC5/USBUART_1.c **** 
 696:.\Generated_Source\PSoC5/USBUART_1.c ****     return(res);
 791              		.loc 1 696 0
 792 0020 FB79     		ldrb	r3, [r7, #7]	@ zero_extendqisi2
 697:.\Generated_Source\PSoC5/USBUART_1.c **** }
 793              		.loc 1 697 0
 794 0022 1846     		mov	r0, r3
 795 0024 0C37     		adds	r7, r7, #12
 796 0026 BD46     		mov	sp, r7
 797              		@ sp needed
 798 0028 5DF8047B 		ldr	r7, [sp], #4
 799 002c 7047     		bx	lr
 800              	.L36:
 801 002e 00BF     		.align	2
 802              	.L35:
 803 0030 00000000 		.word	USBUART_1_configurationChanged
 804              		.cfi_endproc
 805              	.LFE7:
 806              		.size	USBUART_1_IsConfigurationChanged, .-USBUART_1_IsConfigurationChanged
 807              		.section	.text.USBUART_1_GetInterfaceSetting,"ax",%progbits
 808              		.align	2
 809              		.global	USBUART_1_GetInterfaceSetting
 810              		.thumb
 811              		.thumb_func
 812              		.type	USBUART_1_GetInterfaceSetting, %function
 813              	USBUART_1_GetInterfaceSetting:
 814              	.LFB8:
 698:.\Generated_Source\PSoC5/USBUART_1.c **** 
 699:.\Generated_Source\PSoC5/USBUART_1.c **** 
 700:.\Generated_Source\PSoC5/USBUART_1.c **** /*******************************************************************************
 701:.\Generated_Source\PSoC5/USBUART_1.c **** * Function Name: USBUART_1_GetInterfaceSetting
 702:.\Generated_Source\PSoC5/USBUART_1.c **** ********************************************************************************
 703:.\Generated_Source\PSoC5/USBUART_1.c **** *
 704:.\Generated_Source\PSoC5/USBUART_1.c **** * Summary:
 705:.\Generated_Source\PSoC5/USBUART_1.c **** *  Returns the alternate setting from current interface
 706:.\Generated_Source\PSoC5/USBUART_1.c **** *
 707:.\Generated_Source\PSoC5/USBUART_1.c **** * Parameters:
 708:.\Generated_Source\PSoC5/USBUART_1.c **** *  uint8 interfaceNumber, interface number
 709:.\Generated_Source\PSoC5/USBUART_1.c **** *
 710:.\Generated_Source\PSoC5/USBUART_1.c **** * Return:
 711:.\Generated_Source\PSoC5/USBUART_1.c **** *  Alternate setting.
 712:.\Generated_Source\PSoC5/USBUART_1.c **** *
 713:.\Generated_Source\PSoC5/USBUART_1.c **** *******************************************************************************/
 714:.\Generated_Source\PSoC5/USBUART_1.c **** uint8  USBUART_1_GetInterfaceSetting(uint8 interfaceNumber)
 715:.\Generated_Source\PSoC5/USBUART_1.c ****                                                     
 716:.\Generated_Source\PSoC5/USBUART_1.c **** {
 815              		.loc 1 716 0
 816              		.cfi_startproc
 817              		@ args = 0, pretend = 0, frame = 8
 818              		@ frame_needed = 1, uses_anonymous_args = 0
 819              		@ link register save eliminated.
 820 0000 80B4     		push	{r7}
 821              		.cfi_def_cfa_offset 4
ARM GAS  C:\Users\pfautley\AppData\Local\Temp\ccTPF43f.s 			page 28


 822              		.cfi_offset 7, -4
 823 0002 83B0     		sub	sp, sp, #12
 824              		.cfi_def_cfa_offset 16
 825 0004 00AF     		add	r7, sp, #0
 826              		.cfi_def_cfa_register 7
 827 0006 0346     		mov	r3, r0
 828 0008 FB71     		strb	r3, [r7, #7]
 717:.\Generated_Source\PSoC5/USBUART_1.c ****     return(USBUART_1_interfaceSetting[interfaceNumber]);
 829              		.loc 1 717 0
 830 000a FB79     		ldrb	r3, [r7, #7]	@ zero_extendqisi2
 831 000c 044A     		ldr	r2, .L39
 832 000e D35C     		ldrb	r3, [r2, r3]
 833 0010 DBB2     		uxtb	r3, r3
 718:.\Generated_Source\PSoC5/USBUART_1.c **** }
 834              		.loc 1 718 0
 835 0012 1846     		mov	r0, r3
 836 0014 0C37     		adds	r7, r7, #12
 837 0016 BD46     		mov	sp, r7
 838              		@ sp needed
 839 0018 5DF8047B 		ldr	r7, [sp], #4
 840 001c 7047     		bx	lr
 841              	.L40:
 842 001e 00BF     		.align	2
 843              	.L39:
 844 0020 00000000 		.word	USBUART_1_interfaceSetting
 845              		.cfi_endproc
 846              	.LFE8:
 847              		.size	USBUART_1_GetInterfaceSetting, .-USBUART_1_GetInterfaceSetting
 848              		.section	.text.USBUART_1_GetEPState,"ax",%progbits
 849              		.align	2
 850              		.global	USBUART_1_GetEPState
 851              		.thumb
 852              		.thumb_func
 853              		.type	USBUART_1_GetEPState, %function
 854              	USBUART_1_GetEPState:
 855              	.LFB9:
 719:.\Generated_Source\PSoC5/USBUART_1.c **** 
 720:.\Generated_Source\PSoC5/USBUART_1.c **** 
 721:.\Generated_Source\PSoC5/USBUART_1.c **** /*******************************************************************************
 722:.\Generated_Source\PSoC5/USBUART_1.c **** * Function Name: USBUART_1_GetEPState
 723:.\Generated_Source\PSoC5/USBUART_1.c **** ********************************************************************************
 724:.\Generated_Source\PSoC5/USBUART_1.c **** *
 725:.\Generated_Source\PSoC5/USBUART_1.c **** * Summary:
 726:.\Generated_Source\PSoC5/USBUART_1.c **** *  Returned the state of the requested endpoint.
 727:.\Generated_Source\PSoC5/USBUART_1.c **** *
 728:.\Generated_Source\PSoC5/USBUART_1.c **** * Parameters:
 729:.\Generated_Source\PSoC5/USBUART_1.c **** *  epNumber: Endpoint Number
 730:.\Generated_Source\PSoC5/USBUART_1.c **** *
 731:.\Generated_Source\PSoC5/USBUART_1.c **** * Return:
 732:.\Generated_Source\PSoC5/USBUART_1.c **** *  State of the requested endpoint.
 733:.\Generated_Source\PSoC5/USBUART_1.c **** *
 734:.\Generated_Source\PSoC5/USBUART_1.c **** *******************************************************************************/
 735:.\Generated_Source\PSoC5/USBUART_1.c **** uint8 USBUART_1_GetEPState(uint8 epNumber) 
 736:.\Generated_Source\PSoC5/USBUART_1.c **** {
 856              		.loc 1 736 0
 857              		.cfi_startproc
 858              		@ args = 0, pretend = 0, frame = 8
ARM GAS  C:\Users\pfautley\AppData\Local\Temp\ccTPF43f.s 			page 29


 859              		@ frame_needed = 1, uses_anonymous_args = 0
 860              		@ link register save eliminated.
 861 0000 80B4     		push	{r7}
 862              		.cfi_def_cfa_offset 4
 863              		.cfi_offset 7, -4
 864 0002 83B0     		sub	sp, sp, #12
 865              		.cfi_def_cfa_offset 16
 866 0004 00AF     		add	r7, sp, #0
 867              		.cfi_def_cfa_register 7
 868 0006 0346     		mov	r3, r0
 869 0008 FB71     		strb	r3, [r7, #7]
 737:.\Generated_Source\PSoC5/USBUART_1.c ****     return(USBUART_1_EP[epNumber].apiEpState);
 870              		.loc 1 737 0
 871 000a FA79     		ldrb	r2, [r7, #7]	@ zero_extendqisi2
 872 000c 0649     		ldr	r1, .L43
 873 000e 1346     		mov	r3, r2
 874 0010 5B00     		lsls	r3, r3, #1
 875 0012 1344     		add	r3, r3, r2
 876 0014 9B00     		lsls	r3, r3, #2
 877 0016 0B44     		add	r3, r3, r1
 878 0018 5B78     		ldrb	r3, [r3, #1]
 879 001a DBB2     		uxtb	r3, r3
 738:.\Generated_Source\PSoC5/USBUART_1.c **** }
 880              		.loc 1 738 0
 881 001c 1846     		mov	r0, r3
 882 001e 0C37     		adds	r7, r7, #12
 883 0020 BD46     		mov	sp, r7
 884              		@ sp needed
 885 0022 5DF8047B 		ldr	r7, [sp], #4
 886 0026 7047     		bx	lr
 887              	.L44:
 888              		.align	2
 889              	.L43:
 890 0028 00000000 		.word	USBUART_1_EP
 891              		.cfi_endproc
 892              	.LFE9:
 893              		.size	USBUART_1_GetEPState, .-USBUART_1_GetEPState
 894              		.section	.text.USBUART_1_GetEPCount,"ax",%progbits
 895              		.align	2
 896              		.global	USBUART_1_GetEPCount
 897              		.thumb
 898              		.thumb_func
 899              		.type	USBUART_1_GetEPCount, %function
 900              	USBUART_1_GetEPCount:
 901              	.LFB10:
 739:.\Generated_Source\PSoC5/USBUART_1.c **** 
 740:.\Generated_Source\PSoC5/USBUART_1.c **** 
 741:.\Generated_Source\PSoC5/USBUART_1.c **** /*******************************************************************************
 742:.\Generated_Source\PSoC5/USBUART_1.c **** * Function Name: USBUART_1_GetEPCount
 743:.\Generated_Source\PSoC5/USBUART_1.c **** ********************************************************************************
 744:.\Generated_Source\PSoC5/USBUART_1.c **** *
 745:.\Generated_Source\PSoC5/USBUART_1.c **** * Summary:
 746:.\Generated_Source\PSoC5/USBUART_1.c **** *  This function supports Data Endpoints only(EP1-EP8).
 747:.\Generated_Source\PSoC5/USBUART_1.c **** *  Returns the transfer count for the requested endpoint.  The value from
 748:.\Generated_Source\PSoC5/USBUART_1.c **** *  the count registers includes 2 counts for the two byte checksum of the
 749:.\Generated_Source\PSoC5/USBUART_1.c **** *  packet.  This function subtracts the two counts.
 750:.\Generated_Source\PSoC5/USBUART_1.c **** *
ARM GAS  C:\Users\pfautley\AppData\Local\Temp\ccTPF43f.s 			page 30


 751:.\Generated_Source\PSoC5/USBUART_1.c **** * Parameters:
 752:.\Generated_Source\PSoC5/USBUART_1.c **** *  epNumber: Data Endpoint Number.
 753:.\Generated_Source\PSoC5/USBUART_1.c **** *            Valid values are between 1 and 8.
 754:.\Generated_Source\PSoC5/USBUART_1.c **** *
 755:.\Generated_Source\PSoC5/USBUART_1.c **** * Return:
 756:.\Generated_Source\PSoC5/USBUART_1.c **** *  Returns the current byte count from the specified endpoint or 0 for an
 757:.\Generated_Source\PSoC5/USBUART_1.c **** *  invalid endpoint.
 758:.\Generated_Source\PSoC5/USBUART_1.c **** *
 759:.\Generated_Source\PSoC5/USBUART_1.c **** *******************************************************************************/
 760:.\Generated_Source\PSoC5/USBUART_1.c **** uint16 USBUART_1_GetEPCount(uint8 epNumber) 
 761:.\Generated_Source\PSoC5/USBUART_1.c **** {
 902              		.loc 1 761 0
 903              		.cfi_startproc
 904              		@ args = 0, pretend = 0, frame = 16
 905              		@ frame_needed = 1, uses_anonymous_args = 0
 906              		@ link register save eliminated.
 907 0000 80B4     		push	{r7}
 908              		.cfi_def_cfa_offset 4
 909              		.cfi_offset 7, -4
 910 0002 85B0     		sub	sp, sp, #20
 911              		.cfi_def_cfa_offset 24
 912 0004 00AF     		add	r7, sp, #0
 913              		.cfi_def_cfa_register 7
 914 0006 0346     		mov	r3, r0
 915 0008 FB71     		strb	r3, [r7, #7]
 762:.\Generated_Source\PSoC5/USBUART_1.c ****     uint8 ri;
 763:.\Generated_Source\PSoC5/USBUART_1.c ****     uint16 result = 0u;
 916              		.loc 1 763 0
 917 000a 0023     		movs	r3, #0
 918 000c FB81     		strh	r3, [r7, #14]	@ movhi
 764:.\Generated_Source\PSoC5/USBUART_1.c **** 
 765:.\Generated_Source\PSoC5/USBUART_1.c ****     if((epNumber > USBUART_1_EP0) && (epNumber < USBUART_1_MAX_EP))
 919              		.loc 1 765 0
 920 000e FB79     		ldrb	r3, [r7, #7]	@ zero_extendqisi2
 921 0010 002B     		cmp	r3, #0
 922 0012 1DD0     		beq	.L46
 923              		.loc 1 765 0 is_stmt 0 discriminator 1
 924 0014 FB79     		ldrb	r3, [r7, #7]	@ zero_extendqisi2
 925 0016 082B     		cmp	r3, #8
 926 0018 1AD8     		bhi	.L46
 766:.\Generated_Source\PSoC5/USBUART_1.c ****     {
 767:.\Generated_Source\PSoC5/USBUART_1.c ****         ri = ((epNumber - USBUART_1_EP1) << USBUART_1_EPX_CNTX_ADDR_SHIFT);
 927              		.loc 1 767 0 is_stmt 1
 928 001a FB79     		ldrb	r3, [r7, #7]
 929 001c 013B     		subs	r3, r3, #1
 930 001e DBB2     		uxtb	r3, r3
 931 0020 1B01     		lsls	r3, r3, #4
 932 0022 7B73     		strb	r3, [r7, #13]
 768:.\Generated_Source\PSoC5/USBUART_1.c **** 
 769:.\Generated_Source\PSoC5/USBUART_1.c ****         result = (uint8)(CY_GET_REG8((reg8 *)(USBUART_1_SIE_EP1_CNT0_IND + ri)) &
 933              		.loc 1 769 0
 934 0024 7A7B     		ldrb	r2, [r7, #13]	@ zero_extendqisi2
 935 0026 0E4B     		ldr	r3, .L48
 936 0028 1344     		add	r3, r3, r2
 937 002a 1B78     		ldrb	r3, [r3]
 938 002c DBB2     		uxtb	r3, r3
 939 002e 03F00F03 		and	r3, r3, #15
ARM GAS  C:\Users\pfautley\AppData\Local\Temp\ccTPF43f.s 			page 31


 940 0032 FB81     		strh	r3, [r7, #14]	@ movhi
 770:.\Generated_Source\PSoC5/USBUART_1.c ****                           USBUART_1_EPX_CNT0_MASK);
 771:.\Generated_Source\PSoC5/USBUART_1.c ****         result = (result << 8u) | CY_GET_REG8((reg8 *)(USBUART_1_SIE_EP1_CNT1_IND + ri));
 941              		.loc 1 771 0
 942 0034 FB89     		ldrh	r3, [r7, #14]
 943 0036 1B02     		lsls	r3, r3, #8
 944 0038 9AB2     		uxth	r2, r3
 945 003a 797B     		ldrb	r1, [r7, #13]	@ zero_extendqisi2
 946 003c 094B     		ldr	r3, .L48+4
 947 003e 0B44     		add	r3, r3, r1
 948 0040 1B78     		ldrb	r3, [r3]
 949 0042 DBB2     		uxtb	r3, r3
 950 0044 1343     		orrs	r3, r3, r2
 951 0046 9BB2     		uxth	r3, r3
 952 0048 FB81     		strh	r3, [r7, #14]	@ movhi
 772:.\Generated_Source\PSoC5/USBUART_1.c ****         result -= USBUART_1_EPX_CNTX_CRC_COUNT;
 953              		.loc 1 772 0
 954 004a FB89     		ldrh	r3, [r7, #14]	@ movhi
 955 004c 023B     		subs	r3, r3, #2
 956 004e FB81     		strh	r3, [r7, #14]	@ movhi
 957              	.L46:
 773:.\Generated_Source\PSoC5/USBUART_1.c ****     }
 774:.\Generated_Source\PSoC5/USBUART_1.c ****     return(result);
 958              		.loc 1 774 0
 959 0050 FB89     		ldrh	r3, [r7, #14]
 775:.\Generated_Source\PSoC5/USBUART_1.c **** }
 960              		.loc 1 775 0
 961 0052 1846     		mov	r0, r3
 962 0054 1437     		adds	r7, r7, #20
 963 0056 BD46     		mov	sp, r7
 964              		@ sp needed
 965 0058 5DF8047B 		ldr	r7, [sp], #4
 966 005c 7047     		bx	lr
 967              	.L49:
 968 005e 00BF     		.align	2
 969              	.L48:
 970 0060 0C600040 		.word	1073766412
 971 0064 0D600040 		.word	1073766413
 972              		.cfi_endproc
 973              	.LFE10:
 974              		.size	USBUART_1_GetEPCount, .-USBUART_1_GetEPCount
 975              		.section	.text.USBUART_1_InitEP_DMA,"ax",%progbits
 976              		.align	2
 977              		.global	USBUART_1_InitEP_DMA
 978              		.thumb
 979              		.thumb_func
 980              		.type	USBUART_1_InitEP_DMA, %function
 981              	USBUART_1_InitEP_DMA:
 982              	.LFB11:
 776:.\Generated_Source\PSoC5/USBUART_1.c **** 
 777:.\Generated_Source\PSoC5/USBUART_1.c **** 
 778:.\Generated_Source\PSoC5/USBUART_1.c **** #if(USBUART_1_EP_MM != USBUART_1__EP_MANUAL)
 779:.\Generated_Source\PSoC5/USBUART_1.c **** 
 780:.\Generated_Source\PSoC5/USBUART_1.c **** 
 781:.\Generated_Source\PSoC5/USBUART_1.c ****     /*******************************************************************************
 782:.\Generated_Source\PSoC5/USBUART_1.c ****     * Function Name: USBUART_1_InitEP_DMA
 783:.\Generated_Source\PSoC5/USBUART_1.c ****     ********************************************************************************
ARM GAS  C:\Users\pfautley\AppData\Local\Temp\ccTPF43f.s 			page 32


 784:.\Generated_Source\PSoC5/USBUART_1.c ****     *
 785:.\Generated_Source\PSoC5/USBUART_1.c ****     * Summary:
 786:.\Generated_Source\PSoC5/USBUART_1.c ****     *  This function allocates and initializes a DMA channel to be used by the
 787:.\Generated_Source\PSoC5/USBUART_1.c ****     *  USBUART_1_LoadInEP() or USBUART_1_ReadOutEP() APIs for data
 788:.\Generated_Source\PSoC5/USBUART_1.c ****     *  transfer.
 789:.\Generated_Source\PSoC5/USBUART_1.c ****     *
 790:.\Generated_Source\PSoC5/USBUART_1.c ****     * Parameters:
 791:.\Generated_Source\PSoC5/USBUART_1.c ****     *  epNumber: Contains the data endpoint number.
 792:.\Generated_Source\PSoC5/USBUART_1.c ****     *            Valid values are between 1 and 8.
 793:.\Generated_Source\PSoC5/USBUART_1.c ****     *  *pData: Pointer to a data array that is related to the EP transfers.
 794:.\Generated_Source\PSoC5/USBUART_1.c ****     *
 795:.\Generated_Source\PSoC5/USBUART_1.c ****     * Return:
 796:.\Generated_Source\PSoC5/USBUART_1.c ****     *  None.
 797:.\Generated_Source\PSoC5/USBUART_1.c ****     *
 798:.\Generated_Source\PSoC5/USBUART_1.c ****     * Reentrant:
 799:.\Generated_Source\PSoC5/USBUART_1.c ****     *  No.
 800:.\Generated_Source\PSoC5/USBUART_1.c ****     *
 801:.\Generated_Source\PSoC5/USBUART_1.c ****     *******************************************************************************/
 802:.\Generated_Source\PSoC5/USBUART_1.c ****     void USBUART_1_InitEP_DMA(uint8 epNumber, const uint8* pData)
 803:.\Generated_Source\PSoC5/USBUART_1.c ****                                                                     
 804:.\Generated_Source\PSoC5/USBUART_1.c ****     {
 983              		.loc 1 804 0
 984              		.cfi_startproc
 985              		@ args = 0, pretend = 0, frame = 16
 986              		@ frame_needed = 1, uses_anonymous_args = 0
 987 0000 90B5     		push	{r4, r7, lr}
 988              		.cfi_def_cfa_offset 12
 989              		.cfi_offset 4, -12
 990              		.cfi_offset 7, -8
 991              		.cfi_offset 14, -4
 992 0002 85B0     		sub	sp, sp, #20
 993              		.cfi_def_cfa_offset 32
 994 0004 00AF     		add	r7, sp, #0
 995              		.cfi_def_cfa_register 7
 996 0006 0346     		mov	r3, r0
 997 0008 3960     		str	r1, [r7]
 998 000a FB71     		strb	r3, [r7, #7]
 805:.\Generated_Source\PSoC5/USBUART_1.c ****         uint16 src;
 806:.\Generated_Source\PSoC5/USBUART_1.c ****         uint16 dst;
 807:.\Generated_Source\PSoC5/USBUART_1.c ****         #if (CY_PSOC3)                  /* PSoC 3 */
 808:.\Generated_Source\PSoC5/USBUART_1.c ****             src = HI16(CYDEV_SRAM_BASE);
 809:.\Generated_Source\PSoC5/USBUART_1.c ****             dst = HI16(CYDEV_PERIPH_BASE);
 810:.\Generated_Source\PSoC5/USBUART_1.c ****             pData = pData;
 811:.\Generated_Source\PSoC5/USBUART_1.c ****         #else                           /* PSoC 5 */
 812:.\Generated_Source\PSoC5/USBUART_1.c ****             if((USBUART_1_EP[epNumber].addr & USBUART_1_DIR_IN) != 0u )
 999              		.loc 1 812 0
 1000 000c FA79     		ldrb	r2, [r7, #7]	@ zero_extendqisi2
 1001 000e 3349     		ldr	r1, .L66
 1002 0010 1346     		mov	r3, r2
 1003 0012 5B00     		lsls	r3, r3, #1
 1004 0014 1344     		add	r3, r3, r2
 1005 0016 9B00     		lsls	r3, r3, #2
 1006 0018 0B44     		add	r3, r3, r1
 1007 001a 1B79     		ldrb	r3, [r3, #4]
 1008 001c DBB2     		uxtb	r3, r3
 1009 001e DBB2     		uxtb	r3, r3
 1010 0020 5BB2     		sxtb	r3, r3
ARM GAS  C:\Users\pfautley\AppData\Local\Temp\ccTPF43f.s 			page 33


 1011 0022 002B     		cmp	r3, #0
 1012 0024 06DA     		bge	.L51
 813:.\Generated_Source\PSoC5/USBUART_1.c ****             {   /* for the IN EP source is the SRAM memory buffer */
 814:.\Generated_Source\PSoC5/USBUART_1.c ****                 src = HI16(pData);
 1013              		.loc 1 814 0
 1014 0026 3B68     		ldr	r3, [r7]
 1015 0028 1B0C     		lsrs	r3, r3, #16
 1016 002a FB81     		strh	r3, [r7, #14]	@ movhi
 815:.\Generated_Source\PSoC5/USBUART_1.c ****                 dst = HI16(CYDEV_PERIPH_BASE);
 1017              		.loc 1 815 0
 1018 002c 4FF48043 		mov	r3, #16384
 1019 0030 BB81     		strh	r3, [r7, #12]	@ movhi
 1020 0032 05E0     		b	.L52
 1021              	.L51:
 816:.\Generated_Source\PSoC5/USBUART_1.c ****             }
 817:.\Generated_Source\PSoC5/USBUART_1.c ****             else
 818:.\Generated_Source\PSoC5/USBUART_1.c ****             {   /* for the OUT EP source is the SIE register */
 819:.\Generated_Source\PSoC5/USBUART_1.c ****                 src = HI16(CYDEV_PERIPH_BASE);
 1022              		.loc 1 819 0
 1023 0034 4FF48043 		mov	r3, #16384
 1024 0038 FB81     		strh	r3, [r7, #14]	@ movhi
 820:.\Generated_Source\PSoC5/USBUART_1.c ****                 dst = HI16(pData);
 1025              		.loc 1 820 0
 1026 003a 3B68     		ldr	r3, [r7]
 1027 003c 1B0C     		lsrs	r3, r3, #16
 1028 003e BB81     		strh	r3, [r7, #12]	@ movhi
 1029              	.L52:
 821:.\Generated_Source\PSoC5/USBUART_1.c ****             }
 822:.\Generated_Source\PSoC5/USBUART_1.c ****         #endif  /*  C51 */
 823:.\Generated_Source\PSoC5/USBUART_1.c ****         switch(epNumber)
 1030              		.loc 1 823 0
 1031 0040 FB79     		ldrb	r3, [r7, #7]	@ zero_extendqisi2
 1032 0042 013B     		subs	r3, r3, #1
 1033 0044 072B     		cmp	r3, #7
 1034 0046 37D8     		bhi	.L65
 1035 0048 01A2     		adr	r2, .L55
 1036 004a 52F823F0 		ldr	pc, [r2, r3, lsl #2]
 1037 004e 00BF     		.p2align 2
 1038              	.L55:
 1039 0050 71000000 		.word	.L54+1
 1040 0054 89000000 		.word	.L56+1
 1041 0058 A1000000 		.word	.L57+1
 1042 005c B9000000 		.word	.L65+1
 1043 0060 B9000000 		.word	.L65+1
 1044 0064 B9000000 		.word	.L65+1
 1045 0068 B9000000 		.word	.L65+1
 1046 006c B9000000 		.word	.L65+1
 1047              		.p2align 1
 1048              	.L54:
 824:.\Generated_Source\PSoC5/USBUART_1.c ****         {
 825:.\Generated_Source\PSoC5/USBUART_1.c ****             case USBUART_1_EP1:
 826:.\Generated_Source\PSoC5/USBUART_1.c ****                 #if(USBUART_1_DMA1_REMOVE == 0u)
 827:.\Generated_Source\PSoC5/USBUART_1.c ****                     USBUART_1_DmaChan[epNumber] = USBUART_1_ep1_DmaInitialize(
 1049              		.loc 1 827 0
 1050 0070 FC79     		ldrb	r4, [r7, #7]	@ zero_extendqisi2
 1051 0072 FA89     		ldrh	r2, [r7, #14]
 1052 0074 BB89     		ldrh	r3, [r7, #12]
ARM GAS  C:\Users\pfautley\AppData\Local\Temp\ccTPF43f.s 			page 34


 1053 0076 0020     		movs	r0, #0
 1054 0078 0021     		movs	r1, #0
 1055 007a FFF7FEFF 		bl	USBUART_1_ep1_DmaInitialize
 1056 007e 0346     		mov	r3, r0
 1057 0080 1A46     		mov	r2, r3
 1058 0082 174B     		ldr	r3, .L66+4
 1059 0084 1A55     		strb	r2, [r3, r4]
 828:.\Generated_Source\PSoC5/USBUART_1.c ****                         USBUART_1_DMA_BYTES_PER_BURST, USBUART_1_DMA_REQUEST_PER_BURST, src, dst);
 829:.\Generated_Source\PSoC5/USBUART_1.c ****                 #endif   /*  USBUART_1_DMA1_REMOVE */
 830:.\Generated_Source\PSoC5/USBUART_1.c ****                 break;
 1060              		.loc 1 830 0
 1061 0086 18E0     		b	.L63
 1062              	.L56:
 831:.\Generated_Source\PSoC5/USBUART_1.c ****             case USBUART_1_EP2:
 832:.\Generated_Source\PSoC5/USBUART_1.c ****                 #if(USBUART_1_DMA2_REMOVE == 0u)
 833:.\Generated_Source\PSoC5/USBUART_1.c ****                     USBUART_1_DmaChan[epNumber] = USBUART_1_ep2_DmaInitialize(
 1063              		.loc 1 833 0
 1064 0088 FC79     		ldrb	r4, [r7, #7]	@ zero_extendqisi2
 1065 008a FA89     		ldrh	r2, [r7, #14]
 1066 008c BB89     		ldrh	r3, [r7, #12]
 1067 008e 0020     		movs	r0, #0
 1068 0090 0021     		movs	r1, #0
 1069 0092 FFF7FEFF 		bl	USBUART_1_ep2_DmaInitialize
 1070 0096 0346     		mov	r3, r0
 1071 0098 1A46     		mov	r2, r3
 1072 009a 114B     		ldr	r3, .L66+4
 1073 009c 1A55     		strb	r2, [r3, r4]
 834:.\Generated_Source\PSoC5/USBUART_1.c ****                         USBUART_1_DMA_BYTES_PER_BURST, USBUART_1_DMA_REQUEST_PER_BURST, src, dst);
 835:.\Generated_Source\PSoC5/USBUART_1.c ****                 #endif   /*  USBUART_1_DMA2_REMOVE */
 836:.\Generated_Source\PSoC5/USBUART_1.c ****                 break;
 1074              		.loc 1 836 0
 1075 009e 0CE0     		b	.L63
 1076              	.L57:
 837:.\Generated_Source\PSoC5/USBUART_1.c ****             case USBUART_1_EP3:
 838:.\Generated_Source\PSoC5/USBUART_1.c ****                 #if(USBUART_1_DMA3_REMOVE == 0u)
 839:.\Generated_Source\PSoC5/USBUART_1.c ****                     USBUART_1_DmaChan[epNumber] = USBUART_1_ep3_DmaInitialize(
 1077              		.loc 1 839 0
 1078 00a0 FC79     		ldrb	r4, [r7, #7]	@ zero_extendqisi2
 1079 00a2 FA89     		ldrh	r2, [r7, #14]
 1080 00a4 BB89     		ldrh	r3, [r7, #12]
 1081 00a6 0020     		movs	r0, #0
 1082 00a8 0021     		movs	r1, #0
 1083 00aa FFF7FEFF 		bl	USBUART_1_ep3_DmaInitialize
 1084 00ae 0346     		mov	r3, r0
 1085 00b0 1A46     		mov	r2, r3
 1086 00b2 0B4B     		ldr	r3, .L66+4
 1087 00b4 1A55     		strb	r2, [r3, r4]
 840:.\Generated_Source\PSoC5/USBUART_1.c ****                         USBUART_1_DMA_BYTES_PER_BURST, USBUART_1_DMA_REQUEST_PER_BURST, src, dst);
 841:.\Generated_Source\PSoC5/USBUART_1.c ****                 #endif   /*  USBUART_1_DMA3_REMOVE */
 842:.\Generated_Source\PSoC5/USBUART_1.c ****                 break;
 1088              		.loc 1 842 0
 1089 00b6 00E0     		b	.L63
 1090              	.L65:
 843:.\Generated_Source\PSoC5/USBUART_1.c ****             case USBUART_1_EP4:
 844:.\Generated_Source\PSoC5/USBUART_1.c ****                 #if(USBUART_1_DMA4_REMOVE == 0u)
 845:.\Generated_Source\PSoC5/USBUART_1.c ****                     USBUART_1_DmaChan[epNumber] = USBUART_1_ep4_DmaInitialize(
 846:.\Generated_Source\PSoC5/USBUART_1.c ****                         USBUART_1_DMA_BYTES_PER_BURST, USBUART_1_DMA_REQUEST_PER_BURST, src, dst);
ARM GAS  C:\Users\pfautley\AppData\Local\Temp\ccTPF43f.s 			page 35


 847:.\Generated_Source\PSoC5/USBUART_1.c ****                 #endif   /*  USBUART_1_DMA4_REMOVE */
 848:.\Generated_Source\PSoC5/USBUART_1.c ****                 break;
 849:.\Generated_Source\PSoC5/USBUART_1.c ****             case USBUART_1_EP5:
 850:.\Generated_Source\PSoC5/USBUART_1.c ****                 #if(USBUART_1_DMA5_REMOVE == 0u)
 851:.\Generated_Source\PSoC5/USBUART_1.c ****                     USBUART_1_DmaChan[epNumber] = USBUART_1_ep5_DmaInitialize(
 852:.\Generated_Source\PSoC5/USBUART_1.c ****                         USBUART_1_DMA_BYTES_PER_BURST, USBUART_1_DMA_REQUEST_PER_BURST, src, dst);
 853:.\Generated_Source\PSoC5/USBUART_1.c ****                 #endif   /*  USBUART_1_DMA5_REMOVE */
 854:.\Generated_Source\PSoC5/USBUART_1.c ****                 break;
 855:.\Generated_Source\PSoC5/USBUART_1.c ****             case USBUART_1_EP6:
 856:.\Generated_Source\PSoC5/USBUART_1.c ****                 #if(USBUART_1_DMA6_REMOVE == 0u)
 857:.\Generated_Source\PSoC5/USBUART_1.c ****                     USBUART_1_DmaChan[epNumber] = USBUART_1_ep6_DmaInitialize(
 858:.\Generated_Source\PSoC5/USBUART_1.c ****                         USBUART_1_DMA_BYTES_PER_BURST, USBUART_1_DMA_REQUEST_PER_BURST, src, dst);
 859:.\Generated_Source\PSoC5/USBUART_1.c ****                 #endif   /*  USBUART_1_DMA6_REMOVE */
 860:.\Generated_Source\PSoC5/USBUART_1.c ****                 break;
 861:.\Generated_Source\PSoC5/USBUART_1.c ****             case USBUART_1_EP7:
 862:.\Generated_Source\PSoC5/USBUART_1.c ****                 #if(USBUART_1_DMA7_REMOVE == 0u)
 863:.\Generated_Source\PSoC5/USBUART_1.c ****                     USBUART_1_DmaChan[epNumber] = USBUART_1_ep7_DmaInitialize(
 864:.\Generated_Source\PSoC5/USBUART_1.c ****                         USBUART_1_DMA_BYTES_PER_BURST, USBUART_1_DMA_REQUEST_PER_BURST, src, dst);
 865:.\Generated_Source\PSoC5/USBUART_1.c ****                 #endif   /*  USBUART_1_DMA7_REMOVE */
 866:.\Generated_Source\PSoC5/USBUART_1.c ****                 break;
 867:.\Generated_Source\PSoC5/USBUART_1.c ****             case USBUART_1_EP8:
 868:.\Generated_Source\PSoC5/USBUART_1.c ****                 #if(USBUART_1_DMA8_REMOVE == 0u)
 869:.\Generated_Source\PSoC5/USBUART_1.c ****                     USBUART_1_DmaChan[epNumber] = USBUART_1_ep8_DmaInitialize(
 870:.\Generated_Source\PSoC5/USBUART_1.c ****                         USBUART_1_DMA_BYTES_PER_BURST, USBUART_1_DMA_REQUEST_PER_BURST, src, dst);
 871:.\Generated_Source\PSoC5/USBUART_1.c ****                 #endif   /*  USBUART_1_DMA8_REMOVE */
 872:.\Generated_Source\PSoC5/USBUART_1.c ****                 break;
 873:.\Generated_Source\PSoC5/USBUART_1.c ****             default:
 874:.\Generated_Source\PSoC5/USBUART_1.c ****                 /* Do not support EP0 DMA transfers */
 875:.\Generated_Source\PSoC5/USBUART_1.c ****                 break;
 1091              		.loc 1 875 0
 1092 00b8 00BF     		nop
 1093              	.L63:
 876:.\Generated_Source\PSoC5/USBUART_1.c ****         }
 877:.\Generated_Source\PSoC5/USBUART_1.c ****         if((epNumber > USBUART_1_EP0) && (epNumber < USBUART_1_MAX_EP))
 1094              		.loc 1 877 0
 1095 00ba FB79     		ldrb	r3, [r7, #7]	@ zero_extendqisi2
 1096 00bc 002B     		cmp	r3, #0
 1097 00be 09D0     		beq	.L50
 1098              		.loc 1 877 0 is_stmt 0 discriminator 1
 1099 00c0 FB79     		ldrb	r3, [r7, #7]	@ zero_extendqisi2
 1100 00c2 082B     		cmp	r3, #8
 1101 00c4 06D8     		bhi	.L50
 878:.\Generated_Source\PSoC5/USBUART_1.c ****         {
 879:.\Generated_Source\PSoC5/USBUART_1.c ****             USBUART_1_DmaTd[epNumber] = CyDmaTdAllocate();
 1102              		.loc 1 879 0 is_stmt 1
 1103 00c6 FC79     		ldrb	r4, [r7, #7]	@ zero_extendqisi2
 1104 00c8 FFF7FEFF 		bl	CyDmaTdAllocate
 1105 00cc 0346     		mov	r3, r0
 1106 00ce 1A46     		mov	r2, r3
 1107 00d0 044B     		ldr	r3, .L66+8
 1108 00d2 1A55     		strb	r2, [r3, r4]
 1109              	.L50:
 880:.\Generated_Source\PSoC5/USBUART_1.c ****             #if ((USBUART_1_EP_MM == USBUART_1__EP_DMAAUTO) && (USBUART_1_EP_DMA_AUTO_OPT == 0u))
 881:.\Generated_Source\PSoC5/USBUART_1.c ****                 USBUART_1_DmaNextTd[epNumber] = CyDmaTdAllocate();
 882:.\Generated_Source\PSoC5/USBUART_1.c ****             #endif /*  ((USBUART_1_EP_MM == USBUART_1__EP_DMAAUTO) && (USBUART_1_EP_DMA_AUTO_OPT ==
 883:.\Generated_Source\PSoC5/USBUART_1.c **** 
 884:.\Generated_Source\PSoC5/USBUART_1.c ****         }
ARM GAS  C:\Users\pfautley\AppData\Local\Temp\ccTPF43f.s 			page 36


 885:.\Generated_Source\PSoC5/USBUART_1.c ****     }
 1110              		.loc 1 885 0
 1111 00d4 1437     		adds	r7, r7, #20
 1112 00d6 BD46     		mov	sp, r7
 1113              		@ sp needed
 1114 00d8 90BD     		pop	{r4, r7, pc}
 1115              	.L67:
 1116 00da 00BF     		.align	2
 1117              	.L66:
 1118 00dc 00000000 		.word	USBUART_1_EP
 1119 00e0 00000000 		.word	USBUART_1_DmaChan
 1120 00e4 00000000 		.word	USBUART_1_DmaTd
 1121              		.cfi_endproc
 1122              	.LFE11:
 1123              		.size	USBUART_1_InitEP_DMA, .-USBUART_1_InitEP_DMA
 1124              		.section	.text.USBUART_1_Stop_DMA,"ax",%progbits
 1125              		.align	2
 1126              		.global	USBUART_1_Stop_DMA
 1127              		.thumb
 1128              		.thumb_func
 1129              		.type	USBUART_1_Stop_DMA, %function
 1130              	USBUART_1_Stop_DMA:
 1131              	.LFB12:
 886:.\Generated_Source\PSoC5/USBUART_1.c **** 
 887:.\Generated_Source\PSoC5/USBUART_1.c **** 
 888:.\Generated_Source\PSoC5/USBUART_1.c ****     /*******************************************************************************
 889:.\Generated_Source\PSoC5/USBUART_1.c ****     * Function Name: USBUART_1_Stop_DMA
 890:.\Generated_Source\PSoC5/USBUART_1.c ****     ********************************************************************************
 891:.\Generated_Source\PSoC5/USBUART_1.c ****     *
 892:.\Generated_Source\PSoC5/USBUART_1.c ****     * Summary: Stops and free DMA
 893:.\Generated_Source\PSoC5/USBUART_1.c ****     *
 894:.\Generated_Source\PSoC5/USBUART_1.c ****     * Parameters:
 895:.\Generated_Source\PSoC5/USBUART_1.c ****     *  epNumber: Contains the data endpoint number or
 896:.\Generated_Source\PSoC5/USBUART_1.c ****     *           USBUART_1_MAX_EP to stop all DMAs
 897:.\Generated_Source\PSoC5/USBUART_1.c ****     *
 898:.\Generated_Source\PSoC5/USBUART_1.c ****     * Return:
 899:.\Generated_Source\PSoC5/USBUART_1.c ****     *  None.
 900:.\Generated_Source\PSoC5/USBUART_1.c ****     *
 901:.\Generated_Source\PSoC5/USBUART_1.c ****     * Reentrant:
 902:.\Generated_Source\PSoC5/USBUART_1.c ****     *  No.
 903:.\Generated_Source\PSoC5/USBUART_1.c ****     *
 904:.\Generated_Source\PSoC5/USBUART_1.c ****     *******************************************************************************/
 905:.\Generated_Source\PSoC5/USBUART_1.c ****     void USBUART_1_Stop_DMA(uint8 epNumber) 
 906:.\Generated_Source\PSoC5/USBUART_1.c ****     {
 1132              		.loc 1 906 0
 1133              		.cfi_startproc
 1134              		@ args = 0, pretend = 0, frame = 16
 1135              		@ frame_needed = 1, uses_anonymous_args = 0
 1136 0000 80B5     		push	{r7, lr}
 1137              		.cfi_def_cfa_offset 8
 1138              		.cfi_offset 7, -8
 1139              		.cfi_offset 14, -4
 1140 0002 84B0     		sub	sp, sp, #16
 1141              		.cfi_def_cfa_offset 24
 1142 0004 00AF     		add	r7, sp, #0
 1143              		.cfi_def_cfa_register 7
 1144 0006 0346     		mov	r3, r0
ARM GAS  C:\Users\pfautley\AppData\Local\Temp\ccTPF43f.s 			page 37


 1145 0008 FB71     		strb	r3, [r7, #7]
 907:.\Generated_Source\PSoC5/USBUART_1.c ****         uint8 i;
 908:.\Generated_Source\PSoC5/USBUART_1.c ****         i = (epNumber < USBUART_1_MAX_EP) ? epNumber : USBUART_1_EP1;
 1146              		.loc 1 908 0
 1147 000a FB79     		ldrb	r3, [r7, #7]	@ zero_extendqisi2
 1148 000c 082B     		cmp	r3, #8
 1149 000e 01D8     		bhi	.L69
 1150              		.loc 1 908 0 is_stmt 0 discriminator 1
 1151 0010 FB79     		ldrb	r3, [r7, #7]	@ zero_extendqisi2
 1152 0012 00E0     		b	.L70
 1153              	.L69:
 1154              		.loc 1 908 0 discriminator 2
 1155 0014 0123     		movs	r3, #1
 1156              	.L70:
 1157              		.loc 1 908 0 discriminator 3
 1158 0016 FB73     		strb	r3, [r7, #15]
 1159              	.L73:
 909:.\Generated_Source\PSoC5/USBUART_1.c ****         do
 910:.\Generated_Source\PSoC5/USBUART_1.c ****         {
 911:.\Generated_Source\PSoC5/USBUART_1.c ****             if(USBUART_1_DmaTd[i] != DMA_INVALID_TD)
 1160              		.loc 1 911 0 is_stmt 1
 1161 0018 FB7B     		ldrb	r3, [r7, #15]	@ zero_extendqisi2
 1162 001a 104A     		ldr	r2, .L74
 1163 001c D35C     		ldrb	r3, [r2, r3]	@ zero_extendqisi2
 1164 001e FF2B     		cmp	r3, #255
 1165 0020 0FD0     		beq	.L71
 912:.\Generated_Source\PSoC5/USBUART_1.c ****             {
 913:.\Generated_Source\PSoC5/USBUART_1.c ****                 (void) CyDmaChDisable(USBUART_1_DmaChan[i]);
 1166              		.loc 1 913 0
 1167 0022 FB7B     		ldrb	r3, [r7, #15]	@ zero_extendqisi2
 1168 0024 0E4A     		ldr	r2, .L74+4
 1169 0026 D35C     		ldrb	r3, [r2, r3]	@ zero_extendqisi2
 1170 0028 1846     		mov	r0, r3
 1171 002a FFF7FEFF 		bl	CyDmaChDisable
 914:.\Generated_Source\PSoC5/USBUART_1.c ****                 CyDmaTdFree(USBUART_1_DmaTd[i]);
 1172              		.loc 1 914 0
 1173 002e FB7B     		ldrb	r3, [r7, #15]	@ zero_extendqisi2
 1174 0030 0A4A     		ldr	r2, .L74
 1175 0032 D35C     		ldrb	r3, [r2, r3]	@ zero_extendqisi2
 1176 0034 1846     		mov	r0, r3
 1177 0036 FFF7FEFF 		bl	CyDmaTdFree
 915:.\Generated_Source\PSoC5/USBUART_1.c ****                 USBUART_1_DmaTd[i] = DMA_INVALID_TD;
 1178              		.loc 1 915 0
 1179 003a FB7B     		ldrb	r3, [r7, #15]	@ zero_extendqisi2
 1180 003c 074A     		ldr	r2, .L74
 1181 003e FF21     		movs	r1, #255
 1182 0040 D154     		strb	r1, [r2, r3]
 1183              	.L71:
 916:.\Generated_Source\PSoC5/USBUART_1.c ****             }
 917:.\Generated_Source\PSoC5/USBUART_1.c ****             #if ((USBUART_1_EP_MM == USBUART_1__EP_DMAAUTO) && (USBUART_1_EP_DMA_AUTO_OPT == 0u))
 918:.\Generated_Source\PSoC5/USBUART_1.c ****                 if(USBUART_1_DmaNextTd[i] != DMA_INVALID_TD)
 919:.\Generated_Source\PSoC5/USBUART_1.c ****                 {
 920:.\Generated_Source\PSoC5/USBUART_1.c ****                     CyDmaTdFree(USBUART_1_DmaNextTd[i]);
 921:.\Generated_Source\PSoC5/USBUART_1.c ****                     USBUART_1_DmaNextTd[i] = DMA_INVALID_TD;
 922:.\Generated_Source\PSoC5/USBUART_1.c ****                 }
 923:.\Generated_Source\PSoC5/USBUART_1.c ****             #endif /* ((USBUART_1_EP_MM == USBUART_1__EP_DMAAUTO) && (USBUART_1_EP_DMA_AUTO_OPT == 
 924:.\Generated_Source\PSoC5/USBUART_1.c ****             i++;
ARM GAS  C:\Users\pfautley\AppData\Local\Temp\ccTPF43f.s 			page 38


 1184              		.loc 1 924 0
 1185 0042 FB7B     		ldrb	r3, [r7, #15]	@ zero_extendqisi2
 1186 0044 0133     		adds	r3, r3, #1
 1187 0046 FB73     		strb	r3, [r7, #15]
 925:.\Generated_Source\PSoC5/USBUART_1.c ****         }while((i < USBUART_1_MAX_EP) && (epNumber == USBUART_1_MAX_EP));
 1188              		.loc 1 925 0
 1189 0048 FB7B     		ldrb	r3, [r7, #15]	@ zero_extendqisi2
 1190 004a 082B     		cmp	r3, #8
 1191 004c 02D8     		bhi	.L68
 1192              		.loc 1 925 0 is_stmt 0 discriminator 1
 1193 004e FB79     		ldrb	r3, [r7, #7]	@ zero_extendqisi2
 1194 0050 092B     		cmp	r3, #9
 1195 0052 E1D0     		beq	.L73
 1196              	.L68:
 926:.\Generated_Source\PSoC5/USBUART_1.c ****     }
 1197              		.loc 1 926 0 is_stmt 1
 1198 0054 1037     		adds	r7, r7, #16
 1199 0056 BD46     		mov	sp, r7
 1200              		@ sp needed
 1201 0058 80BD     		pop	{r7, pc}
 1202              	.L75:
 1203 005a 00BF     		.align	2
 1204              	.L74:
 1205 005c 00000000 		.word	USBUART_1_DmaTd
 1206 0060 00000000 		.word	USBUART_1_DmaChan
 1207              		.cfi_endproc
 1208              	.LFE12:
 1209              		.size	USBUART_1_Stop_DMA, .-USBUART_1_Stop_DMA
 1210              		.section	.text.USBUART_1_LoadInEP,"ax",%progbits
 1211              		.align	2
 1212              		.global	USBUART_1_LoadInEP
 1213              		.thumb
 1214              		.thumb_func
 1215              		.type	USBUART_1_LoadInEP, %function
 1216              	USBUART_1_LoadInEP:
 1217              	.LFB13:
 927:.\Generated_Source\PSoC5/USBUART_1.c **** 
 928:.\Generated_Source\PSoC5/USBUART_1.c **** #endif /*  USBUART_1_EP_MM != USBUART_1__EP_MANUAL */
 929:.\Generated_Source\PSoC5/USBUART_1.c **** 
 930:.\Generated_Source\PSoC5/USBUART_1.c **** 
 931:.\Generated_Source\PSoC5/USBUART_1.c **** #if ((USBUART_1_EP_MM == USBUART_1__EP_DMAAUTO) && (USBUART_1_EP_DMA_AUTO_OPT == 0u))
 932:.\Generated_Source\PSoC5/USBUART_1.c **** 
 933:.\Generated_Source\PSoC5/USBUART_1.c **** 
 934:.\Generated_Source\PSoC5/USBUART_1.c ****     /*******************************************************************************
 935:.\Generated_Source\PSoC5/USBUART_1.c ****     * Function Name: USBUART_1_LoadNextInEP
 936:.\Generated_Source\PSoC5/USBUART_1.c ****     ********************************************************************************
 937:.\Generated_Source\PSoC5/USBUART_1.c ****     *
 938:.\Generated_Source\PSoC5/USBUART_1.c ****     * Summary:
 939:.\Generated_Source\PSoC5/USBUART_1.c ****     *  This internal function is used for IN endpoint DMA reconfiguration in
 940:.\Generated_Source\PSoC5/USBUART_1.c ****     *  Auto DMA mode.
 941:.\Generated_Source\PSoC5/USBUART_1.c ****     *
 942:.\Generated_Source\PSoC5/USBUART_1.c ****     * Parameters:
 943:.\Generated_Source\PSoC5/USBUART_1.c ****     *  epNumber: Contains the data endpoint number.
 944:.\Generated_Source\PSoC5/USBUART_1.c ****     *  mode:   0 - Configure DMA to send the the rest of data.
 945:.\Generated_Source\PSoC5/USBUART_1.c ****     *          1 - Configure DMA to repeat 2 last bytes of the first burst.
 946:.\Generated_Source\PSoC5/USBUART_1.c ****     *
 947:.\Generated_Source\PSoC5/USBUART_1.c ****     * Return:
ARM GAS  C:\Users\pfautley\AppData\Local\Temp\ccTPF43f.s 			page 39


 948:.\Generated_Source\PSoC5/USBUART_1.c ****     *  None.
 949:.\Generated_Source\PSoC5/USBUART_1.c ****     *
 950:.\Generated_Source\PSoC5/USBUART_1.c ****     *******************************************************************************/
 951:.\Generated_Source\PSoC5/USBUART_1.c ****     void USBUART_1_LoadNextInEP(uint8 epNumber, uint8 mode) 
 952:.\Generated_Source\PSoC5/USBUART_1.c ****     {
 953:.\Generated_Source\PSoC5/USBUART_1.c ****         reg16 *convert;
 954:.\Generated_Source\PSoC5/USBUART_1.c **** 
 955:.\Generated_Source\PSoC5/USBUART_1.c ****         if(mode == 0u)
 956:.\Generated_Source\PSoC5/USBUART_1.c ****         {
 957:.\Generated_Source\PSoC5/USBUART_1.c ****             /* Configure DMA to send the the rest of data */
 958:.\Generated_Source\PSoC5/USBUART_1.c ****             /* CyDmaTdSetConfiguration API is optimised to change only transfer length and configur
 959:.\Generated_Source\PSoC5/USBUART_1.c ****             convert = (reg16 *) &CY_DMA_TDMEM_STRUCT_PTR[USBUART_1_DmaTd[epNumber]].TD0[0u];
 960:.\Generated_Source\PSoC5/USBUART_1.c ****             /* Set transfer length */
 961:.\Generated_Source\PSoC5/USBUART_1.c ****             CY_SET_REG16(convert, USBUART_1_inLength[epNumber] - USBUART_1_DMA_BYTES_PER_BURST);
 962:.\Generated_Source\PSoC5/USBUART_1.c ****             /* CyDmaTdSetAddress API is optimized to change only source address */
 963:.\Generated_Source\PSoC5/USBUART_1.c ****             convert = (reg16 *) &CY_DMA_TDMEM_STRUCT_PTR[USBUART_1_DmaTd[epNumber]].TD1[0u];
 964:.\Generated_Source\PSoC5/USBUART_1.c ****             CY_SET_REG16(convert, LO16((uint32)USBUART_1_inDataPointer[epNumber] +
 965:.\Generated_Source\PSoC5/USBUART_1.c ****                                             USBUART_1_DMA_BYTES_PER_BURST));
 966:.\Generated_Source\PSoC5/USBUART_1.c ****             USBUART_1_inBufFull[epNumber] = 1u;
 967:.\Generated_Source\PSoC5/USBUART_1.c ****         }
 968:.\Generated_Source\PSoC5/USBUART_1.c ****         else
 969:.\Generated_Source\PSoC5/USBUART_1.c ****         {
 970:.\Generated_Source\PSoC5/USBUART_1.c ****             /* Configure DMA to repeat 2 last bytes of the first burst. */
 971:.\Generated_Source\PSoC5/USBUART_1.c ****             /* CyDmaTdSetConfiguration API is optimised to change only transfer length and configur
 972:.\Generated_Source\PSoC5/USBUART_1.c ****             convert = (reg16 *) &CY_DMA_TDMEM_STRUCT_PTR[USBUART_1_DmaTd[epNumber]].TD0[0u];
 973:.\Generated_Source\PSoC5/USBUART_1.c ****             /* Set transfer length */
 974:.\Generated_Source\PSoC5/USBUART_1.c ****             CY_SET_REG16(convert, USBUART_1_DMA_BYTES_REPEAT);
 975:.\Generated_Source\PSoC5/USBUART_1.c ****             /* CyDmaTdSetAddress API is optimized to change only source address */
 976:.\Generated_Source\PSoC5/USBUART_1.c ****             convert = (reg16 *) &CY_DMA_TDMEM_STRUCT_PTR[USBUART_1_DmaTd[epNumber]].TD1[0u];
 977:.\Generated_Source\PSoC5/USBUART_1.c ****             CY_SET_REG16(convert,  LO16((uint32)USBUART_1_inDataPointer[epNumber] +
 978:.\Generated_Source\PSoC5/USBUART_1.c ****                                    USBUART_1_DMA_BYTES_PER_BURST - USBUART_1_DMA_BYTES_REPEAT));
 979:.\Generated_Source\PSoC5/USBUART_1.c ****         }
 980:.\Generated_Source\PSoC5/USBUART_1.c **** 
 981:.\Generated_Source\PSoC5/USBUART_1.c ****         /* CyDmaChSetInitialTd API is optimised to init TD */
 982:.\Generated_Source\PSoC5/USBUART_1.c ****         CY_DMA_CH_STRUCT_PTR[USBUART_1_DmaChan[epNumber]].basic_status[1u] = USBUART_1_DmaTd[epNumb
 983:.\Generated_Source\PSoC5/USBUART_1.c ****     }
 984:.\Generated_Source\PSoC5/USBUART_1.c **** #endif /* ((USBUART_1_EP_MM == USBUART_1__EP_DMAAUTO) && (USBUART_1_EP_DMA_AUTO_OPT == 0u)) */
 985:.\Generated_Source\PSoC5/USBUART_1.c **** 
 986:.\Generated_Source\PSoC5/USBUART_1.c **** 
 987:.\Generated_Source\PSoC5/USBUART_1.c **** /*******************************************************************************
 988:.\Generated_Source\PSoC5/USBUART_1.c **** * Function Name: USBUART_1_LoadInEP
 989:.\Generated_Source\PSoC5/USBUART_1.c **** ********************************************************************************
 990:.\Generated_Source\PSoC5/USBUART_1.c **** *
 991:.\Generated_Source\PSoC5/USBUART_1.c **** * Summary:
 992:.\Generated_Source\PSoC5/USBUART_1.c **** *  Loads and enables the specified USB data endpoint for an IN transfer.
 993:.\Generated_Source\PSoC5/USBUART_1.c **** *
 994:.\Generated_Source\PSoC5/USBUART_1.c **** * Parameters:
 995:.\Generated_Source\PSoC5/USBUART_1.c **** *  epNumber: Contains the data endpoint number.
 996:.\Generated_Source\PSoC5/USBUART_1.c **** *            Valid values are between 1 and 8.
 997:.\Generated_Source\PSoC5/USBUART_1.c **** *  *pData: A pointer to a data array from which the data for the endpoint space
 998:.\Generated_Source\PSoC5/USBUART_1.c **** *          is loaded.
 999:.\Generated_Source\PSoC5/USBUART_1.c **** *  length: The number of bytes to transfer from the array and then send as a
1000:.\Generated_Source\PSoC5/USBUART_1.c **** *          result of an IN request. Valid values are between 0 and 512.
1001:.\Generated_Source\PSoC5/USBUART_1.c **** *
1002:.\Generated_Source\PSoC5/USBUART_1.c **** * Return:
1003:.\Generated_Source\PSoC5/USBUART_1.c **** *  None.
1004:.\Generated_Source\PSoC5/USBUART_1.c **** *
ARM GAS  C:\Users\pfautley\AppData\Local\Temp\ccTPF43f.s 			page 40


1005:.\Generated_Source\PSoC5/USBUART_1.c **** * Reentrant:
1006:.\Generated_Source\PSoC5/USBUART_1.c **** *  No.
1007:.\Generated_Source\PSoC5/USBUART_1.c **** *
1008:.\Generated_Source\PSoC5/USBUART_1.c **** *******************************************************************************/
1009:.\Generated_Source\PSoC5/USBUART_1.c **** void USBUART_1_LoadInEP(uint8 epNumber, const uint8 pData[], uint16 length)
1010:.\Generated_Source\PSoC5/USBUART_1.c ****                                                                         
1011:.\Generated_Source\PSoC5/USBUART_1.c **** {
 1218              		.loc 1 1011 0
 1219              		.cfi_startproc
 1220              		@ args = 0, pretend = 0, frame = 16
 1221              		@ frame_needed = 1, uses_anonymous_args = 0
 1222 0000 90B5     		push	{r4, r7, lr}
 1223              		.cfi_def_cfa_offset 12
 1224              		.cfi_offset 4, -12
 1225              		.cfi_offset 7, -8
 1226              		.cfi_offset 14, -4
 1227 0002 85B0     		sub	sp, sp, #20
 1228              		.cfi_def_cfa_offset 32
 1229 0004 00AF     		add	r7, sp, #0
 1230              		.cfi_def_cfa_register 7
 1231 0006 3960     		str	r1, [r7]
 1232 0008 1346     		mov	r3, r2
 1233 000a 0246     		mov	r2, r0
 1234 000c FA71     		strb	r2, [r7, #7]
 1235 000e BB80     		strh	r3, [r7, #4]	@ movhi
1012:.\Generated_Source\PSoC5/USBUART_1.c ****     uint8 ri;
1013:.\Generated_Source\PSoC5/USBUART_1.c ****     reg8 *p;
1014:.\Generated_Source\PSoC5/USBUART_1.c ****     #if(USBUART_1_EP_MM == USBUART_1__EP_MANUAL)
1015:.\Generated_Source\PSoC5/USBUART_1.c ****         uint16 i;
1016:.\Generated_Source\PSoC5/USBUART_1.c ****     #endif /*  USBUART_1_EP_MM == USBUART_1__EP_MANUAL */
1017:.\Generated_Source\PSoC5/USBUART_1.c **** 
1018:.\Generated_Source\PSoC5/USBUART_1.c ****     if((epNumber > USBUART_1_EP0) && (epNumber < USBUART_1_MAX_EP))
 1236              		.loc 1 1018 0
 1237 0010 FB79     		ldrb	r3, [r7, #7]	@ zero_extendqisi2
 1238 0012 002B     		cmp	r3, #0
 1239 0014 00F0B880 		beq	.L76
 1240              		.loc 1 1018 0 is_stmt 0 discriminator 1
 1241 0018 FB79     		ldrb	r3, [r7, #7]	@ zero_extendqisi2
 1242 001a 082B     		cmp	r3, #8
 1243 001c 00F2B480 		bhi	.L76
1019:.\Generated_Source\PSoC5/USBUART_1.c ****     {
1020:.\Generated_Source\PSoC5/USBUART_1.c ****         ri = ((epNumber - USBUART_1_EP1) << USBUART_1_EPX_CNTX_ADDR_SHIFT);
 1244              		.loc 1 1020 0 is_stmt 1
 1245 0020 FB79     		ldrb	r3, [r7, #7]
 1246 0022 013B     		subs	r3, r3, #1
 1247 0024 DBB2     		uxtb	r3, r3
 1248 0026 1B01     		lsls	r3, r3, #4
 1249 0028 FB73     		strb	r3, [r7, #15]
1021:.\Generated_Source\PSoC5/USBUART_1.c ****         p = (reg8 *)(USBUART_1_ARB_RW1_DR_IND + ri);
 1250              		.loc 1 1021 0
 1251 002a FA7B     		ldrb	r2, [r7, #15]	@ zero_extendqisi2
 1252 002c 584B     		ldr	r3, .L81
 1253 002e 1344     		add	r3, r3, r2
 1254 0030 BB60     		str	r3, [r7, #8]
1022:.\Generated_Source\PSoC5/USBUART_1.c **** 
1023:.\Generated_Source\PSoC5/USBUART_1.c ****         #if(USBUART_1_EP_MM != USBUART_1__EP_DMAAUTO)
1024:.\Generated_Source\PSoC5/USBUART_1.c ****             /* Limits length to available buffer space, auto MM could send packets up to 1024 bytes
ARM GAS  C:\Users\pfautley\AppData\Local\Temp\ccTPF43f.s 			page 41


1025:.\Generated_Source\PSoC5/USBUART_1.c ****             if(length > (USBUART_1_EPX_DATA_BUF_MAX - USBUART_1_EP[epNumber].buffOffset))
 1255              		.loc 1 1025 0
 1256 0032 B988     		ldrh	r1, [r7, #4]
 1257 0034 FA79     		ldrb	r2, [r7, #7]	@ zero_extendqisi2
 1258 0036 5748     		ldr	r0, .L81+4
 1259 0038 1346     		mov	r3, r2
 1260 003a 5B00     		lsls	r3, r3, #1
 1261 003c 1344     		add	r3, r3, r2
 1262 003e 9B00     		lsls	r3, r3, #2
 1263 0040 0344     		add	r3, r3, r0
 1264 0042 DB88     		ldrh	r3, [r3, #6]	@ movhi
 1265 0044 9BB2     		uxth	r3, r3
 1266 0046 C3F50073 		rsb	r3, r3, #512
 1267 004a 9942     		cmp	r1, r3
 1268 004c 0BD9     		bls	.L78
1026:.\Generated_Source\PSoC5/USBUART_1.c ****             {
1027:.\Generated_Source\PSoC5/USBUART_1.c ****                 length = USBUART_1_EPX_DATA_BUF_MAX - USBUART_1_EP[epNumber].buffOffset;
 1269              		.loc 1 1027 0
 1270 004e FA79     		ldrb	r2, [r7, #7]	@ zero_extendqisi2
 1271 0050 5049     		ldr	r1, .L81+4
 1272 0052 1346     		mov	r3, r2
 1273 0054 5B00     		lsls	r3, r3, #1
 1274 0056 1344     		add	r3, r3, r2
 1275 0058 9B00     		lsls	r3, r3, #2
 1276 005a 0B44     		add	r3, r3, r1
 1277 005c DB88     		ldrh	r3, [r3, #6]	@ movhi
 1278 005e 9BB2     		uxth	r3, r3
 1279 0060 C3F50073 		rsb	r3, r3, #512
 1280 0064 BB80     		strh	r3, [r7, #4]	@ movhi
 1281              	.L78:
1028:.\Generated_Source\PSoC5/USBUART_1.c ****             }
1029:.\Generated_Source\PSoC5/USBUART_1.c ****         #endif /*  USBUART_1_EP_MM != USBUART_1__EP_DMAAUTO */
1030:.\Generated_Source\PSoC5/USBUART_1.c **** 
1031:.\Generated_Source\PSoC5/USBUART_1.c ****         /* Set the count and data toggle */
1032:.\Generated_Source\PSoC5/USBUART_1.c ****         CY_SET_REG8((reg8 *)(USBUART_1_SIE_EP1_CNT0_IND + ri),
 1282              		.loc 1 1032 0
 1283 0066 FA7B     		ldrb	r2, [r7, #15]	@ zero_extendqisi2
 1284 0068 4B4B     		ldr	r3, .L81+8
 1285 006a 1344     		add	r3, r3, r2
 1286 006c 1946     		mov	r1, r3
 1287 006e BB88     		ldrh	r3, [r7, #4]
 1288 0070 1B0A     		lsrs	r3, r3, #8
 1289 0072 9BB2     		uxth	r3, r3
 1290 0074 D8B2     		uxtb	r0, r3
 1291 0076 FA79     		ldrb	r2, [r7, #7]	@ zero_extendqisi2
 1292 0078 464C     		ldr	r4, .L81+4
 1293 007a 1346     		mov	r3, r2
 1294 007c 5B00     		lsls	r3, r3, #1
 1295 007e 1344     		add	r3, r3, r2
 1296 0080 9B00     		lsls	r3, r3, #2
 1297 0082 2344     		add	r3, r3, r4
 1298 0084 DB78     		ldrb	r3, [r3, #3]
 1299 0086 DBB2     		uxtb	r3, r3
 1300 0088 0343     		orrs	r3, r3, r0
 1301 008a DBB2     		uxtb	r3, r3
 1302 008c 0B70     		strb	r3, [r1]
1033:.\Generated_Source\PSoC5/USBUART_1.c ****                             (length >> 8u) | (USBUART_1_EP[epNumber].epToggle));
ARM GAS  C:\Users\pfautley\AppData\Local\Temp\ccTPF43f.s 			page 42


1034:.\Generated_Source\PSoC5/USBUART_1.c ****         CY_SET_REG8((reg8 *)(USBUART_1_SIE_EP1_CNT1_IND + ri),  length & 0xFFu);
 1303              		.loc 1 1034 0
 1304 008e FA7B     		ldrb	r2, [r7, #15]	@ zero_extendqisi2
 1305 0090 424B     		ldr	r3, .L81+12
 1306 0092 1344     		add	r3, r3, r2
 1307 0094 BA88     		ldrh	r2, [r7, #4]	@ movhi
 1308 0096 D2B2     		uxtb	r2, r2
 1309 0098 1A70     		strb	r2, [r3]
1035:.\Generated_Source\PSoC5/USBUART_1.c **** 
1036:.\Generated_Source\PSoC5/USBUART_1.c ****         #if(USBUART_1_EP_MM == USBUART_1__EP_MANUAL)
1037:.\Generated_Source\PSoC5/USBUART_1.c ****             if(pData != NULL)
1038:.\Generated_Source\PSoC5/USBUART_1.c ****             {
1039:.\Generated_Source\PSoC5/USBUART_1.c ****                 /* Copy the data using the arbiter data register */
1040:.\Generated_Source\PSoC5/USBUART_1.c ****                 for (i = 0u; i < length; i++)
1041:.\Generated_Source\PSoC5/USBUART_1.c ****                 {
1042:.\Generated_Source\PSoC5/USBUART_1.c ****                     CY_SET_REG8(p, pData[i]);
1043:.\Generated_Source\PSoC5/USBUART_1.c ****                 }
1044:.\Generated_Source\PSoC5/USBUART_1.c ****             }
1045:.\Generated_Source\PSoC5/USBUART_1.c ****             USBUART_1_EP[epNumber].apiEpState = USBUART_1_NO_EVENT_PENDING;
1046:.\Generated_Source\PSoC5/USBUART_1.c ****             /* Write the Mode register */
1047:.\Generated_Source\PSoC5/USBUART_1.c ****             CY_SET_REG8((reg8 *)(USBUART_1_SIE_EP1_CR0_IND + ri), USBUART_1_EP[epNumber].epMode);
1048:.\Generated_Source\PSoC5/USBUART_1.c ****         #else
1049:.\Generated_Source\PSoC5/USBUART_1.c ****             /* Init DMA if it was not initialized */
1050:.\Generated_Source\PSoC5/USBUART_1.c ****             if (USBUART_1_DmaTd[epNumber] == DMA_INVALID_TD)
 1310              		.loc 1 1050 0
 1311 009a FB79     		ldrb	r3, [r7, #7]	@ zero_extendqisi2
 1312 009c 404A     		ldr	r2, .L81+16
 1313 009e D35C     		ldrb	r3, [r2, r3]	@ zero_extendqisi2
 1314 00a0 FF2B     		cmp	r3, #255
 1315 00a2 04D1     		bne	.L79
1051:.\Generated_Source\PSoC5/USBUART_1.c ****             {
1052:.\Generated_Source\PSoC5/USBUART_1.c ****                 USBUART_1_InitEP_DMA(epNumber, pData);
 1316              		.loc 1 1052 0
 1317 00a4 FB79     		ldrb	r3, [r7, #7]	@ zero_extendqisi2
 1318 00a6 1846     		mov	r0, r3
 1319 00a8 3968     		ldr	r1, [r7]
 1320 00aa FFF7FEFF 		bl	USBUART_1_InitEP_DMA
 1321              	.L79:
1053:.\Generated_Source\PSoC5/USBUART_1.c ****             }
1054:.\Generated_Source\PSoC5/USBUART_1.c ****         #endif /*  USBUART_1_EP_MM == USBUART_1__EP_MANUAL */
1055:.\Generated_Source\PSoC5/USBUART_1.c **** 
1056:.\Generated_Source\PSoC5/USBUART_1.c ****         #if(USBUART_1_EP_MM == USBUART_1__EP_DMAMANUAL)
1057:.\Generated_Source\PSoC5/USBUART_1.c ****             USBUART_1_EP[epNumber].apiEpState = USBUART_1_NO_EVENT_PENDING;
 1322              		.loc 1 1057 0
 1323 00ae FA79     		ldrb	r2, [r7, #7]	@ zero_extendqisi2
 1324 00b0 3849     		ldr	r1, .L81+4
 1325 00b2 1346     		mov	r3, r2
 1326 00b4 5B00     		lsls	r3, r3, #1
 1327 00b6 1344     		add	r3, r3, r2
 1328 00b8 9B00     		lsls	r3, r3, #2
 1329 00ba 0B44     		add	r3, r3, r1
 1330 00bc 0022     		movs	r2, #0
 1331 00be 5A70     		strb	r2, [r3, #1]
1058:.\Generated_Source\PSoC5/USBUART_1.c ****             if ((pData != NULL) && (length > 0u))
 1332              		.loc 1 1058 0
 1333 00c0 3B68     		ldr	r3, [r7]
 1334 00c2 002B     		cmp	r3, #0
ARM GAS  C:\Users\pfautley\AppData\Local\Temp\ccTPF43f.s 			page 43


 1335 00c4 52D0     		beq	.L80
 1336              		.loc 1 1058 0 is_stmt 0 discriminator 1
 1337 00c6 BB88     		ldrh	r3, [r7, #4]
 1338 00c8 002B     		cmp	r3, #0
 1339 00ca 4FD0     		beq	.L80
1059:.\Generated_Source\PSoC5/USBUART_1.c ****             {
1060:.\Generated_Source\PSoC5/USBUART_1.c ****                 /* Enable DMA in mode2 for transferring data */
1061:.\Generated_Source\PSoC5/USBUART_1.c ****                 (void) CyDmaChDisable(USBUART_1_DmaChan[epNumber]);
 1340              		.loc 1 1061 0 is_stmt 1
 1341 00cc FB79     		ldrb	r3, [r7, #7]	@ zero_extendqisi2
 1342 00ce 354A     		ldr	r2, .L81+20
 1343 00d0 D35C     		ldrb	r3, [r2, r3]	@ zero_extendqisi2
 1344 00d2 1846     		mov	r0, r3
 1345 00d4 FFF7FEFF 		bl	CyDmaChDisable
1062:.\Generated_Source\PSoC5/USBUART_1.c ****                 (void) CyDmaTdSetConfiguration(USBUART_1_DmaTd[epNumber], length, CY_DMA_DISABLE_TD
 1346              		.loc 1 1062 0
 1347 00d8 FB79     		ldrb	r3, [r7, #7]	@ zero_extendqisi2
 1348 00da 314A     		ldr	r2, .L81+16
 1349 00dc D25C     		ldrb	r2, [r2, r3]	@ zero_extendqisi2
 1350 00de BB88     		ldrh	r3, [r7, #4]
 1351 00e0 1046     		mov	r0, r2
 1352 00e2 1946     		mov	r1, r3
 1353 00e4 FE22     		movs	r2, #254
 1354 00e6 1123     		movs	r3, #17
 1355 00e8 FFF7FEFF 		bl	CyDmaTdSetConfiguration
1063:.\Generated_Source\PSoC5/USBUART_1.c ****                                                                                  TD_TERMIN_EN | TD_
1064:.\Generated_Source\PSoC5/USBUART_1.c ****                 (void) CyDmaTdSetAddress(USBUART_1_DmaTd[epNumber],  LO16((uint32)pData), LO16((uin
 1356              		.loc 1 1064 0
 1357 00ec FB79     		ldrb	r3, [r7, #7]	@ zero_extendqisi2
 1358 00ee 2C4A     		ldr	r2, .L81+16
 1359 00f0 D15C     		ldrb	r1, [r2, r3]	@ zero_extendqisi2
 1360 00f2 3B68     		ldr	r3, [r7]
 1361 00f4 9AB2     		uxth	r2, r3
 1362 00f6 BB68     		ldr	r3, [r7, #8]
 1363 00f8 9BB2     		uxth	r3, r3
 1364 00fa 0846     		mov	r0, r1
 1365 00fc 1146     		mov	r1, r2
 1366 00fe 1A46     		mov	r2, r3
 1367 0100 FFF7FEFF 		bl	CyDmaTdSetAddress
1065:.\Generated_Source\PSoC5/USBUART_1.c ****                 /* Enable the DMA */
1066:.\Generated_Source\PSoC5/USBUART_1.c ****                 (void) CyDmaChSetInitialTd(USBUART_1_DmaChan[epNumber], USBUART_1_DmaTd[epNumber]);
 1368              		.loc 1 1066 0
 1369 0104 FB79     		ldrb	r3, [r7, #7]	@ zero_extendqisi2
 1370 0106 274A     		ldr	r2, .L81+20
 1371 0108 D25C     		ldrb	r2, [r2, r3]	@ zero_extendqisi2
 1372 010a FB79     		ldrb	r3, [r7, #7]	@ zero_extendqisi2
 1373 010c 2449     		ldr	r1, .L81+16
 1374 010e CB5C     		ldrb	r3, [r1, r3]	@ zero_extendqisi2
 1375 0110 1046     		mov	r0, r2
 1376 0112 1946     		mov	r1, r3
 1377 0114 FFF7FEFF 		bl	CyDmaChSetInitialTd
1067:.\Generated_Source\PSoC5/USBUART_1.c ****                 (void) CyDmaChEnable(USBUART_1_DmaChan[epNumber], 1u);
 1378              		.loc 1 1067 0
 1379 0118 FB79     		ldrb	r3, [r7, #7]	@ zero_extendqisi2
 1380 011a 224A     		ldr	r2, .L81+20
 1381 011c D35C     		ldrb	r3, [r2, r3]	@ zero_extendqisi2
 1382 011e 1846     		mov	r0, r3
ARM GAS  C:\Users\pfautley\AppData\Local\Temp\ccTPF43f.s 			page 44


 1383 0120 0121     		movs	r1, #1
 1384 0122 FFF7FEFF 		bl	CyDmaChEnable
1068:.\Generated_Source\PSoC5/USBUART_1.c ****                 /* Generate DMA request */
1069:.\Generated_Source\PSoC5/USBUART_1.c ****                 * (reg8 *)(USBUART_1_ARB_EP1_CFG_IND + ri) |= USBUART_1_ARB_EPX_CFG_DMA_REQ;
 1385              		.loc 1 1069 0
 1386 0126 FB7B     		ldrb	r3, [r7, #15]	@ zero_extendqisi2
 1387 0128 03F18043 		add	r3, r3, #1073741824
 1388 012c 03F5C143 		add	r3, r3, #24704
 1389 0130 1A46     		mov	r2, r3
 1390 0132 FB7B     		ldrb	r3, [r7, #15]	@ zero_extendqisi2
 1391 0134 03F18043 		add	r3, r3, #1073741824
 1392 0138 03F5C143 		add	r3, r3, #24704
 1393 013c 1B78     		ldrb	r3, [r3]
 1394 013e DBB2     		uxtb	r3, r3
 1395 0140 43F00203 		orr	r3, r3, #2
 1396 0144 DBB2     		uxtb	r3, r3
 1397 0146 1370     		strb	r3, [r2]
1070:.\Generated_Source\PSoC5/USBUART_1.c ****                 * (reg8 *)(USBUART_1_ARB_EP1_CFG_IND + ri) &= ((uint8)(~USBUART_1_ARB_EPX_CFG_DMA_R
 1398              		.loc 1 1070 0
 1399 0148 FB7B     		ldrb	r3, [r7, #15]	@ zero_extendqisi2
 1400 014a 03F18043 		add	r3, r3, #1073741824
 1401 014e 03F5C143 		add	r3, r3, #24704
 1402 0152 1A46     		mov	r2, r3
 1403 0154 FB7B     		ldrb	r3, [r7, #15]	@ zero_extendqisi2
 1404 0156 03F18043 		add	r3, r3, #1073741824
 1405 015a 03F5C143 		add	r3, r3, #24704
 1406 015e 1B78     		ldrb	r3, [r3]
 1407 0160 DBB2     		uxtb	r3, r3
 1408 0162 23F00203 		bic	r3, r3, #2
 1409 0166 DBB2     		uxtb	r3, r3
 1410 0168 1370     		strb	r3, [r2]
 1411 016a 0DE0     		b	.L76
 1412              	.L80:
1071:.\Generated_Source\PSoC5/USBUART_1.c ****                 /* Mode register will be written in arb ISR after DMA transfer complete */
1072:.\Generated_Source\PSoC5/USBUART_1.c ****             }
1073:.\Generated_Source\PSoC5/USBUART_1.c ****             else
1074:.\Generated_Source\PSoC5/USBUART_1.c ****             {
1075:.\Generated_Source\PSoC5/USBUART_1.c ****                 /* When zero-length packet - write the Mode register directly */
1076:.\Generated_Source\PSoC5/USBUART_1.c ****                 CY_SET_REG8((reg8 *)(USBUART_1_SIE_EP1_CR0_IND + ri), USBUART_1_EP[epNumber].epMode
 1413              		.loc 1 1076 0
 1414 016c FA7B     		ldrb	r2, [r7, #15]	@ zero_extendqisi2
 1415 016e 0E4B     		ldr	r3, .L81+24
 1416 0170 1344     		add	r3, r3, r2
 1417 0172 1946     		mov	r1, r3
 1418 0174 FA79     		ldrb	r2, [r7, #7]	@ zero_extendqisi2
 1419 0176 0748     		ldr	r0, .L81+4
 1420 0178 1346     		mov	r3, r2
 1421 017a 5B00     		lsls	r3, r3, #1
 1422 017c 1344     		add	r3, r3, r2
 1423 017e 9B00     		lsls	r3, r3, #2
 1424 0180 0344     		add	r3, r3, r0
 1425 0182 5B79     		ldrb	r3, [r3, #5]
 1426 0184 DBB2     		uxtb	r3, r3
 1427 0186 0B70     		strb	r3, [r1]
 1428              	.L76:
1077:.\Generated_Source\PSoC5/USBUART_1.c ****             }
1078:.\Generated_Source\PSoC5/USBUART_1.c ****         #endif /*  USBUART_1_EP_MM == USBUART_1__EP_DMAMANUAL */
ARM GAS  C:\Users\pfautley\AppData\Local\Temp\ccTPF43f.s 			page 45


1079:.\Generated_Source\PSoC5/USBUART_1.c **** 
1080:.\Generated_Source\PSoC5/USBUART_1.c ****         #if(USBUART_1_EP_MM == USBUART_1__EP_DMAAUTO)
1081:.\Generated_Source\PSoC5/USBUART_1.c ****             if (pData != NULL)
1082:.\Generated_Source\PSoC5/USBUART_1.c ****             {
1083:.\Generated_Source\PSoC5/USBUART_1.c ****                 /* Enable DMA in mode3 for transferring data */
1084:.\Generated_Source\PSoC5/USBUART_1.c ****                 (void) CyDmaChDisable(USBUART_1_DmaChan[epNumber]);
1085:.\Generated_Source\PSoC5/USBUART_1.c ****             #if (USBUART_1_EP_DMA_AUTO_OPT == 0u)
1086:.\Generated_Source\PSoC5/USBUART_1.c ****                 USBUART_1_inLength[epNumber] = length;
1087:.\Generated_Source\PSoC5/USBUART_1.c ****                 USBUART_1_inDataPointer[epNumber] = pData;
1088:.\Generated_Source\PSoC5/USBUART_1.c ****                 /* Configure DMA to send the data only for the first burst */
1089:.\Generated_Source\PSoC5/USBUART_1.c ****                 (void) CyDmaTdSetConfiguration(USBUART_1_DmaTd[epNumber],
1090:.\Generated_Source\PSoC5/USBUART_1.c ****                     (length > USBUART_1_DMA_BYTES_PER_BURST) ? USBUART_1_DMA_BYTES_PER_BURST : leng
1091:.\Generated_Source\PSoC5/USBUART_1.c ****                     USBUART_1_DmaNextTd[epNumber], TD_TERMIN_EN | TD_INC_SRC_ADR);
1092:.\Generated_Source\PSoC5/USBUART_1.c ****                 (void) CyDmaTdSetAddress(USBUART_1_DmaTd[epNumber],  LO16((uint32)pData), LO16((uin
1093:.\Generated_Source\PSoC5/USBUART_1.c ****                 /* The second TD will be executed only when the first one fails.
1094:.\Generated_Source\PSoC5/USBUART_1.c ****                 *  The intention of this TD is to generate NRQ interrupt
1095:.\Generated_Source\PSoC5/USBUART_1.c ****                 *  and repeat 2 last bytes of the first burst.
1096:.\Generated_Source\PSoC5/USBUART_1.c ****                 */
1097:.\Generated_Source\PSoC5/USBUART_1.c ****                 (void) CyDmaTdSetConfiguration(USBUART_1_DmaNextTd[epNumber], 1u,
1098:.\Generated_Source\PSoC5/USBUART_1.c ****                                                USBUART_1_DmaNextTd[epNumber],
1099:.\Generated_Source\PSoC5/USBUART_1.c ****                                                USBUART_1_epX_TD_TERMOUT_EN[epNumber]);
1100:.\Generated_Source\PSoC5/USBUART_1.c ****                 /* Configure DmaNextTd to clear Data ready status */
1101:.\Generated_Source\PSoC5/USBUART_1.c ****                 (void) CyDmaTdSetAddress(USBUART_1_DmaNextTd[epNumber],  LO16((uint32)&clearInDataR
1102:.\Generated_Source\PSoC5/USBUART_1.c ****                                                                 LO16((uint32)(USBUART_1_ARB_EP1_CFG
1103:.\Generated_Source\PSoC5/USBUART_1.c ****             #else /* Configure DMA to send all data*/
1104:.\Generated_Source\PSoC5/USBUART_1.c ****                 (void) CyDmaTdSetConfiguration(USBUART_1_DmaTd[epNumber], length,
1105:.\Generated_Source\PSoC5/USBUART_1.c ****                                                USBUART_1_DmaTd[epNumber], TD_TERMIN_EN | TD_INC_SRC
1106:.\Generated_Source\PSoC5/USBUART_1.c ****                 (void) CyDmaTdSetAddress(USBUART_1_DmaTd[epNumber],  LO16((uint32)pData), LO16((uin
1107:.\Generated_Source\PSoC5/USBUART_1.c ****             #endif /* USBUART_1_EP_DMA_AUTO_OPT == 0u */
1108:.\Generated_Source\PSoC5/USBUART_1.c **** 
1109:.\Generated_Source\PSoC5/USBUART_1.c ****                 /* Clear Any potential pending DMA requests before starting the DMA channel to tran
1110:.\Generated_Source\PSoC5/USBUART_1.c ****                 (void) CyDmaClearPendingDrq(USBUART_1_DmaChan[epNumber]);
1111:.\Generated_Source\PSoC5/USBUART_1.c ****                 /* Enable the DMA */
1112:.\Generated_Source\PSoC5/USBUART_1.c ****                 (void) CyDmaChSetInitialTd(USBUART_1_DmaChan[epNumber], USBUART_1_DmaTd[epNumber]);
1113:.\Generated_Source\PSoC5/USBUART_1.c ****                 (void) CyDmaChEnable(USBUART_1_DmaChan[epNumber], 1u);
1114:.\Generated_Source\PSoC5/USBUART_1.c ****             }
1115:.\Generated_Source\PSoC5/USBUART_1.c ****             else
1116:.\Generated_Source\PSoC5/USBUART_1.c ****             {
1117:.\Generated_Source\PSoC5/USBUART_1.c ****                 USBUART_1_EP[epNumber].apiEpState = USBUART_1_NO_EVENT_PENDING;
1118:.\Generated_Source\PSoC5/USBUART_1.c ****                 if(length > 0u)
1119:.\Generated_Source\PSoC5/USBUART_1.c ****                 {
1120:.\Generated_Source\PSoC5/USBUART_1.c ****                 #if (USBUART_1_EP_DMA_AUTO_OPT == 0u)
1121:.\Generated_Source\PSoC5/USBUART_1.c ****                     USBUART_1_inLength[epNumber] = length;
1122:.\Generated_Source\PSoC5/USBUART_1.c ****                     USBUART_1_inBufFull[epNumber] = 0u;
1123:.\Generated_Source\PSoC5/USBUART_1.c ****                     (void) CyDmaChDisable(USBUART_1_DmaChan[epNumber]);
1124:.\Generated_Source\PSoC5/USBUART_1.c ****                     /* Configure DMA to send the data only for the first burst */
1125:.\Generated_Source\PSoC5/USBUART_1.c ****                     (void) CyDmaTdSetConfiguration(
1126:.\Generated_Source\PSoC5/USBUART_1.c ****                         USBUART_1_DmaTd[epNumber], (length > USBUART_1_DMA_BYTES_PER_BURST) ?
1127:.\Generated_Source\PSoC5/USBUART_1.c ****                         USBUART_1_DMA_BYTES_PER_BURST : length,
1128:.\Generated_Source\PSoC5/USBUART_1.c ****                         USBUART_1_DmaNextTd[epNumber], TD_TERMIN_EN | TD_INC_SRC_ADR );
1129:.\Generated_Source\PSoC5/USBUART_1.c ****                     (void) CyDmaTdSetAddress(USBUART_1_DmaTd[epNumber],
1130:.\Generated_Source\PSoC5/USBUART_1.c ****                                              LO16((uint32)USBUART_1_inDataPointer[epNumber]), LO16(
1131:.\Generated_Source\PSoC5/USBUART_1.c ****                     /* Clear Any potential pending DMA requests before starting the DMA channel to 
1132:.\Generated_Source\PSoC5/USBUART_1.c ****                     (void) CyDmaClearPendingDrq(USBUART_1_DmaChan[epNumber]);
1133:.\Generated_Source\PSoC5/USBUART_1.c ****                     /* Enable the DMA */
1134:.\Generated_Source\PSoC5/USBUART_1.c ****                     (void) CyDmaChSetInitialTd(USBUART_1_DmaChan[epNumber], USBUART_1_DmaTd[epNumbe
1135:.\Generated_Source\PSoC5/USBUART_1.c ****                     (void) CyDmaChEnable(USBUART_1_DmaChan[epNumber], 1u);
ARM GAS  C:\Users\pfautley\AppData\Local\Temp\ccTPF43f.s 			page 46


1136:.\Generated_Source\PSoC5/USBUART_1.c ****                 #endif /* (USBUART_1_EP_DMA_AUTO_OPT == 0u) */
1137:.\Generated_Source\PSoC5/USBUART_1.c **** 
1138:.\Generated_Source\PSoC5/USBUART_1.c ****                     /* Set Data ready status, This will generate DMA request */
1139:.\Generated_Source\PSoC5/USBUART_1.c ****                     #ifndef USBUART_1_MANUAL_IN_EP_ARM
1140:.\Generated_Source\PSoC5/USBUART_1.c ****                         * (reg8 *)(USBUART_1_ARB_EP1_CFG_IND + ri) |= USBUART_1_ARB_EPX_CFG_IN_DATA
1141:.\Generated_Source\PSoC5/USBUART_1.c ****                     #endif  /* USBUART_1_MANUAL_IN_EP_ARM */
1142:.\Generated_Source\PSoC5/USBUART_1.c ****                     /* Mode register will be written in arb ISR(In Buffer Full) after first DMA tra
1143:.\Generated_Source\PSoC5/USBUART_1.c ****                 }
1144:.\Generated_Source\PSoC5/USBUART_1.c ****                 else
1145:.\Generated_Source\PSoC5/USBUART_1.c ****                 {
1146:.\Generated_Source\PSoC5/USBUART_1.c ****                     /* When zero-length packet - write the Mode register directly */
1147:.\Generated_Source\PSoC5/USBUART_1.c ****                     CY_SET_REG8((reg8 *)(USBUART_1_SIE_EP1_CR0_IND + ri), USBUART_1_EP[epNumber].ep
1148:.\Generated_Source\PSoC5/USBUART_1.c ****                 }
1149:.\Generated_Source\PSoC5/USBUART_1.c ****             }
1150:.\Generated_Source\PSoC5/USBUART_1.c ****         #endif /*  USBUART_1_EP_MM == USBUART_1__EP_DMAAUTO */
1151:.\Generated_Source\PSoC5/USBUART_1.c ****     }
1152:.\Generated_Source\PSoC5/USBUART_1.c **** }
 1429              		.loc 1 1152 0
 1430 0188 1437     		adds	r7, r7, #20
 1431 018a BD46     		mov	sp, r7
 1432              		@ sp needed
 1433 018c 90BD     		pop	{r4, r7, pc}
 1434              	.L82:
 1435 018e 00BF     		.align	2
 1436              	.L81:
 1437 0190 88600040 		.word	1073766536
 1438 0194 00000000 		.word	USBUART_1_EP
 1439 0198 0C600040 		.word	1073766412
 1440 019c 0D600040 		.word	1073766413
 1441 01a0 00000000 		.word	USBUART_1_DmaTd
 1442 01a4 00000000 		.word	USBUART_1_DmaChan
 1443 01a8 0E600040 		.word	1073766414
 1444              		.cfi_endproc
 1445              	.LFE13:
 1446              		.size	USBUART_1_LoadInEP, .-USBUART_1_LoadInEP
 1447              		.section	.text.USBUART_1_ReadOutEP,"ax",%progbits
 1448              		.align	2
 1449              		.global	USBUART_1_ReadOutEP
 1450              		.thumb
 1451              		.thumb_func
 1452              		.type	USBUART_1_ReadOutEP, %function
 1453              	USBUART_1_ReadOutEP:
 1454              	.LFB14:
1153:.\Generated_Source\PSoC5/USBUART_1.c **** 
1154:.\Generated_Source\PSoC5/USBUART_1.c **** 
1155:.\Generated_Source\PSoC5/USBUART_1.c **** /*******************************************************************************
1156:.\Generated_Source\PSoC5/USBUART_1.c **** * Function Name: USBUART_1_ReadOutEP
1157:.\Generated_Source\PSoC5/USBUART_1.c **** ********************************************************************************
1158:.\Generated_Source\PSoC5/USBUART_1.c **** *
1159:.\Generated_Source\PSoC5/USBUART_1.c **** * Summary:
1160:.\Generated_Source\PSoC5/USBUART_1.c **** *  Read data from an endpoint.  The application must call
1161:.\Generated_Source\PSoC5/USBUART_1.c **** *  USBUART_1_GetEPState to see if an event is pending.
1162:.\Generated_Source\PSoC5/USBUART_1.c **** *
1163:.\Generated_Source\PSoC5/USBUART_1.c **** * Parameters:
1164:.\Generated_Source\PSoC5/USBUART_1.c **** *  epNumber: Contains the data endpoint number.
1165:.\Generated_Source\PSoC5/USBUART_1.c **** *            Valid values are between 1 and 8.
1166:.\Generated_Source\PSoC5/USBUART_1.c **** *  pData: A pointer to a data array from which the data for the endpoint space
ARM GAS  C:\Users\pfautley\AppData\Local\Temp\ccTPF43f.s 			page 47


1167:.\Generated_Source\PSoC5/USBUART_1.c **** *         is loaded.
1168:.\Generated_Source\PSoC5/USBUART_1.c **** *  length: The number of bytes to transfer from the USB Out endpoint and loads
1169:.\Generated_Source\PSoC5/USBUART_1.c **** *          it into data array. Valid values are between 0 and 1023. The function
1170:.\Generated_Source\PSoC5/USBUART_1.c **** *          moves fewer than the requested number of bytes if the host sends
1171:.\Generated_Source\PSoC5/USBUART_1.c **** *          fewer bytes than requested.
1172:.\Generated_Source\PSoC5/USBUART_1.c **** *
1173:.\Generated_Source\PSoC5/USBUART_1.c **** * Returns:
1174:.\Generated_Source\PSoC5/USBUART_1.c **** *  Number of bytes received, 0 for an invalid endpoint.
1175:.\Generated_Source\PSoC5/USBUART_1.c **** *
1176:.\Generated_Source\PSoC5/USBUART_1.c **** * Reentrant:
1177:.\Generated_Source\PSoC5/USBUART_1.c **** *  No.
1178:.\Generated_Source\PSoC5/USBUART_1.c **** *
1179:.\Generated_Source\PSoC5/USBUART_1.c **** *******************************************************************************/
1180:.\Generated_Source\PSoC5/USBUART_1.c **** uint16 USBUART_1_ReadOutEP(uint8 epNumber, uint8 pData[], uint16 length)
1181:.\Generated_Source\PSoC5/USBUART_1.c ****                                                                         
1182:.\Generated_Source\PSoC5/USBUART_1.c **** {
 1455              		.loc 1 1182 0
 1456              		.cfi_startproc
 1457              		@ args = 0, pretend = 0, frame = 24
 1458              		@ frame_needed = 1, uses_anonymous_args = 0
 1459 0000 80B5     		push	{r7, lr}
 1460              		.cfi_def_cfa_offset 8
 1461              		.cfi_offset 7, -8
 1462              		.cfi_offset 14, -4
 1463 0002 86B0     		sub	sp, sp, #24
 1464              		.cfi_def_cfa_offset 32
 1465 0004 00AF     		add	r7, sp, #0
 1466              		.cfi_def_cfa_register 7
 1467 0006 3960     		str	r1, [r7]
 1468 0008 1346     		mov	r3, r2
 1469 000a 0246     		mov	r2, r0
 1470 000c FA71     		strb	r2, [r7, #7]
 1471 000e BB80     		strh	r3, [r7, #4]	@ movhi
1183:.\Generated_Source\PSoC5/USBUART_1.c ****     uint8 ri;
1184:.\Generated_Source\PSoC5/USBUART_1.c ****     reg8 *p;
1185:.\Generated_Source\PSoC5/USBUART_1.c ****     #if(USBUART_1_EP_MM == USBUART_1__EP_MANUAL)
1186:.\Generated_Source\PSoC5/USBUART_1.c ****         uint16 i;
1187:.\Generated_Source\PSoC5/USBUART_1.c ****     #endif /*  USBUART_1_EP_MM == USBUART_1__EP_MANUAL */
1188:.\Generated_Source\PSoC5/USBUART_1.c ****     #if(USBUART_1_EP_MM != USBUART_1__EP_DMAAUTO)
1189:.\Generated_Source\PSoC5/USBUART_1.c ****         uint16 xferCount;
1190:.\Generated_Source\PSoC5/USBUART_1.c ****     #endif /*  USBUART_1_EP_MM != USBUART_1__EP_DMAAUTO */
1191:.\Generated_Source\PSoC5/USBUART_1.c **** 
1192:.\Generated_Source\PSoC5/USBUART_1.c ****     if((epNumber > USBUART_1_EP0) && (epNumber < USBUART_1_MAX_EP) && (pData != NULL))
 1472              		.loc 1 1192 0
 1473 0010 FB79     		ldrb	r3, [r7, #7]	@ zero_extendqisi2
 1474 0012 002B     		cmp	r3, #0
 1475 0014 74D0     		beq	.L84
 1476              		.loc 1 1192 0 is_stmt 0 discriminator 1
 1477 0016 FB79     		ldrb	r3, [r7, #7]	@ zero_extendqisi2
 1478 0018 082B     		cmp	r3, #8
 1479 001a 71D8     		bhi	.L84
 1480 001c 3B68     		ldr	r3, [r7]
 1481 001e 002B     		cmp	r3, #0
 1482 0020 6ED0     		beq	.L84
1193:.\Generated_Source\PSoC5/USBUART_1.c ****     {
1194:.\Generated_Source\PSoC5/USBUART_1.c ****         ri = ((epNumber - USBUART_1_EP1) << USBUART_1_EPX_CNTX_ADDR_SHIFT);
 1483              		.loc 1 1194 0 is_stmt 1
ARM GAS  C:\Users\pfautley\AppData\Local\Temp\ccTPF43f.s 			page 48


 1484 0022 FB79     		ldrb	r3, [r7, #7]
 1485 0024 013B     		subs	r3, r3, #1
 1486 0026 DBB2     		uxtb	r3, r3
 1487 0028 1B01     		lsls	r3, r3, #4
 1488 002a FB75     		strb	r3, [r7, #23]
1195:.\Generated_Source\PSoC5/USBUART_1.c ****         p = (reg8 *)(USBUART_1_ARB_RW1_DR_IND + ri);
 1489              		.loc 1 1195 0
 1490 002c FA7D     		ldrb	r2, [r7, #23]	@ zero_extendqisi2
 1491 002e 384B     		ldr	r3, .L89
 1492 0030 1344     		add	r3, r3, r2
 1493 0032 3B61     		str	r3, [r7, #16]
1196:.\Generated_Source\PSoC5/USBUART_1.c **** 
1197:.\Generated_Source\PSoC5/USBUART_1.c ****         #if(USBUART_1_EP_MM != USBUART_1__EP_DMAAUTO)
1198:.\Generated_Source\PSoC5/USBUART_1.c ****             /* Determine which is smaller the requested data or the available data */
1199:.\Generated_Source\PSoC5/USBUART_1.c ****             xferCount = USBUART_1_GetEPCount(epNumber);
 1494              		.loc 1 1199 0
 1495 0034 FB79     		ldrb	r3, [r7, #7]	@ zero_extendqisi2
 1496 0036 1846     		mov	r0, r3
 1497 0038 FFF7FEFF 		bl	USBUART_1_GetEPCount
 1498 003c 0346     		mov	r3, r0
 1499 003e FB81     		strh	r3, [r7, #14]	@ movhi
1200:.\Generated_Source\PSoC5/USBUART_1.c ****             if (length > xferCount)
 1500              		.loc 1 1200 0
 1501 0040 BA88     		ldrh	r2, [r7, #4]
 1502 0042 FB89     		ldrh	r3, [r7, #14]
 1503 0044 9A42     		cmp	r2, r3
 1504 0046 01D9     		bls	.L85
1201:.\Generated_Source\PSoC5/USBUART_1.c ****             {
1202:.\Generated_Source\PSoC5/USBUART_1.c ****                 length = xferCount;
 1505              		.loc 1 1202 0
 1506 0048 FB89     		ldrh	r3, [r7, #14]	@ movhi
 1507 004a BB80     		strh	r3, [r7, #4]	@ movhi
 1508              	.L85:
1203:.\Generated_Source\PSoC5/USBUART_1.c ****             }
1204:.\Generated_Source\PSoC5/USBUART_1.c ****         #endif /*  USBUART_1_EP_MM != USBUART_1__EP_DMAAUTO */
1205:.\Generated_Source\PSoC5/USBUART_1.c **** 
1206:.\Generated_Source\PSoC5/USBUART_1.c ****         #if(USBUART_1_EP_MM == USBUART_1__EP_MANUAL)
1207:.\Generated_Source\PSoC5/USBUART_1.c ****             /* Copy the data using the arbiter data register */
1208:.\Generated_Source\PSoC5/USBUART_1.c ****             for (i = 0u; i < length; i++)
1209:.\Generated_Source\PSoC5/USBUART_1.c ****             {
1210:.\Generated_Source\PSoC5/USBUART_1.c ****                 pData[i] = CY_GET_REG8(p);
1211:.\Generated_Source\PSoC5/USBUART_1.c ****             }
1212:.\Generated_Source\PSoC5/USBUART_1.c **** 
1213:.\Generated_Source\PSoC5/USBUART_1.c ****             /* (re)arming of OUT endpoint */
1214:.\Generated_Source\PSoC5/USBUART_1.c ****             USBUART_1_EnableOutEP(epNumber);
1215:.\Generated_Source\PSoC5/USBUART_1.c ****         #else
1216:.\Generated_Source\PSoC5/USBUART_1.c ****             /*Init DMA if it was not initialized */
1217:.\Generated_Source\PSoC5/USBUART_1.c ****             if(USBUART_1_DmaTd[epNumber] == DMA_INVALID_TD)
 1509              		.loc 1 1217 0
 1510 004c FB79     		ldrb	r3, [r7, #7]	@ zero_extendqisi2
 1511 004e 314A     		ldr	r2, .L89+4
 1512 0050 D35C     		ldrb	r3, [r2, r3]	@ zero_extendqisi2
 1513 0052 FF2B     		cmp	r3, #255
 1514 0054 04D1     		bne	.L86
1218:.\Generated_Source\PSoC5/USBUART_1.c ****             {
1219:.\Generated_Source\PSoC5/USBUART_1.c ****                 USBUART_1_InitEP_DMA(epNumber, pData);
 1515              		.loc 1 1219 0
ARM GAS  C:\Users\pfautley\AppData\Local\Temp\ccTPF43f.s 			page 49


 1516 0056 FB79     		ldrb	r3, [r7, #7]	@ zero_extendqisi2
 1517 0058 1846     		mov	r0, r3
 1518 005a 3968     		ldr	r1, [r7]
 1519 005c FFF7FEFF 		bl	USBUART_1_InitEP_DMA
 1520              	.L86:
1220:.\Generated_Source\PSoC5/USBUART_1.c ****             }
1221:.\Generated_Source\PSoC5/USBUART_1.c **** 
1222:.\Generated_Source\PSoC5/USBUART_1.c ****         #endif /*  USBUART_1_EP_MM == USBUART_1__EP_MANUAL */
1223:.\Generated_Source\PSoC5/USBUART_1.c **** 
1224:.\Generated_Source\PSoC5/USBUART_1.c ****         #if(USBUART_1_EP_MM == USBUART_1__EP_DMAMANUAL)
1225:.\Generated_Source\PSoC5/USBUART_1.c ****             /* Enable DMA in mode2 for transferring data */
1226:.\Generated_Source\PSoC5/USBUART_1.c ****             (void) CyDmaChDisable(USBUART_1_DmaChan[epNumber]);
 1521              		.loc 1 1226 0
 1522 0060 FB79     		ldrb	r3, [r7, #7]	@ zero_extendqisi2
 1523 0062 2D4A     		ldr	r2, .L89+8
 1524 0064 D35C     		ldrb	r3, [r2, r3]	@ zero_extendqisi2
 1525 0066 1846     		mov	r0, r3
 1526 0068 FFF7FEFF 		bl	CyDmaChDisable
1227:.\Generated_Source\PSoC5/USBUART_1.c ****             (void) CyDmaTdSetConfiguration(USBUART_1_DmaTd[epNumber], length, CY_DMA_DISABLE_TD,
 1527              		.loc 1 1227 0
 1528 006c FB79     		ldrb	r3, [r7, #7]	@ zero_extendqisi2
 1529 006e 294A     		ldr	r2, .L89+4
 1530 0070 D25C     		ldrb	r2, [r2, r3]	@ zero_extendqisi2
 1531 0072 BB88     		ldrh	r3, [r7, #4]
 1532 0074 1046     		mov	r0, r2
 1533 0076 1946     		mov	r1, r3
 1534 0078 FE22     		movs	r2, #254
 1535 007a 1223     		movs	r3, #18
 1536 007c FFF7FEFF 		bl	CyDmaTdSetConfiguration
1228:.\Generated_Source\PSoC5/USBUART_1.c ****                                                                                 TD_TERMIN_EN | TD_I
1229:.\Generated_Source\PSoC5/USBUART_1.c ****             (void) CyDmaTdSetAddress(USBUART_1_DmaTd[epNumber],  LO16((uint32)p), LO16((uint32)pDat
 1537              		.loc 1 1229 0
 1538 0080 FB79     		ldrb	r3, [r7, #7]	@ zero_extendqisi2
 1539 0082 244A     		ldr	r2, .L89+4
 1540 0084 D15C     		ldrb	r1, [r2, r3]	@ zero_extendqisi2
 1541 0086 3B69     		ldr	r3, [r7, #16]
 1542 0088 9AB2     		uxth	r2, r3
 1543 008a 3B68     		ldr	r3, [r7]
 1544 008c 9BB2     		uxth	r3, r3
 1545 008e 0846     		mov	r0, r1
 1546 0090 1146     		mov	r1, r2
 1547 0092 1A46     		mov	r2, r3
 1548 0094 FFF7FEFF 		bl	CyDmaTdSetAddress
1230:.\Generated_Source\PSoC5/USBUART_1.c ****             /* Enable the DMA */
1231:.\Generated_Source\PSoC5/USBUART_1.c ****             (void) CyDmaChSetInitialTd(USBUART_1_DmaChan[epNumber], USBUART_1_DmaTd[epNumber]);
 1549              		.loc 1 1231 0
 1550 0098 FB79     		ldrb	r3, [r7, #7]	@ zero_extendqisi2
 1551 009a 1F4A     		ldr	r2, .L89+8
 1552 009c D25C     		ldrb	r2, [r2, r3]	@ zero_extendqisi2
 1553 009e FB79     		ldrb	r3, [r7, #7]	@ zero_extendqisi2
 1554 00a0 1C49     		ldr	r1, .L89+4
 1555 00a2 CB5C     		ldrb	r3, [r1, r3]	@ zero_extendqisi2
 1556 00a4 1046     		mov	r0, r2
 1557 00a6 1946     		mov	r1, r3
 1558 00a8 FFF7FEFF 		bl	CyDmaChSetInitialTd
1232:.\Generated_Source\PSoC5/USBUART_1.c ****             (void) CyDmaChEnable(USBUART_1_DmaChan[epNumber], 1u);
 1559              		.loc 1 1232 0
ARM GAS  C:\Users\pfautley\AppData\Local\Temp\ccTPF43f.s 			page 50


 1560 00ac FB79     		ldrb	r3, [r7, #7]	@ zero_extendqisi2
 1561 00ae 1A4A     		ldr	r2, .L89+8
 1562 00b0 D35C     		ldrb	r3, [r2, r3]	@ zero_extendqisi2
 1563 00b2 1846     		mov	r0, r3
 1564 00b4 0121     		movs	r1, #1
 1565 00b6 FFF7FEFF 		bl	CyDmaChEnable
1233:.\Generated_Source\PSoC5/USBUART_1.c **** 
1234:.\Generated_Source\PSoC5/USBUART_1.c ****             /* Generate DMA request */
1235:.\Generated_Source\PSoC5/USBUART_1.c ****             * (reg8 *)(USBUART_1_ARB_EP1_CFG_IND + ri) |= USBUART_1_ARB_EPX_CFG_DMA_REQ;
 1566              		.loc 1 1235 0
 1567 00ba FB7D     		ldrb	r3, [r7, #23]	@ zero_extendqisi2
 1568 00bc 03F18043 		add	r3, r3, #1073741824
 1569 00c0 03F5C143 		add	r3, r3, #24704
 1570 00c4 1A46     		mov	r2, r3
 1571 00c6 FB7D     		ldrb	r3, [r7, #23]	@ zero_extendqisi2
 1572 00c8 03F18043 		add	r3, r3, #1073741824
 1573 00cc 03F5C143 		add	r3, r3, #24704
 1574 00d0 1B78     		ldrb	r3, [r3]
 1575 00d2 DBB2     		uxtb	r3, r3
 1576 00d4 43F00203 		orr	r3, r3, #2
 1577 00d8 DBB2     		uxtb	r3, r3
 1578 00da 1370     		strb	r3, [r2]
1236:.\Generated_Source\PSoC5/USBUART_1.c ****             * (reg8 *)(USBUART_1_ARB_EP1_CFG_IND + ri) &= ((uint8)(~USBUART_1_ARB_EPX_CFG_DMA_REQ))
 1579              		.loc 1 1236 0
 1580 00dc FB7D     		ldrb	r3, [r7, #23]	@ zero_extendqisi2
 1581 00de 03F18043 		add	r3, r3, #1073741824
 1582 00e2 03F5C143 		add	r3, r3, #24704
 1583 00e6 1A46     		mov	r2, r3
 1584 00e8 FB7D     		ldrb	r3, [r7, #23]	@ zero_extendqisi2
 1585 00ea 03F18043 		add	r3, r3, #1073741824
 1586 00ee 03F5C143 		add	r3, r3, #24704
 1587 00f2 1B78     		ldrb	r3, [r3]
 1588 00f4 DBB2     		uxtb	r3, r3
 1589 00f6 23F00203 		bic	r3, r3, #2
 1590 00fa DBB2     		uxtb	r3, r3
 1591 00fc 1370     		strb	r3, [r2]
 1592 00fe 01E0     		b	.L87
 1593              	.L84:
1237:.\Generated_Source\PSoC5/USBUART_1.c ****             /* Out EP will be (re)armed in arb ISR after transfer complete */
1238:.\Generated_Source\PSoC5/USBUART_1.c ****         #endif /*  USBUART_1_EP_MM == USBUART_1__EP_DMAMANUAL */
1239:.\Generated_Source\PSoC5/USBUART_1.c **** 
1240:.\Generated_Source\PSoC5/USBUART_1.c ****         #if(USBUART_1_EP_MM == USBUART_1__EP_DMAAUTO)
1241:.\Generated_Source\PSoC5/USBUART_1.c ****             /* Enable DMA in mode3 for transferring data */
1242:.\Generated_Source\PSoC5/USBUART_1.c ****             (void) CyDmaChDisable(USBUART_1_DmaChan[epNumber]);
1243:.\Generated_Source\PSoC5/USBUART_1.c ****             (void) CyDmaTdSetConfiguration(USBUART_1_DmaTd[epNumber], length, USBUART_1_DmaTd[epNum
1244:.\Generated_Source\PSoC5/USBUART_1.c ****                                                                                 TD_TERMIN_EN | TD_I
1245:.\Generated_Source\PSoC5/USBUART_1.c ****             (void) CyDmaTdSetAddress(USBUART_1_DmaTd[epNumber],  LO16((uint32)p), LO16((uint32)pDat
1246:.\Generated_Source\PSoC5/USBUART_1.c **** 
1247:.\Generated_Source\PSoC5/USBUART_1.c ****             /* Clear Any potential pending DMA requests before starting the DMA channel to transfer
1248:.\Generated_Source\PSoC5/USBUART_1.c ****             (void) CyDmaClearPendingDrq(USBUART_1_DmaChan[epNumber]);
1249:.\Generated_Source\PSoC5/USBUART_1.c ****             /* Enable the DMA */
1250:.\Generated_Source\PSoC5/USBUART_1.c ****             (void) CyDmaChSetInitialTd(USBUART_1_DmaChan[epNumber], USBUART_1_DmaTd[epNumber]);
1251:.\Generated_Source\PSoC5/USBUART_1.c ****             (void) CyDmaChEnable(USBUART_1_DmaChan[epNumber], 1u);
1252:.\Generated_Source\PSoC5/USBUART_1.c ****             /* Out EP will be (re)armed in arb ISR after transfer complete */
1253:.\Generated_Source\PSoC5/USBUART_1.c ****         #endif /*  USBUART_1_EP_MM == USBUART_1__EP_DMAAUTO */
1254:.\Generated_Source\PSoC5/USBUART_1.c **** 
1255:.\Generated_Source\PSoC5/USBUART_1.c ****     }
ARM GAS  C:\Users\pfautley\AppData\Local\Temp\ccTPF43f.s 			page 51


1256:.\Generated_Source\PSoC5/USBUART_1.c ****     else
1257:.\Generated_Source\PSoC5/USBUART_1.c ****     {
1258:.\Generated_Source\PSoC5/USBUART_1.c ****         length = 0u;
 1594              		.loc 1 1258 0
 1595 0100 0023     		movs	r3, #0
 1596 0102 BB80     		strh	r3, [r7, #4]	@ movhi
 1597              	.L87:
1259:.\Generated_Source\PSoC5/USBUART_1.c ****     }
1260:.\Generated_Source\PSoC5/USBUART_1.c **** 
1261:.\Generated_Source\PSoC5/USBUART_1.c ****     return(length);
 1598              		.loc 1 1261 0
 1599 0104 BB88     		ldrh	r3, [r7, #4]
1262:.\Generated_Source\PSoC5/USBUART_1.c **** }
 1600              		.loc 1 1262 0
 1601 0106 1846     		mov	r0, r3
 1602 0108 1837     		adds	r7, r7, #24
 1603 010a BD46     		mov	sp, r7
 1604              		@ sp needed
 1605 010c 80BD     		pop	{r7, pc}
 1606              	.L90:
 1607 010e 00BF     		.align	2
 1608              	.L89:
 1609 0110 88600040 		.word	1073766536
 1610 0114 00000000 		.word	USBUART_1_DmaTd
 1611 0118 00000000 		.word	USBUART_1_DmaChan
 1612              		.cfi_endproc
 1613              	.LFE14:
 1614              		.size	USBUART_1_ReadOutEP, .-USBUART_1_ReadOutEP
 1615              		.section	.text.USBUART_1_EnableOutEP,"ax",%progbits
 1616              		.align	2
 1617              		.global	USBUART_1_EnableOutEP
 1618              		.thumb
 1619              		.thumb_func
 1620              		.type	USBUART_1_EnableOutEP, %function
 1621              	USBUART_1_EnableOutEP:
 1622              	.LFB15:
1263:.\Generated_Source\PSoC5/USBUART_1.c **** 
1264:.\Generated_Source\PSoC5/USBUART_1.c **** 
1265:.\Generated_Source\PSoC5/USBUART_1.c **** /*******************************************************************************
1266:.\Generated_Source\PSoC5/USBUART_1.c **** * Function Name: USBUART_1_EnableOutEP
1267:.\Generated_Source\PSoC5/USBUART_1.c **** ********************************************************************************
1268:.\Generated_Source\PSoC5/USBUART_1.c **** *
1269:.\Generated_Source\PSoC5/USBUART_1.c **** * Summary:
1270:.\Generated_Source\PSoC5/USBUART_1.c **** *  This function enables an OUT endpoint.  It should not be
1271:.\Generated_Source\PSoC5/USBUART_1.c **** *  called for an IN endpoint.
1272:.\Generated_Source\PSoC5/USBUART_1.c **** *
1273:.\Generated_Source\PSoC5/USBUART_1.c **** * Parameters:
1274:.\Generated_Source\PSoC5/USBUART_1.c **** *  epNumber: Endpoint Number
1275:.\Generated_Source\PSoC5/USBUART_1.c **** *            Valid values are between 1 and 8.
1276:.\Generated_Source\PSoC5/USBUART_1.c **** *
1277:.\Generated_Source\PSoC5/USBUART_1.c **** * Return:
1278:.\Generated_Source\PSoC5/USBUART_1.c **** *   None.
1279:.\Generated_Source\PSoC5/USBUART_1.c **** *
1280:.\Generated_Source\PSoC5/USBUART_1.c **** * Global variables:
1281:.\Generated_Source\PSoC5/USBUART_1.c **** *  USBUART_1_EP[epNumber].apiEpState - set to NO_EVENT_PENDING
1282:.\Generated_Source\PSoC5/USBUART_1.c **** *
1283:.\Generated_Source\PSoC5/USBUART_1.c **** * Reentrant:
ARM GAS  C:\Users\pfautley\AppData\Local\Temp\ccTPF43f.s 			page 52


1284:.\Generated_Source\PSoC5/USBUART_1.c **** *  No.
1285:.\Generated_Source\PSoC5/USBUART_1.c **** *
1286:.\Generated_Source\PSoC5/USBUART_1.c **** *******************************************************************************/
1287:.\Generated_Source\PSoC5/USBUART_1.c **** void USBUART_1_EnableOutEP(uint8 epNumber) 
1288:.\Generated_Source\PSoC5/USBUART_1.c **** {
 1623              		.loc 1 1288 0
 1624              		.cfi_startproc
 1625              		@ args = 0, pretend = 0, frame = 16
 1626              		@ frame_needed = 1, uses_anonymous_args = 0
 1627              		@ link register save eliminated.
 1628 0000 80B4     		push	{r7}
 1629              		.cfi_def_cfa_offset 4
 1630              		.cfi_offset 7, -4
 1631 0002 85B0     		sub	sp, sp, #20
 1632              		.cfi_def_cfa_offset 24
 1633 0004 00AF     		add	r7, sp, #0
 1634              		.cfi_def_cfa_register 7
 1635 0006 0346     		mov	r3, r0
 1636 0008 FB71     		strb	r3, [r7, #7]
1289:.\Generated_Source\PSoC5/USBUART_1.c ****     uint8 ri;
1290:.\Generated_Source\PSoC5/USBUART_1.c **** 
1291:.\Generated_Source\PSoC5/USBUART_1.c ****     if((epNumber > USBUART_1_EP0) && (epNumber < USBUART_1_MAX_EP))
 1637              		.loc 1 1291 0
 1638 000a FB79     		ldrb	r3, [r7, #7]	@ zero_extendqisi2
 1639 000c 002B     		cmp	r3, #0
 1640 000e 1ED0     		beq	.L91
 1641              		.loc 1 1291 0 is_stmt 0 discriminator 1
 1642 0010 FB79     		ldrb	r3, [r7, #7]	@ zero_extendqisi2
 1643 0012 082B     		cmp	r3, #8
 1644 0014 1BD8     		bhi	.L91
1292:.\Generated_Source\PSoC5/USBUART_1.c ****     {
1293:.\Generated_Source\PSoC5/USBUART_1.c ****         ri = ((epNumber - USBUART_1_EP1) << USBUART_1_EPX_CNTX_ADDR_SHIFT);
 1645              		.loc 1 1293 0 is_stmt 1
 1646 0016 FB79     		ldrb	r3, [r7, #7]
 1647 0018 013B     		subs	r3, r3, #1
 1648 001a DBB2     		uxtb	r3, r3
 1649 001c 1B01     		lsls	r3, r3, #4
 1650 001e FB73     		strb	r3, [r7, #15]
1294:.\Generated_Source\PSoC5/USBUART_1.c ****         USBUART_1_EP[epNumber].apiEpState = USBUART_1_NO_EVENT_PENDING;
 1651              		.loc 1 1294 0
 1652 0020 FA79     		ldrb	r2, [r7, #7]	@ zero_extendqisi2
 1653 0022 0D49     		ldr	r1, .L93
 1654 0024 1346     		mov	r3, r2
 1655 0026 5B00     		lsls	r3, r3, #1
 1656 0028 1344     		add	r3, r3, r2
 1657 002a 9B00     		lsls	r3, r3, #2
 1658 002c 0B44     		add	r3, r3, r1
 1659 002e 0022     		movs	r2, #0
 1660 0030 5A70     		strb	r2, [r3, #1]
1295:.\Generated_Source\PSoC5/USBUART_1.c ****         /* Write the Mode register */
1296:.\Generated_Source\PSoC5/USBUART_1.c ****         CY_SET_REG8((reg8 *)(USBUART_1_SIE_EP1_CR0_IND + ri), USBUART_1_EP[epNumber].epMode);
 1661              		.loc 1 1296 0
 1662 0032 FA7B     		ldrb	r2, [r7, #15]	@ zero_extendqisi2
 1663 0034 094B     		ldr	r3, .L93+4
 1664 0036 1344     		add	r3, r3, r2
 1665 0038 1946     		mov	r1, r3
 1666 003a FA79     		ldrb	r2, [r7, #7]	@ zero_extendqisi2
ARM GAS  C:\Users\pfautley\AppData\Local\Temp\ccTPF43f.s 			page 53


 1667 003c 0648     		ldr	r0, .L93
 1668 003e 1346     		mov	r3, r2
 1669 0040 5B00     		lsls	r3, r3, #1
 1670 0042 1344     		add	r3, r3, r2
 1671 0044 9B00     		lsls	r3, r3, #2
 1672 0046 0344     		add	r3, r3, r0
 1673 0048 5B79     		ldrb	r3, [r3, #5]
 1674 004a DBB2     		uxtb	r3, r3
 1675 004c 0B70     		strb	r3, [r1]
 1676              	.L91:
1297:.\Generated_Source\PSoC5/USBUART_1.c ****     }
1298:.\Generated_Source\PSoC5/USBUART_1.c **** }
 1677              		.loc 1 1298 0
 1678 004e 1437     		adds	r7, r7, #20
 1679 0050 BD46     		mov	sp, r7
 1680              		@ sp needed
 1681 0052 5DF8047B 		ldr	r7, [sp], #4
 1682 0056 7047     		bx	lr
 1683              	.L94:
 1684              		.align	2
 1685              	.L93:
 1686 0058 00000000 		.word	USBUART_1_EP
 1687 005c 0E600040 		.word	1073766414
 1688              		.cfi_endproc
 1689              	.LFE15:
 1690              		.size	USBUART_1_EnableOutEP, .-USBUART_1_EnableOutEP
 1691              		.section	.text.USBUART_1_DisableOutEP,"ax",%progbits
 1692              		.align	2
 1693              		.global	USBUART_1_DisableOutEP
 1694              		.thumb
 1695              		.thumb_func
 1696              		.type	USBUART_1_DisableOutEP, %function
 1697              	USBUART_1_DisableOutEP:
 1698              	.LFB16:
1299:.\Generated_Source\PSoC5/USBUART_1.c **** 
1300:.\Generated_Source\PSoC5/USBUART_1.c **** 
1301:.\Generated_Source\PSoC5/USBUART_1.c **** /*******************************************************************************
1302:.\Generated_Source\PSoC5/USBUART_1.c **** * Function Name: USBUART_1_DisableOutEP
1303:.\Generated_Source\PSoC5/USBUART_1.c **** ********************************************************************************
1304:.\Generated_Source\PSoC5/USBUART_1.c **** *
1305:.\Generated_Source\PSoC5/USBUART_1.c **** * Summary:
1306:.\Generated_Source\PSoC5/USBUART_1.c **** *  This function disables an OUT endpoint.  It should not be
1307:.\Generated_Source\PSoC5/USBUART_1.c **** *  called for an IN endpoint.
1308:.\Generated_Source\PSoC5/USBUART_1.c **** *
1309:.\Generated_Source\PSoC5/USBUART_1.c **** * Parameters:
1310:.\Generated_Source\PSoC5/USBUART_1.c **** *  epNumber: Endpoint Number
1311:.\Generated_Source\PSoC5/USBUART_1.c **** *            Valid values are between 1 and 8.
1312:.\Generated_Source\PSoC5/USBUART_1.c **** *
1313:.\Generated_Source\PSoC5/USBUART_1.c **** * Return:
1314:.\Generated_Source\PSoC5/USBUART_1.c **** *  None.
1315:.\Generated_Source\PSoC5/USBUART_1.c **** *
1316:.\Generated_Source\PSoC5/USBUART_1.c **** *******************************************************************************/
1317:.\Generated_Source\PSoC5/USBUART_1.c **** void USBUART_1_DisableOutEP(uint8 epNumber) 
1318:.\Generated_Source\PSoC5/USBUART_1.c **** {
 1699              		.loc 1 1318 0
 1700              		.cfi_startproc
 1701              		@ args = 0, pretend = 0, frame = 16
ARM GAS  C:\Users\pfautley\AppData\Local\Temp\ccTPF43f.s 			page 54


 1702              		@ frame_needed = 1, uses_anonymous_args = 0
 1703              		@ link register save eliminated.
 1704 0000 80B4     		push	{r7}
 1705              		.cfi_def_cfa_offset 4
 1706              		.cfi_offset 7, -4
 1707 0002 85B0     		sub	sp, sp, #20
 1708              		.cfi_def_cfa_offset 24
 1709 0004 00AF     		add	r7, sp, #0
 1710              		.cfi_def_cfa_register 7
 1711 0006 0346     		mov	r3, r0
 1712 0008 FB71     		strb	r3, [r7, #7]
1319:.\Generated_Source\PSoC5/USBUART_1.c ****     uint8 ri ;
1320:.\Generated_Source\PSoC5/USBUART_1.c **** 
1321:.\Generated_Source\PSoC5/USBUART_1.c ****     if((epNumber > USBUART_1_EP0) && (epNumber < USBUART_1_MAX_EP))
 1713              		.loc 1 1321 0
 1714 000a FB79     		ldrb	r3, [r7, #7]	@ zero_extendqisi2
 1715 000c 002B     		cmp	r3, #0
 1716 000e 0CD0     		beq	.L95
 1717              		.loc 1 1321 0 is_stmt 0 discriminator 1
 1718 0010 FB79     		ldrb	r3, [r7, #7]	@ zero_extendqisi2
 1719 0012 082B     		cmp	r3, #8
 1720 0014 09D8     		bhi	.L95
1322:.\Generated_Source\PSoC5/USBUART_1.c ****     {
1323:.\Generated_Source\PSoC5/USBUART_1.c ****         ri = ((epNumber - USBUART_1_EP1) << USBUART_1_EPX_CNTX_ADDR_SHIFT);
 1721              		.loc 1 1323 0 is_stmt 1
 1722 0016 FB79     		ldrb	r3, [r7, #7]
 1723 0018 013B     		subs	r3, r3, #1
 1724 001a DBB2     		uxtb	r3, r3
 1725 001c 1B01     		lsls	r3, r3, #4
 1726 001e FB73     		strb	r3, [r7, #15]
1324:.\Generated_Source\PSoC5/USBUART_1.c ****         /* Write the Mode register */
1325:.\Generated_Source\PSoC5/USBUART_1.c ****         CY_SET_REG8((reg8 *)(USBUART_1_SIE_EP1_CR0_IND + ri), USBUART_1_MODE_NAK_OUT);
 1727              		.loc 1 1325 0
 1728 0020 FA7B     		ldrb	r2, [r7, #15]	@ zero_extendqisi2
 1729 0022 044B     		ldr	r3, .L97
 1730 0024 1344     		add	r3, r3, r2
 1731 0026 0822     		movs	r2, #8
 1732 0028 1A70     		strb	r2, [r3]
 1733              	.L95:
1326:.\Generated_Source\PSoC5/USBUART_1.c ****     }
1327:.\Generated_Source\PSoC5/USBUART_1.c **** }
 1734              		.loc 1 1327 0
 1735 002a 1437     		adds	r7, r7, #20
 1736 002c BD46     		mov	sp, r7
 1737              		@ sp needed
 1738 002e 5DF8047B 		ldr	r7, [sp], #4
 1739 0032 7047     		bx	lr
 1740              	.L98:
 1741              		.align	2
 1742              	.L97:
 1743 0034 0E600040 		.word	1073766414
 1744              		.cfi_endproc
 1745              	.LFE16:
 1746              		.size	USBUART_1_DisableOutEP, .-USBUART_1_DisableOutEP
 1747              		.section	.text.USBUART_1_Force,"ax",%progbits
 1748              		.align	2
 1749              		.global	USBUART_1_Force
ARM GAS  C:\Users\pfautley\AppData\Local\Temp\ccTPF43f.s 			page 55


 1750              		.thumb
 1751              		.thumb_func
 1752              		.type	USBUART_1_Force, %function
 1753              	USBUART_1_Force:
 1754              	.LFB17:
1328:.\Generated_Source\PSoC5/USBUART_1.c **** 
1329:.\Generated_Source\PSoC5/USBUART_1.c **** 
1330:.\Generated_Source\PSoC5/USBUART_1.c **** /*******************************************************************************
1331:.\Generated_Source\PSoC5/USBUART_1.c **** * Function Name: USBUART_1_Force
1332:.\Generated_Source\PSoC5/USBUART_1.c **** ********************************************************************************
1333:.\Generated_Source\PSoC5/USBUART_1.c **** *
1334:.\Generated_Source\PSoC5/USBUART_1.c **** * Summary:
1335:.\Generated_Source\PSoC5/USBUART_1.c **** *  Forces the bus state
1336:.\Generated_Source\PSoC5/USBUART_1.c **** *
1337:.\Generated_Source\PSoC5/USBUART_1.c **** * Parameters:
1338:.\Generated_Source\PSoC5/USBUART_1.c **** *  bState
1339:.\Generated_Source\PSoC5/USBUART_1.c **** *    USBUART_1_FORCE_J
1340:.\Generated_Source\PSoC5/USBUART_1.c **** *    USBUART_1_FORCE_K
1341:.\Generated_Source\PSoC5/USBUART_1.c **** *    USBUART_1_FORCE_SE0
1342:.\Generated_Source\PSoC5/USBUART_1.c **** *    USBUART_1_FORCE_NONE
1343:.\Generated_Source\PSoC5/USBUART_1.c **** *
1344:.\Generated_Source\PSoC5/USBUART_1.c **** * Return:
1345:.\Generated_Source\PSoC5/USBUART_1.c **** *  None.
1346:.\Generated_Source\PSoC5/USBUART_1.c **** *
1347:.\Generated_Source\PSoC5/USBUART_1.c **** *******************************************************************************/
1348:.\Generated_Source\PSoC5/USBUART_1.c **** void USBUART_1_Force(uint8 bState) 
1349:.\Generated_Source\PSoC5/USBUART_1.c **** {
 1755              		.loc 1 1349 0
 1756              		.cfi_startproc
 1757              		@ args = 0, pretend = 0, frame = 8
 1758              		@ frame_needed = 1, uses_anonymous_args = 0
 1759              		@ link register save eliminated.
 1760 0000 80B4     		push	{r7}
 1761              		.cfi_def_cfa_offset 4
 1762              		.cfi_offset 7, -4
 1763 0002 83B0     		sub	sp, sp, #12
 1764              		.cfi_def_cfa_offset 16
 1765 0004 00AF     		add	r7, sp, #0
 1766              		.cfi_def_cfa_register 7
 1767 0006 0346     		mov	r3, r0
 1768 0008 FB71     		strb	r3, [r7, #7]
1350:.\Generated_Source\PSoC5/USBUART_1.c ****     CY_SET_REG8(USBUART_1_USBIO_CR0_PTR, bState);
 1769              		.loc 1 1350 0
 1770 000a 044B     		ldr	r3, .L100
 1771 000c FA79     		ldrb	r2, [r7, #7]
 1772 000e 1A70     		strb	r2, [r3]
1351:.\Generated_Source\PSoC5/USBUART_1.c **** }
 1773              		.loc 1 1351 0
 1774 0010 0C37     		adds	r7, r7, #12
 1775 0012 BD46     		mov	sp, r7
 1776              		@ sp needed
 1777 0014 5DF8047B 		ldr	r7, [sp], #4
 1778 0018 7047     		bx	lr
 1779              	.L101:
 1780 001a 00BF     		.align	2
 1781              	.L100:
 1782 001c 10600040 		.word	1073766416
ARM GAS  C:\Users\pfautley\AppData\Local\Temp\ccTPF43f.s 			page 56


 1783              		.cfi_endproc
 1784              	.LFE17:
 1785              		.size	USBUART_1_Force, .-USBUART_1_Force
 1786              		.section	.text.USBUART_1_GetEPAckState,"ax",%progbits
 1787              		.align	2
 1788              		.global	USBUART_1_GetEPAckState
 1789              		.thumb
 1790              		.thumb_func
 1791              		.type	USBUART_1_GetEPAckState, %function
 1792              	USBUART_1_GetEPAckState:
 1793              	.LFB18:
1352:.\Generated_Source\PSoC5/USBUART_1.c **** 
1353:.\Generated_Source\PSoC5/USBUART_1.c **** 
1354:.\Generated_Source\PSoC5/USBUART_1.c **** /*******************************************************************************
1355:.\Generated_Source\PSoC5/USBUART_1.c **** * Function Name: USBUART_1_GetEPAckState
1356:.\Generated_Source\PSoC5/USBUART_1.c **** ********************************************************************************
1357:.\Generated_Source\PSoC5/USBUART_1.c **** *
1358:.\Generated_Source\PSoC5/USBUART_1.c **** * Summary:
1359:.\Generated_Source\PSoC5/USBUART_1.c **** *  Returns the ACK of the CR0 Register (ACKD)
1360:.\Generated_Source\PSoC5/USBUART_1.c **** *
1361:.\Generated_Source\PSoC5/USBUART_1.c **** * Parameters:
1362:.\Generated_Source\PSoC5/USBUART_1.c **** *  epNumber: Endpoint Number
1363:.\Generated_Source\PSoC5/USBUART_1.c **** *            Valid values are between 1 and 8.
1364:.\Generated_Source\PSoC5/USBUART_1.c **** *
1365:.\Generated_Source\PSoC5/USBUART_1.c **** * Returns
1366:.\Generated_Source\PSoC5/USBUART_1.c **** *  0 if nothing has been ACKD, non-=zero something has been ACKD
1367:.\Generated_Source\PSoC5/USBUART_1.c **** *
1368:.\Generated_Source\PSoC5/USBUART_1.c **** *******************************************************************************/
1369:.\Generated_Source\PSoC5/USBUART_1.c **** uint8 USBUART_1_GetEPAckState(uint8 epNumber) 
1370:.\Generated_Source\PSoC5/USBUART_1.c **** {
 1794              		.loc 1 1370 0
 1795              		.cfi_startproc
 1796              		@ args = 0, pretend = 0, frame = 16
 1797              		@ frame_needed = 1, uses_anonymous_args = 0
 1798              		@ link register save eliminated.
 1799 0000 80B4     		push	{r7}
 1800              		.cfi_def_cfa_offset 4
 1801              		.cfi_offset 7, -4
 1802 0002 85B0     		sub	sp, sp, #20
 1803              		.cfi_def_cfa_offset 24
 1804 0004 00AF     		add	r7, sp, #0
 1805              		.cfi_def_cfa_register 7
 1806 0006 0346     		mov	r3, r0
 1807 0008 FB71     		strb	r3, [r7, #7]
1371:.\Generated_Source\PSoC5/USBUART_1.c ****     uint8 ri;
1372:.\Generated_Source\PSoC5/USBUART_1.c ****     uint8 cr = 0u;
 1808              		.loc 1 1372 0
 1809 000a 0023     		movs	r3, #0
 1810 000c FB73     		strb	r3, [r7, #15]
1373:.\Generated_Source\PSoC5/USBUART_1.c **** 
1374:.\Generated_Source\PSoC5/USBUART_1.c ****     if((epNumber > USBUART_1_EP0) && (epNumber < USBUART_1_MAX_EP))
 1811              		.loc 1 1374 0
 1812 000e FB79     		ldrb	r3, [r7, #7]	@ zero_extendqisi2
 1813 0010 002B     		cmp	r3, #0
 1814 0012 0FD0     		beq	.L103
 1815              		.loc 1 1374 0 is_stmt 0 discriminator 1
 1816 0014 FB79     		ldrb	r3, [r7, #7]	@ zero_extendqisi2
ARM GAS  C:\Users\pfautley\AppData\Local\Temp\ccTPF43f.s 			page 57


 1817 0016 082B     		cmp	r3, #8
 1818 0018 0CD8     		bhi	.L103
1375:.\Generated_Source\PSoC5/USBUART_1.c ****     {
1376:.\Generated_Source\PSoC5/USBUART_1.c ****         ri = ((epNumber - USBUART_1_EP1) << USBUART_1_EPX_CNTX_ADDR_SHIFT);
 1819              		.loc 1 1376 0 is_stmt 1
 1820 001a FB79     		ldrb	r3, [r7, #7]
 1821 001c 013B     		subs	r3, r3, #1
 1822 001e DBB2     		uxtb	r3, r3
 1823 0020 1B01     		lsls	r3, r3, #4
 1824 0022 BB73     		strb	r3, [r7, #14]
1377:.\Generated_Source\PSoC5/USBUART_1.c ****         cr = CY_GET_REG8((reg8 *)(USBUART_1_SIE_EP1_CR0_IND + ri)) & USBUART_1_MODE_ACKD;
 1825              		.loc 1 1377 0
 1826 0024 BA7B     		ldrb	r2, [r7, #14]	@ zero_extendqisi2
 1827 0026 074B     		ldr	r3, .L105
 1828 0028 1344     		add	r3, r3, r2
 1829 002a 1B78     		ldrb	r3, [r3]
 1830 002c DBB2     		uxtb	r3, r3
 1831 002e 03F01003 		and	r3, r3, #16
 1832 0032 FB73     		strb	r3, [r7, #15]
 1833              	.L103:
1378:.\Generated_Source\PSoC5/USBUART_1.c ****     }
1379:.\Generated_Source\PSoC5/USBUART_1.c **** 
1380:.\Generated_Source\PSoC5/USBUART_1.c ****     return(cr);
 1834              		.loc 1 1380 0
 1835 0034 FB7B     		ldrb	r3, [r7, #15]	@ zero_extendqisi2
1381:.\Generated_Source\PSoC5/USBUART_1.c **** }
 1836              		.loc 1 1381 0
 1837 0036 1846     		mov	r0, r3
 1838 0038 1437     		adds	r7, r7, #20
 1839 003a BD46     		mov	sp, r7
 1840              		@ sp needed
 1841 003c 5DF8047B 		ldr	r7, [sp], #4
 1842 0040 7047     		bx	lr
 1843              	.L106:
 1844 0042 00BF     		.align	2
 1845              	.L105:
 1846 0044 0E600040 		.word	1073766414
 1847              		.cfi_endproc
 1848              	.LFE18:
 1849              		.size	USBUART_1_GetEPAckState, .-USBUART_1_GetEPAckState
 1850              		.section	.text.USBUART_1_SetPowerStatus,"ax",%progbits
 1851              		.align	2
 1852              		.global	USBUART_1_SetPowerStatus
 1853              		.thumb
 1854              		.thumb_func
 1855              		.type	USBUART_1_SetPowerStatus, %function
 1856              	USBUART_1_SetPowerStatus:
 1857              	.LFB19:
1382:.\Generated_Source\PSoC5/USBUART_1.c **** 
1383:.\Generated_Source\PSoC5/USBUART_1.c **** 
1384:.\Generated_Source\PSoC5/USBUART_1.c **** /*******************************************************************************
1385:.\Generated_Source\PSoC5/USBUART_1.c **** * Function Name: USBUART_1_SetPowerStatus
1386:.\Generated_Source\PSoC5/USBUART_1.c **** ********************************************************************************
1387:.\Generated_Source\PSoC5/USBUART_1.c **** *
1388:.\Generated_Source\PSoC5/USBUART_1.c **** * Summary:
1389:.\Generated_Source\PSoC5/USBUART_1.c **** *  Sets the device power status for reporting in the Get Device Status
1390:.\Generated_Source\PSoC5/USBUART_1.c **** *  request
ARM GAS  C:\Users\pfautley\AppData\Local\Temp\ccTPF43f.s 			page 58


1391:.\Generated_Source\PSoC5/USBUART_1.c **** *
1392:.\Generated_Source\PSoC5/USBUART_1.c **** * Parameters:
1393:.\Generated_Source\PSoC5/USBUART_1.c **** *  powerStatus: USBUART_1_DEVICE_STATUS_BUS_POWERED(0) - Bus Powered,
1394:.\Generated_Source\PSoC5/USBUART_1.c **** *               USBUART_1_DEVICE_STATUS_SELF_POWERED(1) - Self Powered
1395:.\Generated_Source\PSoC5/USBUART_1.c **** *
1396:.\Generated_Source\PSoC5/USBUART_1.c **** * Return:
1397:.\Generated_Source\PSoC5/USBUART_1.c **** *   None.
1398:.\Generated_Source\PSoC5/USBUART_1.c **** *
1399:.\Generated_Source\PSoC5/USBUART_1.c **** * Global variables:
1400:.\Generated_Source\PSoC5/USBUART_1.c **** *  USBUART_1_deviceStatus - set power status
1401:.\Generated_Source\PSoC5/USBUART_1.c **** *
1402:.\Generated_Source\PSoC5/USBUART_1.c **** * Reentrant:
1403:.\Generated_Source\PSoC5/USBUART_1.c **** *  No.
1404:.\Generated_Source\PSoC5/USBUART_1.c **** *
1405:.\Generated_Source\PSoC5/USBUART_1.c **** *******************************************************************************/
1406:.\Generated_Source\PSoC5/USBUART_1.c **** void USBUART_1_SetPowerStatus(uint8 powerStatus) 
1407:.\Generated_Source\PSoC5/USBUART_1.c **** {
 1858              		.loc 1 1407 0
 1859              		.cfi_startproc
 1860              		@ args = 0, pretend = 0, frame = 8
 1861              		@ frame_needed = 1, uses_anonymous_args = 0
 1862              		@ link register save eliminated.
 1863 0000 80B4     		push	{r7}
 1864              		.cfi_def_cfa_offset 4
 1865              		.cfi_offset 7, -4
 1866 0002 83B0     		sub	sp, sp, #12
 1867              		.cfi_def_cfa_offset 16
 1868 0004 00AF     		add	r7, sp, #0
 1869              		.cfi_def_cfa_register 7
 1870 0006 0346     		mov	r3, r0
 1871 0008 FB71     		strb	r3, [r7, #7]
1408:.\Generated_Source\PSoC5/USBUART_1.c ****     if (powerStatus != USBUART_1_DEVICE_STATUS_BUS_POWERED)
 1872              		.loc 1 1408 0
 1873 000a FB79     		ldrb	r3, [r7, #7]	@ zero_extendqisi2
 1874 000c 002B     		cmp	r3, #0
 1875 000e 08D0     		beq	.L108
1409:.\Generated_Source\PSoC5/USBUART_1.c ****     {
1410:.\Generated_Source\PSoC5/USBUART_1.c ****         USBUART_1_deviceStatus |=  USBUART_1_DEVICE_STATUS_SELF_POWERED;
 1876              		.loc 1 1410 0
 1877 0010 0A4B     		ldr	r3, .L110
 1878 0012 1B78     		ldrb	r3, [r3]
 1879 0014 DBB2     		uxtb	r3, r3
 1880 0016 43F00103 		orr	r3, r3, #1
 1881 001a DAB2     		uxtb	r2, r3
 1882 001c 074B     		ldr	r3, .L110
 1883 001e 1A70     		strb	r2, [r3]
 1884 0020 07E0     		b	.L107
 1885              	.L108:
1411:.\Generated_Source\PSoC5/USBUART_1.c ****     }
1412:.\Generated_Source\PSoC5/USBUART_1.c ****     else
1413:.\Generated_Source\PSoC5/USBUART_1.c ****     {
1414:.\Generated_Source\PSoC5/USBUART_1.c ****         USBUART_1_deviceStatus &=  ((uint8)(~USBUART_1_DEVICE_STATUS_SELF_POWERED));
 1886              		.loc 1 1414 0
 1887 0022 064B     		ldr	r3, .L110
 1888 0024 1B78     		ldrb	r3, [r3]
 1889 0026 DBB2     		uxtb	r3, r3
 1890 0028 23F00103 		bic	r3, r3, #1
ARM GAS  C:\Users\pfautley\AppData\Local\Temp\ccTPF43f.s 			page 59


 1891 002c DAB2     		uxtb	r2, r3
 1892 002e 034B     		ldr	r3, .L110
 1893 0030 1A70     		strb	r2, [r3]
 1894              	.L107:
1415:.\Generated_Source\PSoC5/USBUART_1.c ****     }
1416:.\Generated_Source\PSoC5/USBUART_1.c **** }
 1895              		.loc 1 1416 0
 1896 0032 0C37     		adds	r7, r7, #12
 1897 0034 BD46     		mov	sp, r7
 1898              		@ sp needed
 1899 0036 5DF8047B 		ldr	r7, [sp], #4
 1900 003a 7047     		bx	lr
 1901              	.L111:
 1902              		.align	2
 1903              	.L110:
 1904 003c 00000000 		.word	USBUART_1_deviceStatus
 1905              		.cfi_endproc
 1906              	.LFE19:
 1907              		.size	USBUART_1_SetPowerStatus, .-USBUART_1_SetPowerStatus
 1908              		.section	.text.USBUART_1_RWUEnabled,"ax",%progbits
 1909              		.align	2
 1910              		.global	USBUART_1_RWUEnabled
 1911              		.thumb
 1912              		.thumb_func
 1913              		.type	USBUART_1_RWUEnabled, %function
 1914              	USBUART_1_RWUEnabled:
 1915              	.LFB20:
1417:.\Generated_Source\PSoC5/USBUART_1.c **** 
1418:.\Generated_Source\PSoC5/USBUART_1.c **** 
1419:.\Generated_Source\PSoC5/USBUART_1.c **** #if (USBUART_1_MON_VBUS == 1u)
1420:.\Generated_Source\PSoC5/USBUART_1.c **** 
1421:.\Generated_Source\PSoC5/USBUART_1.c ****     /*******************************************************************************
1422:.\Generated_Source\PSoC5/USBUART_1.c ****     * Function Name: USBUART_1_VBusPresent
1423:.\Generated_Source\PSoC5/USBUART_1.c ****     ********************************************************************************
1424:.\Generated_Source\PSoC5/USBUART_1.c ****     *
1425:.\Generated_Source\PSoC5/USBUART_1.c ****     * Summary:
1426:.\Generated_Source\PSoC5/USBUART_1.c ****     *  Determines VBUS presence for Self Powered Devices.
1427:.\Generated_Source\PSoC5/USBUART_1.c ****     *
1428:.\Generated_Source\PSoC5/USBUART_1.c ****     * Parameters:
1429:.\Generated_Source\PSoC5/USBUART_1.c ****     *  None.
1430:.\Generated_Source\PSoC5/USBUART_1.c ****     *
1431:.\Generated_Source\PSoC5/USBUART_1.c ****     * Return:
1432:.\Generated_Source\PSoC5/USBUART_1.c ****     *  1 if VBUS is present, otherwise 0.
1433:.\Generated_Source\PSoC5/USBUART_1.c ****     *
1434:.\Generated_Source\PSoC5/USBUART_1.c ****     *******************************************************************************/
1435:.\Generated_Source\PSoC5/USBUART_1.c ****     uint8 USBUART_1_VBusPresent(void) 
1436:.\Generated_Source\PSoC5/USBUART_1.c ****     {
1437:.\Generated_Source\PSoC5/USBUART_1.c ****         return((0u != (CY_GET_REG8(USBUART_1_VBUS_PS_PTR) & USBUART_1_VBUS_MASK)) ? 1u : 0u);
1438:.\Generated_Source\PSoC5/USBUART_1.c ****     }
1439:.\Generated_Source\PSoC5/USBUART_1.c **** 
1440:.\Generated_Source\PSoC5/USBUART_1.c **** #endif /* USBUART_1_MON_VBUS */
1441:.\Generated_Source\PSoC5/USBUART_1.c **** 
1442:.\Generated_Source\PSoC5/USBUART_1.c **** 
1443:.\Generated_Source\PSoC5/USBUART_1.c **** /*******************************************************************************
1444:.\Generated_Source\PSoC5/USBUART_1.c **** * Function Name: USBUART_1_RWUEnabled
1445:.\Generated_Source\PSoC5/USBUART_1.c **** ********************************************************************************
1446:.\Generated_Source\PSoC5/USBUART_1.c **** *
ARM GAS  C:\Users\pfautley\AppData\Local\Temp\ccTPF43f.s 			page 60


1447:.\Generated_Source\PSoC5/USBUART_1.c **** * Summary:
1448:.\Generated_Source\PSoC5/USBUART_1.c **** *  Returns TRUE if Remote Wake Up is enabled, otherwise FALSE
1449:.\Generated_Source\PSoC5/USBUART_1.c **** *
1450:.\Generated_Source\PSoC5/USBUART_1.c **** * Parameters:
1451:.\Generated_Source\PSoC5/USBUART_1.c **** *   None.
1452:.\Generated_Source\PSoC5/USBUART_1.c **** *
1453:.\Generated_Source\PSoC5/USBUART_1.c **** * Return:
1454:.\Generated_Source\PSoC5/USBUART_1.c **** *  TRUE -  Remote Wake Up Enabled
1455:.\Generated_Source\PSoC5/USBUART_1.c **** *  FALSE - Remote Wake Up Disabled
1456:.\Generated_Source\PSoC5/USBUART_1.c **** *
1457:.\Generated_Source\PSoC5/USBUART_1.c **** * Global variables:
1458:.\Generated_Source\PSoC5/USBUART_1.c **** *  USBUART_1_deviceStatus - checked to determine remote status
1459:.\Generated_Source\PSoC5/USBUART_1.c **** *
1460:.\Generated_Source\PSoC5/USBUART_1.c **** *******************************************************************************/
1461:.\Generated_Source\PSoC5/USBUART_1.c **** uint8 USBUART_1_RWUEnabled(void) 
1462:.\Generated_Source\PSoC5/USBUART_1.c **** {
 1916              		.loc 1 1462 0
 1917              		.cfi_startproc
 1918              		@ args = 0, pretend = 0, frame = 8
 1919              		@ frame_needed = 1, uses_anonymous_args = 0
 1920              		@ link register save eliminated.
 1921 0000 80B4     		push	{r7}
 1922              		.cfi_def_cfa_offset 4
 1923              		.cfi_offset 7, -4
 1924 0002 83B0     		sub	sp, sp, #12
 1925              		.cfi_def_cfa_offset 16
 1926 0004 00AF     		add	r7, sp, #0
 1927              		.cfi_def_cfa_register 7
1463:.\Generated_Source\PSoC5/USBUART_1.c ****     uint8 result = USBUART_1_FALSE;
 1928              		.loc 1 1463 0
 1929 0006 0023     		movs	r3, #0
 1930 0008 FB71     		strb	r3, [r7, #7]
1464:.\Generated_Source\PSoC5/USBUART_1.c ****     if((USBUART_1_deviceStatus & USBUART_1_DEVICE_STATUS_REMOTE_WAKEUP) != 0u)
 1931              		.loc 1 1464 0
 1932 000a 084B     		ldr	r3, .L115
 1933 000c 1B78     		ldrb	r3, [r3]
 1934 000e DBB2     		uxtb	r3, r3
 1935 0010 03F00203 		and	r3, r3, #2
 1936 0014 002B     		cmp	r3, #0
 1937 0016 01D0     		beq	.L113
1465:.\Generated_Source\PSoC5/USBUART_1.c ****     {
1466:.\Generated_Source\PSoC5/USBUART_1.c ****         result = USBUART_1_TRUE;
 1938              		.loc 1 1466 0
 1939 0018 0123     		movs	r3, #1
 1940 001a FB71     		strb	r3, [r7, #7]
 1941              	.L113:
1467:.\Generated_Source\PSoC5/USBUART_1.c ****     }
1468:.\Generated_Source\PSoC5/USBUART_1.c **** 
1469:.\Generated_Source\PSoC5/USBUART_1.c ****     return(result);
 1942              		.loc 1 1469 0
 1943 001c FB79     		ldrb	r3, [r7, #7]	@ zero_extendqisi2
1470:.\Generated_Source\PSoC5/USBUART_1.c **** }
 1944              		.loc 1 1470 0
 1945 001e 1846     		mov	r0, r3
 1946 0020 0C37     		adds	r7, r7, #12
 1947 0022 BD46     		mov	sp, r7
 1948              		@ sp needed
ARM GAS  C:\Users\pfautley\AppData\Local\Temp\ccTPF43f.s 			page 61


 1949 0024 5DF8047B 		ldr	r7, [sp], #4
 1950 0028 7047     		bx	lr
 1951              	.L116:
 1952 002a 00BF     		.align	2
 1953              	.L115:
 1954 002c 00000000 		.word	USBUART_1_deviceStatus
 1955              		.cfi_endproc
 1956              	.LFE20:
 1957              		.size	USBUART_1_RWUEnabled, .-USBUART_1_RWUEnabled
 1958              		.text
 1959              	.Letext0:
 1960              		.file 2 ".\\Generated_Source\\PSoC5/cytypes.h"
 1961              		.file 3 ".\\Generated_Source\\PSoC5\\USBUART_1.h"
 1962              		.file 4 ".\\Generated_Source\\PSoC5\\USBUART_1_pvt.h"